
gprof.elf:     file format elf32-littlearm


Disassembly of section .text:

00008000 <__code_start__>:
    8000:	e3a00013 	mov	r0, #19, 0
    8004:	e3800080 	orr	r0, r0, #128, 0	; 0x80
    8008:	e129f000 	msr	CPSR_fc, r0
    800c:	e3a01000 	mov	r1, #0, 0
    8010:	ee071f95 	mcr	15, 0, r1, cr7, cr5, {4}
    8014:	e3a0d302 	mov	sp, #134217728	; 0x8000000
    8018:	e3a0b000 	mov	fp, #0, 0
    801c:	eb00034a 	bl	8d4c <_cstart>
    8020:	eb000368 	bl	8dc8 <rpi_reboot>

00008024 <PUT32>:
    8024:	e5801000 	str	r1, [r0]
    8028:	e12fff1e 	bx	lr

0000802c <GET32>:
    802c:	e5900000 	ldr	r0, [r0]
    8030:	e12fff1e 	bx	lr

00008034 <BRANCHTO>:
    8034:	e12fff10 	bx	r0

00008038 <gprof_inc>:
    8038:	e59f301c 	ldr	r3, [pc, #28]	; 805c <gprof_inc+0x24>
    803c:	e0400003 	sub	r0, r0, r3
    8040:	e3c00003 	bic	r0, r0, #3, 0
    8044:	e59f3014 	ldr	r3, [pc, #20]	; 8060 <gprof_inc+0x28>
    8048:	e5932000 	ldr	r2, [r3]
    804c:	e7923000 	ldr	r3, [r2, r0]
    8050:	e2833001 	add	r3, r3, #1, 0
    8054:	e7823000 	str	r3, [r2, r0]
    8058:	e12fff1e 	bx	lr
    805c:	00008000 	andeq	r8, r0, r0
    8060:	000097e4 	andeq	r9, r0, r4, ror #15

00008064 <gprof_init>:
    8064:	e92d4010 	push	{r4, lr}
    8068:	e59f304c 	ldr	r3, [pc, #76]	; 80bc <gprof_init+0x58>
    806c:	e59f204c 	ldr	r2, [pc, #76]	; 80c0 <gprof_init+0x5c>
    8070:	e0433002 	sub	r3, r3, r2
    8074:	e1a03143 	asr	r3, r3, #2
    8078:	e59f4044 	ldr	r4, [pc, #68]	; 80c4 <gprof_init+0x60>
    807c:	e5843004 	str	r3, [r4, #4]
    8080:	e5940004 	ldr	r0, [r4, #4]
    8084:	e1a00100 	lsl	r0, r0, #2
    8088:	eb0001b6 	bl	8768 <kmalloc>
    808c:	e5840000 	str	r0, [r4]
    8090:	e3a03000 	mov	r3, #0, 0
    8094:	e59f2028 	ldr	r2, [pc, #40]	; 80c4 <gprof_init+0x60>
    8098:	e5922004 	ldr	r2, [r2, #4]
    809c:	e1520003 	cmp	r2, r3
    80a0:	83a02000 	movhi	r2, #0, 0
    80a4:	87802103 	strhi	r2, [r0, r3, lsl #2]
    80a8:	82833001 	addhi	r3, r3, #1, 0
    80ac:	8afffff8 	bhi	8094 <gprof_init+0x30>
    80b0:	e59f300c 	ldr	r3, [pc, #12]	; 80c4 <gprof_init+0x60>
    80b4:	e5930004 	ldr	r0, [r3, #4]
    80b8:	e8bd8010 	pop	{r4, pc}
    80bc:	000091e0 	andeq	r9, r0, r0, ror #3
    80c0:	00008000 	andeq	r8, r0, r0
    80c4:	000097e4 	andeq	r9, r0, r4, ror #15

000080c8 <gprof_dump>:
    80c8:	e92d4070 	push	{r4, r5, r6, lr}
    80cc:	e1a05000 	mov	r5, r0
    80d0:	eb0000f6 	bl	84b0 <system_disable_interrupts>
    80d4:	e3a04000 	mov	r4, #0, 0
    80d8:	ea000005 	b	80f4 <gprof_dump+0x2c>
    80dc:	e7932104 	ldr	r2, [r3, r4, lsl #2]
    80e0:	e59f3040 	ldr	r3, [pc, #64]	; 8128 <gprof_dump+0x60>
    80e4:	e0831001 	add	r1, r3, r1
    80e8:	e59f003c 	ldr	r0, [pc, #60]	; 812c <gprof_dump+0x64>
    80ec:	eb00024f 	bl	8a30 <printk>
    80f0:	e2844001 	add	r4, r4, #1, 0
    80f4:	e59f3034 	ldr	r3, [pc, #52]	; 8130 <gprof_dump+0x68>
    80f8:	e5933004 	ldr	r3, [r3, #4]
    80fc:	e1530004 	cmp	r3, r4
    8100:	9a000006 	bls	8120 <gprof_dump+0x58>
    8104:	e1a01104 	lsl	r1, r4, #2
    8108:	e59f3020 	ldr	r3, [pc, #32]	; 8130 <gprof_dump+0x68>
    810c:	e5933000 	ldr	r3, [r3]
    8110:	e7932104 	ldr	r2, [r3, r4, lsl #2]
    8114:	e1520005 	cmp	r2, r5
    8118:	9afffff4 	bls	80f0 <gprof_dump+0x28>
    811c:	eaffffee 	b	80dc <gprof_dump+0x14>
    8120:	eb0000de 	bl	84a0 <system_enable_interrupts>
    8124:	e8bd8070 	pop	{r4, r5, r6, pc}
    8128:	00008000 	andeq	r8, r0, r0
    812c:	000091e0 	andeq	r9, r0, r0, ror #3
    8130:	000097e4 	andeq	r9, r0, r4, ror #15

00008134 <interrupt_vector>:
    8134:	e92d4070 	push	{r4, r5, r6, lr}
    8138:	e1a04000 	mov	r4, r0
    813c:	eb000310 	bl	8d84 <dev_barrier>
    8140:	e59f004c 	ldr	r0, [pc, #76]	; 8194 <interrupt_vector+0x60>
    8144:	ebffffb8 	bl	802c <GET32>
    8148:	e3100001 	tst	r0, #1, 0
    814c:	08bd8070 	popeq	{r4, r5, r6, pc}
    8150:	e3a01001 	mov	r1, #1, 0
    8154:	e59f003c 	ldr	r0, [pc, #60]	; 8198 <interrupt_vector+0x64>
    8158:	ebffffb1 	bl	8024 <PUT32>
    815c:	e59f5038 	ldr	r5, [pc, #56]	; 819c <interrupt_vector+0x68>
    8160:	e5953008 	ldr	r3, [r5, #8]
    8164:	e2833001 	add	r3, r3, #1, 0
    8168:	e5853008 	str	r3, [r5, #8]
    816c:	e1a00004 	mov	r0, r4
    8170:	ebffffb0 	bl	8038 <gprof_inc>
    8174:	eb00032c 	bl	8e2c <timer_get_usec>
    8178:	e595300c 	ldr	r3, [r5, #12]
    817c:	e3530000 	cmp	r3, #0, 0
    8180:	10403003 	subne	r3, r0, r3
    8184:	e59f2010 	ldr	r2, [pc, #16]	; 819c <interrupt_vector+0x68>
    8188:	e5823010 	str	r3, [r2, #16]
    818c:	e582000c 	str	r0, [r2, #12]
    8190:	e8bd8070 	pop	{r4, r5, r6, pc}
    8194:	2000b200 	andcs	fp, r0, r0, lsl #4
    8198:	2000b40c 	andcs	fp, r0, ip, lsl #8
    819c:	000097e4 	andeq	r9, r0, r4, ror #15

000081a0 <notmain>:
    81a0:	e92d4010 	push	{r4, lr}
    81a4:	e24dd008 	sub	sp, sp, #8, 0
    81a8:	e59f00ac 	ldr	r0, [pc, #172]	; 825c <notmain+0xbc>
    81ac:	eb00021f 	bl	8a30 <printk>
    81b0:	eb000030 	bl	8278 <int_init>
    81b4:	e59f00a4 	ldr	r0, [pc, #164]	; 8260 <notmain+0xc0>
    81b8:	eb00021c 	bl	8a30 <printk>
    81bc:	e3a00010 	mov	r0, #16, 0
    81c0:	eb0000a6 	bl	8460 <timer_interrupt_init>
    81c4:	e59f4098 	ldr	r4, [pc, #152]	; 8264 <notmain+0xc4>
    81c8:	e1a00004 	mov	r0, r4
    81cc:	eb000217 	bl	8a30 <printk>
    81d0:	e3a01601 	mov	r1, #1048576	; 0x100000
    81d4:	e1a00001 	mov	r0, r1
    81d8:	eb0000f0 	bl	85a0 <kmalloc_init_set_start>
    81dc:	ebffffa0 	bl	8064 <gprof_init>
    81e0:	e1a00004 	mov	r0, r4
    81e4:	eb000211 	bl	8a30 <printk>
    81e8:	eb0000ac 	bl	84a0 <system_enable_interrupts>
    81ec:	e59f0074 	ldr	r0, [pc, #116]	; 8268 <notmain+0xc8>
    81f0:	eb00020e 	bl	8a30 <printk>
    81f4:	e3a04000 	mov	r4, #0, 0
    81f8:	ea000001 	b	8204 <notmain+0x64>
    81fc:	e3a00002 	mov	r0, #2, 0
    8200:	ebffffb0 	bl	80c8 <gprof_dump>
    8204:	e59f3060 	ldr	r3, [pc, #96]	; 826c <notmain+0xcc>
    8208:	e5933008 	ldr	r3, [r3, #8]
    820c:	e35300c7 	cmp	r3, #199, 0	; 0xc7
    8210:	8a000010 	bhi	8258 <notmain+0xb8>
    8214:	e59f1050 	ldr	r1, [pc, #80]	; 826c <notmain+0xcc>
    8218:	e5912008 	ldr	r2, [r1, #8]
    821c:	e5913010 	ldr	r3, [r1, #16]
    8220:	e5911010 	ldr	r1, [r1, #16]
    8224:	e58d1000 	str	r1, [sp]
    8228:	e1a01004 	mov	r1, r4
    822c:	e59f003c 	ldr	r0, [pc, #60]	; 8270 <notmain+0xd0>
    8230:	eb0001fe 	bl	8a30 <printk>
    8234:	e2844001 	add	r4, r4, #1, 0
    8238:	e59f3034 	ldr	r3, [pc, #52]	; 8274 <notmain+0xd4>
    823c:	e0832493 	umull	r2, r3, r3, r4
    8240:	e1a031a3 	lsr	r3, r3, #3
    8244:	e0833103 	add	r3, r3, r3, lsl #2
    8248:	e1a02083 	lsl	r2, r3, #1
    824c:	e1540002 	cmp	r4, r2
    8250:	1affffeb 	bne	8204 <notmain+0x64>
    8254:	eaffffe8 	b	81fc <notmain+0x5c>
    8258:	eb0002b3 	bl	8d2c <clean_reboot>
    825c:	000091ec 	andeq	r9, r0, ip, ror #3
    8260:	00009208 	andeq	r9, r0, r8, lsl #4
    8264:	00009228 	andeq	r9, r0, r8, lsr #4
    8268:	00009248 	andeq	r9, r0, r8, asr #4
    826c:	000097e4 	andeq	r9, r0, r4, ror #15
    8270:	00009254 	andeq	r9, r0, r4, asr r2
    8274:	cccccccd 	stclgt	12, cr12, [ip], {205}	; 0xcd

00008278 <int_init>:
    8278:	e92d4010 	push	{r4, lr}
    827c:	e3e01000 	mvn	r1, #0, 0
    8280:	e59f0044 	ldr	r0, [pc, #68]	; 82cc <int_init+0x54>
    8284:	ebffff66 	bl	8024 <PUT32>
    8288:	e3e01000 	mvn	r1, #0, 0
    828c:	e59f003c 	ldr	r0, [pc, #60]	; 82d0 <int_init+0x58>
    8290:	ebffff63 	bl	8024 <PUT32>
    8294:	eb0002ba 	bl	8d84 <dev_barrier>
    8298:	e59f0034 	ldr	r0, [pc, #52]	; 82d4 <int_init+0x5c>
    829c:	e59f3034 	ldr	r3, [pc, #52]	; 82d8 <int_init+0x60>
    82a0:	e0400003 	sub	r0, r0, r3
    82a4:	e1a00140 	asr	r0, r0, #2
    82a8:	e3a03000 	mov	r3, #0, 0
    82ac:	e1530000 	cmp	r3, r0
    82b0:	28bd8010 	popcs	{r4, pc}
    82b4:	e1a02103 	lsl	r2, r3, #2
    82b8:	e59f1018 	ldr	r1, [pc, #24]	; 82d8 <int_init+0x60>
    82bc:	e7911103 	ldr	r1, [r1, r3, lsl #2]
    82c0:	e5821000 	str	r1, [r2]
    82c4:	e2833001 	add	r3, r3, #1, 0
    82c8:	eafffff7 	b	82ac <int_init+0x34>
    82cc:	2000b21c 	andcs	fp, r0, ip, lsl r2
    82d0:	2000b220 	andcs	fp, r0, r0, lsr #4
    82d4:	00008510 	andeq	r8, r0, r0, lsl r5
    82d8:	000084c0 	andeq	r8, r0, r0, asr #9

000082dc <fast_interrupt_vector>:
    82dc:	e52de004 	push	{lr}		; (str lr, [sp, #-4]!)
    82e0:	e24dd00c 	sub	sp, sp, #12, 0
    82e4:	e58d0004 	str	r0, [sp, #4]
    82e8:	e59f3018 	ldr	r3, [pc, #24]	; 8308 <fast_interrupt_vector+0x2c>
    82ec:	e58d3000 	str	r3, [sp]
    82f0:	e3a03020 	mov	r3, #32, 0
    82f4:	e59f2010 	ldr	r2, [pc, #16]	; 830c <fast_interrupt_vector+0x30>
    82f8:	e59f1010 	ldr	r1, [pc, #16]	; 8310 <fast_interrupt_vector+0x34>
    82fc:	e59f0010 	ldr	r0, [pc, #16]	; 8314 <fast_interrupt_vector+0x38>
    8300:	eb0001ca 	bl	8a30 <printk>
    8304:	eb000288 	bl	8d2c <clean_reboot>
    8308:	000092c8 	andeq	r9, r0, r8, asr #5
    830c:	00009324 	andeq	r9, r0, r4, lsr #6
    8310:	0000927c 	andeq	r9, r0, ip, ror r2
    8314:	0000928c 	andeq	r9, r0, ip, lsl #5

00008318 <software_interrupt_vector>:
    8318:	e52de004 	push	{lr}		; (str lr, [sp, #-4]!)
    831c:	e24dd00c 	sub	sp, sp, #12, 0
    8320:	e58d0004 	str	r0, [sp, #4]
    8324:	e59f3018 	ldr	r3, [pc, #24]	; 8344 <software_interrupt_vector+0x2c>
    8328:	e58d3000 	str	r3, [sp]
    832c:	e3a03025 	mov	r3, #37, 0	; 0x25
    8330:	e59f2010 	ldr	r2, [pc, #16]	; 8348 <software_interrupt_vector+0x30>
    8334:	e59f1010 	ldr	r1, [pc, #16]	; 834c <software_interrupt_vector+0x34>
    8338:	e59f0010 	ldr	r0, [pc, #16]	; 8350 <software_interrupt_vector+0x38>
    833c:	eb0001bb 	bl	8a30 <printk>
    8340:	eb000279 	bl	8d2c <clean_reboot>
    8344:	000092d0 	ldrdeq	r9, [r0], -r0
    8348:	0000933c 	andeq	r9, r0, ip, lsr r3
    834c:	0000927c 	andeq	r9, r0, ip, ror r2
    8350:	0000928c 	andeq	r9, r0, ip, lsl #5

00008354 <reset_vector>:
    8354:	e52de004 	push	{lr}		; (str lr, [sp, #-4]!)
    8358:	e24dd00c 	sub	sp, sp, #12, 0
    835c:	e58d0004 	str	r0, [sp, #4]
    8360:	e59f3018 	ldr	r3, [pc, #24]	; 8380 <reset_vector+0x2c>
    8364:	e58d3000 	str	r3, [sp]
    8368:	e3a03028 	mov	r3, #40, 0	; 0x28
    836c:	e59f2010 	ldr	r2, [pc, #16]	; 8384 <reset_vector+0x30>
    8370:	e59f1010 	ldr	r1, [pc, #16]	; 8388 <reset_vector+0x34>
    8374:	e59f0010 	ldr	r0, [pc, #16]	; 838c <reset_vector+0x38>
    8378:	eb0001ac 	bl	8a30 <printk>
    837c:	eb00026a 	bl	8d2c <clean_reboot>
    8380:	000092e0 	andeq	r9, r0, r0, ror #5
    8384:	00009358 	andeq	r9, r0, r8, asr r3
    8388:	0000927c 	andeq	r9, r0, ip, ror r2
    838c:	0000928c 	andeq	r9, r0, ip, lsl #5

00008390 <undefined_instruction_vector>:
    8390:	e52de004 	push	{lr}		; (str lr, [sp, #-4]!)
    8394:	e24dd00c 	sub	sp, sp, #12, 0
    8398:	e58d0004 	str	r0, [sp, #4]
    839c:	e59f3018 	ldr	r3, [pc, #24]	; 83bc <undefined_instruction_vector+0x2c>
    83a0:	e58d3000 	str	r3, [sp]
    83a4:	e3a0302b 	mov	r3, #43, 0	; 0x2b
    83a8:	e59f2010 	ldr	r2, [pc, #16]	; 83c0 <undefined_instruction_vector+0x30>
    83ac:	e59f1010 	ldr	r1, [pc, #16]	; 83c4 <undefined_instruction_vector+0x34>
    83b0:	e59f0010 	ldr	r0, [pc, #16]	; 83c8 <undefined_instruction_vector+0x38>
    83b4:	eb00019d 	bl	8a30 <printk>
    83b8:	eb00025b 	bl	8d2c <clean_reboot>
    83bc:	000092f0 	strdeq	r9, [r0], -r0
    83c0:	00009368 	andeq	r9, r0, r8, ror #6
    83c4:	0000927c 	andeq	r9, r0, ip, ror r2
    83c8:	0000928c 	andeq	r9, r0, ip, lsl #5

000083cc <prefetch_abort_vector>:
    83cc:	e52de004 	push	{lr}		; (str lr, [sp, #-4]!)
    83d0:	e24dd00c 	sub	sp, sp, #12, 0
    83d4:	e58d0004 	str	r0, [sp, #4]
    83d8:	e59f3018 	ldr	r3, [pc, #24]	; 83f8 <prefetch_abort_vector+0x2c>
    83dc:	e58d3000 	str	r3, [sp]
    83e0:	e3a0302e 	mov	r3, #46, 0	; 0x2e
    83e4:	e59f2010 	ldr	r2, [pc, #16]	; 83fc <prefetch_abort_vector+0x30>
    83e8:	e59f1010 	ldr	r1, [pc, #16]	; 8400 <prefetch_abort_vector+0x34>
    83ec:	e59f0010 	ldr	r0, [pc, #16]	; 8404 <prefetch_abort_vector+0x38>
    83f0:	eb00018e 	bl	8a30 <printk>
    83f4:	eb00024c 	bl	8d2c <clean_reboot>
    83f8:	00009308 	andeq	r9, r0, r8, lsl #6
    83fc:	00009388 	andeq	r9, r0, r8, lsl #7
    8400:	0000927c 	andeq	r9, r0, ip, ror r2
    8404:	0000928c 	andeq	r9, r0, ip, lsl #5

00008408 <data_abort_vector>:
    8408:	e52de004 	push	{lr}		; (str lr, [sp, #-4]!)
    840c:	e24dd00c 	sub	sp, sp, #12, 0
    8410:	e58d0004 	str	r0, [sp, #4]
    8414:	e59f3018 	ldr	r3, [pc, #24]	; 8434 <data_abort_vector+0x2c>
    8418:	e58d3000 	str	r3, [sp]
    841c:	e3a03031 	mov	r3, #49, 0	; 0x31
    8420:	e59f2010 	ldr	r2, [pc, #16]	; 8438 <data_abort_vector+0x30>
    8424:	e59f1010 	ldr	r1, [pc, #16]	; 843c <data_abort_vector+0x34>
    8428:	e59f0010 	ldr	r0, [pc, #16]	; 8440 <data_abort_vector+0x38>
    842c:	eb00017f 	bl	8a30 <printk>
    8430:	eb00023d 	bl	8d2c <clean_reboot>
    8434:	00009318 	andeq	r9, r0, r8, lsl r3
    8438:	000093a0 	andeq	r9, r0, r0, lsr #7
    843c:	0000927c 	andeq	r9, r0, ip, ror r2
    8440:	0000928c 	andeq	r9, r0, ip, lsl #5

00008444 <timer_check_offsets>:
    8444:	e52de004 	push	{lr}		; (str lr, [sp, #-4]!)
    8448:	e24dd01c 	sub	sp, sp, #28, 0
    844c:	e59f0008 	ldr	r0, [pc, #8]	; 845c <timer_check_offsets+0x18>
    8450:	eb000176 	bl	8a30 <printk>
    8454:	e28dd01c 	add	sp, sp, #28, 0
    8458:	e49df004 	pop	{pc}		; (ldr pc, [sp], #4)
    845c:	000094a8 	andeq	r9, r0, r8, lsr #9

00008460 <timer_interrupt_init>:
    8460:	e92d4010 	push	{r4, lr}
    8464:	e1a04000 	mov	r4, r0
    8468:	ebfffff5 	bl	8444 <timer_check_offsets>
    846c:	e3a01001 	mov	r1, #1, 0
    8470:	e59f001c 	ldr	r0, [pc, #28]	; 8494 <timer_interrupt_init+0x34>
    8474:	ebfffeea 	bl	8024 <PUT32>
    8478:	e1a01004 	mov	r1, r4
    847c:	e59f0014 	ldr	r0, [pc, #20]	; 8498 <timer_interrupt_init+0x38>
    8480:	ebfffee7 	bl	8024 <PUT32>
    8484:	e3a010aa 	mov	r1, #170, 0	; 0xaa
    8488:	e59f000c 	ldr	r0, [pc, #12]	; 849c <timer_interrupt_init+0x3c>
    848c:	ebfffee4 	bl	8024 <PUT32>
    8490:	e8bd8010 	pop	{r4, pc}
    8494:	2000b218 	andcs	fp, r0, r8, lsl r2
    8498:	2000b400 	andcs	fp, r0, r0, lsl #8
    849c:	2000b408 	andcs	fp, r0, r8, lsl #8

000084a0 <system_enable_interrupts>:
    84a0:	e10f0000 	mrs	r0, CPSR
    84a4:	e3c00080 	bic	r0, r0, #128, 0	; 0x80
    84a8:	e121f000 	msr	CPSR_c, r0
    84ac:	e12fff1e 	bx	lr

000084b0 <system_disable_interrupts>:
    84b0:	e10f0000 	mrs	r0, CPSR
    84b4:	e3800080 	orr	r0, r0, #128, 0	; 0x80
    84b8:	e121f000 	msr	CPSR_c, r0
    84bc:	e12fff1e 	bx	lr

000084c0 <_interrupt_table>:
    84c0:	e59ff030 	ldr	pc, [pc, #48]	; 84f8 <_reset_asm>
    84c4:	e59ff030 	ldr	pc, [pc, #48]	; 84fc <_undefined_instruction_asm>
    84c8:	e59ff030 	ldr	pc, [pc, #48]	; 8500 <_software_interrupt_asm>
    84cc:	e59ff030 	ldr	pc, [pc, #48]	; 8504 <_prefetch_abort_asm>
    84d0:	e59ff030 	ldr	pc, [pc, #48]	; 8508 <_data_abort_asm>
    84d4:	e59ff01c 	ldr	pc, [pc, #28]	; 84f8 <_reset_asm>
    84d8:	e59ff02c 	ldr	pc, [pc, #44]	; 850c <_interrupt_asm>

000084dc <fast_interrupt_asm>:
    84dc:	e24ee004 	sub	lr, lr, #4, 0
    84e0:	e52de004 	push	{lr}		; (str lr, [sp, #-4]!)
    84e4:	e92d1fff 	push	{r0, r1, r2, r3, r4, r5, r6, r7, r8, r9, sl, fp, ip}
    84e8:	e1a0000e 	mov	r0, lr
    84ec:	ebffff7a 	bl	82dc <fast_interrupt_vector>
    84f0:	e8bd1fff 	pop	{r0, r1, r2, r3, r4, r5, r6, r7, r8, r9, sl, fp, ip}
    84f4:	e8fd8000 	ldm	sp!, {pc}^

000084f8 <_reset_asm>:
    84f8:	0000852c 	andeq	r8, r0, ip, lsr #10

000084fc <_undefined_instruction_asm>:
    84fc:	00008534 	andeq	r8, r0, r4, lsr r5

00008500 <_software_interrupt_asm>:
    8500:	0000853c 	andeq	r8, r0, ip, lsr r5

00008504 <_prefetch_abort_asm>:
    8504:	00008544 	andeq	r8, r0, r4, asr #10

00008508 <_data_abort_asm>:
    8508:	0000854c 	andeq	r8, r0, ip, asr #10

0000850c <_interrupt_asm>:
    850c:	00008510 	andeq	r8, r0, r0, lsl r5

00008510 <_interrupt_table_end>:
    8510:	e3a0d409 	mov	sp, #150994944	; 0x9000000
    8514:	e24ee004 	sub	lr, lr, #4, 0
    8518:	e92d5fff 	push	{r0, r1, r2, r3, r4, r5, r6, r7, r8, r9, sl, fp, ip, lr}
    851c:	e1a0000e 	mov	r0, lr
    8520:	ebffff03 	bl	8134 <interrupt_vector>
    8524:	e8bd5fff 	pop	{r0, r1, r2, r3, r4, r5, r6, r7, r8, r9, sl, fp, ip, lr}
    8528:	e1b0f00e 	movs	pc, lr

0000852c <reset_asm>:
    852c:	e24ee004 	sub	lr, lr, #4, 0
    8530:	ebffff87 	bl	8354 <reset_vector>

00008534 <undefined_instruction_asm>:
    8534:	e24ee004 	sub	lr, lr, #4, 0
    8538:	ebffff94 	bl	8390 <undefined_instruction_vector>

0000853c <software_interrupt_asm>:
    853c:	e24ee004 	sub	lr, lr, #4, 0
    8540:	ebffff74 	bl	8318 <software_interrupt_vector>

00008544 <prefetch_abort_asm>:
    8544:	e24ee004 	sub	lr, lr, #4, 0
    8548:	ebffff9f 	bl	83cc <prefetch_abort_vector>

0000854c <data_abort_asm>:
    854c:	e24ee004 	sub	lr, lr, #4, 0
    8550:	ebffffac 	bl	8408 <data_abort_vector>

00008554 <store_shadow_lr>:
    8554:	e8c04000 	stmia	r0, {lr}^
    8558:	e12fff1e 	bx	lr

0000855c <get_shadow_lr>:
    855c:	e10f1000 	mrs	r1, CPSR
    8560:	e321f013 	msr	CPSR_c, #19, 0
    8564:	e1a0000e 	mov	r0, lr
    8568:	e121f001 	msr	CPSR_c, r1
    856c:	e12fff1e 	bx	lr

00008570 <kmalloc_heap_end>:
    8570:	e59f3004 	ldr	r3, [pc, #4]	; 857c <kmalloc_heap_end+0xc>
    8574:	e5930000 	ldr	r0, [r3]
    8578:	e12fff1e 	bx	lr
    857c:	000097d8 	ldrdeq	r9, [r0], -r8

00008580 <kmalloc_heap_start>:
    8580:	e59f3004 	ldr	r3, [pc, #4]	; 858c <kmalloc_heap_start+0xc>
    8584:	e5930004 	ldr	r0, [r3, #4]
    8588:	e12fff1e 	bx	lr
    858c:	000097d8 	ldrdeq	r9, [r0], -r8

00008590 <kmalloc_heap_ptr>:
    8590:	e59f3004 	ldr	r3, [pc, #4]	; 859c <kmalloc_heap_ptr+0xc>
    8594:	e5930000 	ldr	r0, [r3]
    8598:	e12fff1e 	bx	lr
    859c:	000097d8 	ldrdeq	r9, [r0], -r8

000085a0 <kmalloc_init_set_start>:
    85a0:	e52de004 	push	{lr}		; (str lr, [sp, #-4]!)
    85a4:	e24dd00c 	sub	sp, sp, #12, 0
    85a8:	e59f30a8 	ldr	r3, [pc, #168]	; 8658 <kmalloc_init_set_start+0xb8>
    85ac:	e5933000 	ldr	r3, [r3]
    85b0:	e3530000 	cmp	r3, #0, 0
    85b4:	1a00000f 	bne	85f8 <kmalloc_init_set_start+0x58>
    85b8:	e59f3098 	ldr	r3, [pc, #152]	; 8658 <kmalloc_init_set_start+0xb8>
    85bc:	e3a02001 	mov	r2, #1, 0
    85c0:	e5832000 	str	r2, [r3]
    85c4:	e3510000 	cmp	r1, #0, 0
    85c8:	0a000010 	beq	8610 <kmalloc_init_set_start+0x70>
    85cc:	e59f3088 	ldr	r3, [pc, #136]	; 865c <kmalloc_init_set_start+0xbc>
    85d0:	e5933000 	ldr	r3, [r3]
    85d4:	e1530000 	cmp	r3, r0
    85d8:	8a000014 	bhi	8630 <kmalloc_init_set_start+0x90>
    85dc:	e59f3078 	ldr	r3, [pc, #120]	; 865c <kmalloc_init_set_start+0xbc>
    85e0:	e5830000 	str	r0, [r3]
    85e4:	e5830004 	str	r0, [r3, #4]
    85e8:	e0800001 	add	r0, r0, r1
    85ec:	e5830008 	str	r0, [r3, #8]
    85f0:	e28dd00c 	add	sp, sp, #12, 0
    85f4:	e49df004 	pop	{pc}		; (ldr pc, [sp], #4)
    85f8:	e3a03031 	mov	r3, #49, 0	; 0x31
    85fc:	e59f205c 	ldr	r2, [pc, #92]	; 8660 <kmalloc_init_set_start+0xc0>
    8600:	e59f105c 	ldr	r1, [pc, #92]	; 8664 <kmalloc_init_set_start+0xc4>
    8604:	e59f005c 	ldr	r0, [pc, #92]	; 8668 <kmalloc_init_set_start+0xc8>
    8608:	eb000108 	bl	8a30 <printk>
    860c:	eb0001c6 	bl	8d2c <clean_reboot>
    8610:	e59f3054 	ldr	r3, [pc, #84]	; 866c <kmalloc_init_set_start+0xcc>
    8614:	e58d3000 	str	r3, [sp]
    8618:	e3a03036 	mov	r3, #54, 0	; 0x36
    861c:	e59f203c 	ldr	r2, [pc, #60]	; 8660 <kmalloc_init_set_start+0xc0>
    8620:	e59f103c 	ldr	r1, [pc, #60]	; 8664 <kmalloc_init_set_start+0xc4>
    8624:	e59f0044 	ldr	r0, [pc, #68]	; 8670 <kmalloc_init_set_start+0xd0>
    8628:	eb000100 	bl	8a30 <printk>
    862c:	eb0001be 	bl	8d2c <clean_reboot>
    8630:	e59f3024 	ldr	r3, [pc, #36]	; 865c <kmalloc_init_set_start+0xbc>
    8634:	e5933008 	ldr	r3, [r3, #8]
    8638:	e58d3004 	str	r3, [sp, #4]
    863c:	e58d0000 	str	r0, [sp]
    8640:	e3a0303a 	mov	r3, #58, 0	; 0x3a
    8644:	e59f2014 	ldr	r2, [pc, #20]	; 8660 <kmalloc_init_set_start+0xc0>
    8648:	e59f1014 	ldr	r1, [pc, #20]	; 8664 <kmalloc_init_set_start+0xc4>
    864c:	e59f0020 	ldr	r0, [pc, #32]	; 8674 <kmalloc_init_set_start+0xd4>
    8650:	eb0000f6 	bl	8a30 <printk>
    8654:	eb0001b4 	bl	8d2c <clean_reboot>
    8658:	000097f8 	strdeq	r9, [r0], -r8
    865c:	000097d8 	ldrdeq	r9, [r0], -r8
    8660:	000096bc 			; <UNDEFINED> instruction: 0x000096bc
    8664:	000094d4 	ldrdeq	r9, [r0], -r4
    8668:	000094e0 	andeq	r9, r0, r0, ror #9
    866c:	0000953c 	andeq	r9, r0, ip, lsr r5
    8670:	00009514 	andeq	r9, r0, r4, lsl r5
    8674:	00009548 	andeq	r9, r0, r8, asr #10

00008678 <kmalloc_init>:
    8678:	e92d4010 	push	{r4, lr}
    867c:	e59f303c 	ldr	r3, [pc, #60]	; 86c0 <kmalloc_init+0x48>
    8680:	e5933004 	ldr	r3, [r3, #4]
    8684:	e3530000 	cmp	r3, #0, 0
    8688:	1a000006 	bne	86a8 <kmalloc_init+0x30>
    868c:	e59f302c 	ldr	r3, [pc, #44]	; 86c0 <kmalloc_init+0x48>
    8690:	e3a02001 	mov	r2, #1, 0
    8694:	e5832004 	str	r2, [r3, #4]
    8698:	e3a01302 	mov	r1, #134217728	; 0x8000000
    869c:	e3a00601 	mov	r0, #1048576	; 0x100000
    86a0:	ebffffbe 	bl	85a0 <kmalloc_init_set_start>
    86a4:	e8bd8010 	pop	{r4, pc}
    86a8:	e3a03046 	mov	r3, #70, 0	; 0x46
    86ac:	e59f2010 	ldr	r2, [pc, #16]	; 86c4 <kmalloc_init+0x4c>
    86b0:	e59f1010 	ldr	r1, [pc, #16]	; 86c8 <kmalloc_init+0x50>
    86b4:	e59f0010 	ldr	r0, [pc, #16]	; 86cc <kmalloc_init+0x54>
    86b8:	eb0000dc 	bl	8a30 <printk>
    86bc:	eb00019a 	bl	8d2c <clean_reboot>
    86c0:	000097f8 	strdeq	r9, [r0], -r8
    86c4:	000096d4 	ldrdeq	r9, [r0], -r4
    86c8:	000094d4 	ldrdeq	r9, [r0], -r4
    86cc:	0000958c 	andeq	r9, r0, ip, lsl #11

000086d0 <kmalloc_notzero>:
    86d0:	e52de004 	push	{lr}		; (str lr, [sp, #-4]!)
    86d4:	e24dd00c 	sub	sp, sp, #12, 0
    86d8:	e3500000 	cmp	r0, #0, 0
    86dc:	0a00000a 	beq	870c <kmalloc_notzero+0x3c>
    86e0:	e2800007 	add	r0, r0, #7, 0
    86e4:	e3c03007 	bic	r3, r0, #7, 0
    86e8:	e59f2060 	ldr	r2, [pc, #96]	; 8750 <kmalloc_notzero+0x80>
    86ec:	e5920000 	ldr	r0, [r2]
    86f0:	e0801003 	add	r1, r0, r3
    86f4:	e5821000 	str	r1, [r2]
    86f8:	e5922008 	ldr	r2, [r2, #8]
    86fc:	e1510002 	cmp	r1, r2
    8700:	8a000009 	bhi	872c <kmalloc_notzero+0x5c>
    8704:	e28dd00c 	add	sp, sp, #12, 0
    8708:	e49df004 	pop	{pc}		; (ldr pc, [sp], #4)
    870c:	e59f3040 	ldr	r3, [pc, #64]	; 8754 <kmalloc_notzero+0x84>
    8710:	e58d3000 	str	r3, [sp]
    8714:	e3a03051 	mov	r3, #81, 0	; 0x51
    8718:	e59f2038 	ldr	r2, [pc, #56]	; 8758 <kmalloc_notzero+0x88>
    871c:	e59f1038 	ldr	r1, [pc, #56]	; 875c <kmalloc_notzero+0x8c>
    8720:	e59f0038 	ldr	r0, [pc, #56]	; 8760 <kmalloc_notzero+0x90>
    8724:	eb0000c1 	bl	8a30 <printk>
    8728:	eb00017f 	bl	8d2c <clean_reboot>
    872c:	e0411002 	sub	r1, r1, r2
    8730:	e58d1004 	str	r1, [sp, #4]
    8734:	e58d3000 	str	r3, [sp]
    8738:	e3a03057 	mov	r3, #87, 0	; 0x57
    873c:	e59f2014 	ldr	r2, [pc, #20]	; 8758 <kmalloc_notzero+0x88>
    8740:	e59f1014 	ldr	r1, [pc, #20]	; 875c <kmalloc_notzero+0x8c>
    8744:	e59f0018 	ldr	r0, [pc, #24]	; 8764 <kmalloc_notzero+0x94>
    8748:	eb0000b8 	bl	8a30 <printk>
    874c:	eb000176 	bl	8d2c <clean_reboot>
    8750:	000097d8 	ldrdeq	r9, [r0], -r8
    8754:	00009540 	andeq	r9, r0, r0, asr #10
    8758:	000096e4 	andeq	r9, r0, r4, ror #13
    875c:	000094d4 	ldrdeq	r9, [r0], -r4
    8760:	00009514 	andeq	r9, r0, r4, lsl r5
    8764:	000095bc 			; <UNDEFINED> instruction: 0x000095bc

00008768 <kmalloc>:
    8768:	e92d4030 	push	{r4, r5, lr}
    876c:	e24dd00c 	sub	sp, sp, #12, 0
    8770:	e2504000 	subs	r4, r0, #0, 0
    8774:	0a000008 	beq	879c <kmalloc+0x34>
    8778:	e1a00004 	mov	r0, r4
    877c:	ebffffd3 	bl	86d0 <kmalloc_notzero>
    8780:	e1a05000 	mov	r5, r0
    8784:	e1a02004 	mov	r2, r4
    8788:	e3a01000 	mov	r1, #0, 0
    878c:	eb000074 	bl	8964 <memset>
    8790:	e1a00005 	mov	r0, r5
    8794:	e28dd00c 	add	sp, sp, #12, 0
    8798:	e8bd8030 	pop	{r4, r5, pc}
    879c:	e59f3018 	ldr	r3, [pc, #24]	; 87bc <kmalloc+0x54>
    87a0:	e58d3000 	str	r3, [sp]
    87a4:	e3a0305e 	mov	r3, #94, 0	; 0x5e
    87a8:	e59f2010 	ldr	r2, [pc, #16]	; 87c0 <kmalloc+0x58>
    87ac:	e59f1010 	ldr	r1, [pc, #16]	; 87c4 <kmalloc+0x5c>
    87b0:	e59f0010 	ldr	r0, [pc, #16]	; 87c8 <kmalloc+0x60>
    87b4:	eb00009d 	bl	8a30 <printk>
    87b8:	eb00015b 	bl	8d2c <clean_reboot>
    87bc:	00009540 	andeq	r9, r0, r0, asr #10
    87c0:	000096f4 	strdeq	r9, [r0], -r4
    87c4:	000094d4 	ldrdeq	r9, [r0], -r4
    87c8:	00009514 	andeq	r9, r0, r4, lsl r5

000087cc <kmalloc_aligned>:
    87cc:	e52de004 	push	{lr}		; (str lr, [sp, #-4]!)
    87d0:	e24dd00c 	sub	sp, sp, #12, 0
    87d4:	e3500000 	cmp	r0, #0, 0
    87d8:	0a000014 	beq	8830 <kmalloc_aligned+0x64>
    87dc:	e2613000 	rsb	r3, r1, #0, 0
    87e0:	e1d13003 	bics	r3, r1, r3
    87e4:	1a000019 	bne	8850 <kmalloc_aligned+0x84>
    87e8:	e3510008 	cmp	r1, #8, 0
    87ec:	33a01008 	movcc	r1, #8, 0
    87f0:	e59f30c8 	ldr	r3, [pc, #200]	; 88c0 <kmalloc_aligned+0xf4>
    87f4:	e5932000 	ldr	r2, [r3]
    87f8:	e2613000 	rsb	r3, r1, #0, 0
    87fc:	e1d1c003 	bics	ip, r1, r3
    8800:	1a00001c 	bne	8878 <kmalloc_aligned+0xac>
    8804:	e0822001 	add	r2, r2, r1
    8808:	e2422001 	sub	r2, r2, #1, 0
    880c:	e0033002 	and	r3, r3, r2
    8810:	e2411001 	sub	r1, r1, #1, 0
    8814:	e1110003 	tst	r1, r3
    8818:	1a00001e 	bne	8898 <kmalloc_aligned+0xcc>
    881c:	e59f209c 	ldr	r2, [pc, #156]	; 88c0 <kmalloc_aligned+0xf4>
    8820:	e5823000 	str	r3, [r2]
    8824:	ebffffcf 	bl	8768 <kmalloc>
    8828:	e28dd00c 	add	sp, sp, #12, 0
    882c:	e49df004 	pop	{pc}		; (ldr pc, [sp], #4)
    8830:	e59f308c 	ldr	r3, [pc, #140]	; 88c4 <kmalloc_aligned+0xf8>
    8834:	e58d3000 	str	r3, [sp]
    8838:	e3a03069 	mov	r3, #105, 0	; 0x69
    883c:	e59f2084 	ldr	r2, [pc, #132]	; 88c8 <kmalloc_aligned+0xfc>
    8840:	e59f1084 	ldr	r1, [pc, #132]	; 88cc <kmalloc_aligned+0x100>
    8844:	e59f0084 	ldr	r0, [pc, #132]	; 88d0 <kmalloc_aligned+0x104>
    8848:	eb000078 	bl	8a30 <printk>
    884c:	eb000136 	bl	8d2c <clean_reboot>
    8850:	e59f307c 	ldr	r3, [pc, #124]	; 88d4 <kmalloc_aligned+0x108>
    8854:	e58d3004 	str	r3, [sp, #4]
    8858:	e59f3078 	ldr	r3, [pc, #120]	; 88d8 <kmalloc_aligned+0x10c>
    885c:	e58d3000 	str	r3, [sp]
    8860:	e3a0306a 	mov	r3, #106, 0	; 0x6a
    8864:	e59f205c 	ldr	r2, [pc, #92]	; 88c8 <kmalloc_aligned+0xfc>
    8868:	e59f105c 	ldr	r1, [pc, #92]	; 88cc <kmalloc_aligned+0x100>
    886c:	e59f0068 	ldr	r0, [pc, #104]	; 88dc <kmalloc_aligned+0x110>
    8870:	eb00006e 	bl	8a30 <printk>
    8874:	eb00012c 	bl	8d2c <clean_reboot>
    8878:	e59f3060 	ldr	r3, [pc, #96]	; 88e0 <kmalloc_aligned+0x114>
    887c:	e58d3000 	str	r3, [sp]
    8880:	e3a03011 	mov	r3, #17, 0
    8884:	e59f2058 	ldr	r2, [pc, #88]	; 88e4 <kmalloc_aligned+0x118>
    8888:	e59f103c 	ldr	r1, [pc, #60]	; 88cc <kmalloc_aligned+0x100>
    888c:	e59f003c 	ldr	r0, [pc, #60]	; 88d0 <kmalloc_aligned+0x104>
    8890:	eb000066 	bl	8a30 <printk>
    8894:	eb000124 	bl	8d2c <clean_reboot>
    8898:	e59f3048 	ldr	r3, [pc, #72]	; 88e8 <kmalloc_aligned+0x11c>
    889c:	e58d3004 	str	r3, [sp, #4]
    88a0:	e59f3044 	ldr	r3, [pc, #68]	; 88ec <kmalloc_aligned+0x120>
    88a4:	e58d3000 	str	r3, [sp]
    88a8:	e3a03072 	mov	r3, #114, 0	; 0x72
    88ac:	e59f2014 	ldr	r2, [pc, #20]	; 88c8 <kmalloc_aligned+0xfc>
    88b0:	e59f1014 	ldr	r1, [pc, #20]	; 88cc <kmalloc_aligned+0x100>
    88b4:	e59f0020 	ldr	r0, [pc, #32]	; 88dc <kmalloc_aligned+0x110>
    88b8:	eb00005c 	bl	8a30 <printk>
    88bc:	eb00011a 	bl	8d2c <clean_reboot>
    88c0:	000097d8 	ldrdeq	r9, [r0], -r8
    88c4:	00009540 	andeq	r9, r0, r0, asr #10
    88c8:	000096fc 	strdeq	r9, [r0], -ip
    88cc:	000094d4 	ldrdeq	r9, [r0], -r4
    88d0:	00009514 	andeq	r9, r0, r4, lsl r5
    88d4:	0000962c 	andeq	r9, r0, ip, lsr #12
    88d8:	00009644 	andeq	r9, r0, r4, asr #12
    88dc:	00009604 	andeq	r9, r0, r4, lsl #12
    88e0:	00009658 	andeq	r9, r0, r8, asr r6
    88e4:	0000970c 	andeq	r9, r0, ip, lsl #14
    88e8:	00009664 	andeq	r9, r0, r4, ror #12
    88ec:	00009670 	andeq	r9, r0, r0, ror r6

000088f0 <kfree_all>:
    88f0:	e59f3008 	ldr	r3, [pc, #8]	; 8900 <kfree_all+0x10>
    88f4:	e5932004 	ldr	r2, [r3, #4]
    88f8:	e5832000 	str	r2, [r3]
    88fc:	e12fff1e 	bx	lr
    8900:	000097d8 	ldrdeq	r9, [r0], -r8

00008904 <kfree_pop>:
    8904:	e59f3048 	ldr	r3, [pc, #72]	; 8954 <kfree_pop+0x50>
    8908:	e5933004 	ldr	r3, [r3, #4]
    890c:	e1530000 	cmp	r3, r0
    8910:	8a000006 	bhi	8930 <kfree_pop+0x2c>
    8914:	e59f3038 	ldr	r3, [pc, #56]	; 8954 <kfree_pop+0x50>
    8918:	e5933008 	ldr	r3, [r3, #8]
    891c:	e1530000 	cmp	r3, r0
    8920:	3a000002 	bcc	8930 <kfree_pop+0x2c>
    8924:	e59f3028 	ldr	r3, [pc, #40]	; 8954 <kfree_pop+0x50>
    8928:	e5830000 	str	r0, [r3]
    892c:	e12fff1e 	bx	lr
    8930:	e52de004 	push	{lr}		; (str lr, [sp, #-4]!)
    8934:	e24dd00c 	sub	sp, sp, #12, 0
    8938:	e58d0000 	str	r0, [sp]
    893c:	e3a03081 	mov	r3, #129, 0	; 0x81
    8940:	e59f2010 	ldr	r2, [pc, #16]	; 8958 <kfree_pop+0x54>
    8944:	e59f1010 	ldr	r1, [pc, #16]	; 895c <kfree_pop+0x58>
    8948:	e59f0010 	ldr	r0, [pc, #16]	; 8960 <kfree_pop+0x5c>
    894c:	eb000037 	bl	8a30 <printk>
    8950:	eb0000f5 	bl	8d2c <clean_reboot>
    8954:	000097d8 	ldrdeq	r9, [r0], -r8
    8958:	00009714 	andeq	r9, r0, r4, lsl r7
    895c:	000094d4 	ldrdeq	r9, [r0], -r4
    8960:	0000968c 	andeq	r9, r0, ip, lsl #13

00008964 <memset>:
    8964:	e92d4030 	push	{r4, r5, lr}
    8968:	e24dd00c 	sub	sp, sp, #12, 0
    896c:	e3520000 	cmp	r2, #0, 0
    8970:	0a00000b 	beq	89a4 <memset+0x40>
    8974:	e3510000 	cmp	r1, #0, 0
    8978:	1a000007 	bne	899c <memset+0x38>
    897c:	e3100007 	tst	r0, #7, 0
    8980:	1a000001 	bne	898c <memset+0x28>
    8984:	e3120007 	tst	r2, #7, 0
    8988:	0a00000d 	beq	89c4 <memset+0x60>
    898c:	e3100003 	tst	r0, #3, 0
    8990:	1a000001 	bne	899c <memset+0x38>
    8994:	e3120003 	tst	r2, #3, 0
    8998:	0a000013 	beq	89ec <memset+0x88>
    899c:	e0802002 	add	r2, r0, r2
    89a0:	ea00001a 	b	8a10 <memset+0xac>
    89a4:	e59f3074 	ldr	r3, [pc, #116]	; 8a20 <memset+0xbc>
    89a8:	e58d3000 	str	r3, [sp]
    89ac:	e3a03008 	mov	r3, #8, 0
    89b0:	e59f206c 	ldr	r2, [pc, #108]	; 8a24 <memset+0xc0>
    89b4:	e59f106c 	ldr	r1, [pc, #108]	; 8a28 <memset+0xc4>
    89b8:	e59f006c 	ldr	r0, [pc, #108]	; 8a2c <memset+0xc8>
    89bc:	eb00001b 	bl	8a30 <printk>
    89c0:	eb0000d9 	bl	8d2c <clean_reboot>
    89c4:	e1a021a2 	lsr	r2, r2, #3
    89c8:	ea000003 	b	89dc <memset+0x78>
    89cc:	e1a04001 	mov	r4, r1
    89d0:	e1a05fc1 	asr	r5, r1, #31
    89d4:	e0c040f8 	strd	r4, [r0], #8
    89d8:	e1a02003 	mov	r2, r3
    89dc:	e2423001 	sub	r3, r2, #1, 0
    89e0:	e3520000 	cmp	r2, #0, 0
    89e4:	1afffff8 	bne	89cc <memset+0x68>
    89e8:	ea00000a 	b	8a18 <memset+0xb4>
    89ec:	e1a02122 	lsr	r2, r2, #2
    89f0:	ea000001 	b	89fc <memset+0x98>
    89f4:	e4801004 	str	r1, [r0], #4
    89f8:	e1a02003 	mov	r2, r3
    89fc:	e2423001 	sub	r3, r2, #1, 0
    8a00:	e3520000 	cmp	r2, #0, 0
    8a04:	1afffffa 	bne	89f4 <memset+0x90>
    8a08:	ea000002 	b	8a18 <memset+0xb4>
    8a0c:	e4c01001 	strb	r1, [r0], #1
    8a10:	e1500002 	cmp	r0, r2
    8a14:	3afffffc 	bcc	8a0c <memset+0xa8>
    8a18:	e28dd00c 	add	sp, sp, #12, 0
    8a1c:	e8bd8030 	pop	{r4, r5, pc}
    8a20:	00009304 	andeq	r9, r0, r4, lsl #6
    8a24:	00009730 	andeq	r9, r0, r0, lsr r7
    8a28:	00009720 	andeq	r9, r0, r0, lsr #14
    8a2c:	00009514 	andeq	r9, r0, r4, lsl r5

00008a30 <printk>:
    8a30:	e92d000f 	push	{r0, r1, r2, r3}
    8a34:	e52de004 	push	{lr}		; (str lr, [sp, #-4]!)
    8a38:	e24dd00c 	sub	sp, sp, #12, 0
    8a3c:	e28d1014 	add	r1, sp, #20, 0
    8a40:	e58d1004 	str	r1, [sp, #4]
    8a44:	e59d0010 	ldr	r0, [sp, #16]
    8a48:	eb000044 	bl	8b60 <vprintk>
    8a4c:	e28dd00c 	add	sp, sp, #12, 0
    8a50:	e49de004 	pop	{lr}		; (ldr lr, [sp], #4)
    8a54:	e28dd010 	add	sp, sp, #16, 0
    8a58:	e12fff1e 	bx	lr

00008a5c <emit_val>:
    8a5c:	e92d4010 	push	{r4, lr}
    8a60:	e24dd030 	sub	sp, sp, #48, 0	; 0x30
    8a64:	e350000a 	cmp	r0, #10, 0
    8a68:	0a000014 	beq	8ac0 <emit_val+0x64>
    8a6c:	e3500010 	cmp	r0, #16, 0
    8a70:	0a000022 	beq	8b00 <emit_val+0xa4>
    8a74:	e3500002 	cmp	r0, #2, 0
    8a78:	0a000006 	beq	8a98 <emit_val+0x3c>
    8a7c:	e58d0000 	str	r0, [sp]
    8a80:	e3a03019 	mov	r3, #25, 0
    8a84:	e59f20b8 	ldr	r2, [pc, #184]	; 8b44 <emit_val+0xe8>
    8a88:	e59f10b8 	ldr	r1, [pc, #184]	; 8b48 <emit_val+0xec>
    8a8c:	e59f00b8 	ldr	r0, [pc, #184]	; 8b4c <emit_val+0xf0>
    8a90:	ebffffe6 	bl	8a30 <printk>
    8a94:	eb0000a4 	bl	8d2c <clean_reboot>
    8a98:	e28d400c 	add	r4, sp, #12, 0
    8a9c:	e2012001 	and	r2, r1, #1, 0
    8aa0:	e59f00a8 	ldr	r0, [pc, #168]	; 8b50 <emit_val+0xf4>
    8aa4:	e7d02002 	ldrb	r2, [r0, r2]
    8aa8:	e5c42000 	strb	r2, [r4]
    8aac:	e2844001 	add	r4, r4, #1, 0
    8ab0:	e3510001 	cmp	r1, #1, 0
    8ab4:	e1a010a1 	lsr	r1, r1, #1
    8ab8:	8afffff7 	bhi	8a9c <emit_val+0x40>
    8abc:	ea00001b 	b	8b30 <emit_val+0xd4>
    8ac0:	e28d400c 	add	r4, sp, #12, 0
    8ac4:	e59f3088 	ldr	r3, [pc, #136]	; 8b54 <emit_val+0xf8>
    8ac8:	e0832193 	umull	r2, r3, r3, r1
    8acc:	e1a031a3 	lsr	r3, r3, #3
    8ad0:	e1a00003 	mov	r0, r3
    8ad4:	e0833103 	add	r3, r3, r3, lsl #2
    8ad8:	e0413083 	sub	r3, r1, r3, lsl #1
    8adc:	e59fc074 	ldr	ip, [pc, #116]	; 8b58 <emit_val+0xfc>
    8ae0:	e7dcc003 	ldrb	ip, [ip, r3]
    8ae4:	e5c4c000 	strb	ip, [r4]
    8ae8:	e2844001 	add	r4, r4, #1, 0
    8aec:	e1a03001 	mov	r3, r1
    8af0:	e1a01000 	mov	r1, r0
    8af4:	e3530009 	cmp	r3, #9, 0
    8af8:	8afffff1 	bhi	8ac4 <emit_val+0x68>
    8afc:	ea00000b 	b	8b30 <emit_val+0xd4>
    8b00:	e28d400c 	add	r4, sp, #12, 0
    8b04:	e201200f 	and	r2, r1, #15, 0
    8b08:	e59f004c 	ldr	r0, [pc, #76]	; 8b5c <emit_val+0x100>
    8b0c:	e7d02002 	ldrb	r2, [r0, r2]
    8b10:	e5c42000 	strb	r2, [r4]
    8b14:	e2844001 	add	r4, r4, #1, 0
    8b18:	e351000f 	cmp	r1, #15, 0
    8b1c:	e1a01221 	lsr	r1, r1, #4
    8b20:	8afffff7 	bhi	8b04 <emit_val+0xa8>
    8b24:	ea000001 	b	8b30 <emit_val+0xd4>
    8b28:	e5740001 	ldrb	r0, [r4, #-1]!
    8b2c:	eb000079 	bl	8d18 <rpi_putchar>
    8b30:	e28d300c 	add	r3, sp, #12, 0
    8b34:	e1540003 	cmp	r4, r3
    8b38:	8afffffa 	bhi	8b28 <emit_val+0xcc>
    8b3c:	e28dd030 	add	sp, sp, #48, 0	; 0x30
    8b40:	e8bd8010 	pop	{r4, pc}
    8b44:	000097b8 			; <UNDEFINED> instruction: 0x000097b8
    8b48:	00009738 	andeq	r9, r0, r8, lsr r7
    8b4c:	00009748 	andeq	r9, r0, r8, asr #14
    8b50:	0000976c 	andeq	r9, r0, ip, ror #14
    8b54:	cccccccd 	stclgt	12, cr12, [ip], {205}	; 0xcd
    8b58:	00009770 	andeq	r9, r0, r0, ror r7
    8b5c:	0000977c 	andeq	r9, r0, ip, ror r7

00008b60 <vprintk>:
    8b60:	e92d4030 	push	{r4, r5, lr}
    8b64:	e24dd014 	sub	sp, sp, #20, 0
    8b68:	e1a04000 	mov	r4, r0
    8b6c:	e58d100c 	str	r1, [sp, #12]
    8b70:	ea000002 	b	8b80 <vprintk+0x20>
    8b74:	eb000067 	bl	8d18 <rpi_putchar>
    8b78:	e1a05004 	mov	r5, r4
    8b7c:	e2854001 	add	r4, r5, #1, 0
    8b80:	e5d40000 	ldrb	r0, [r4]
    8b84:	e3500000 	cmp	r0, #0, 0
    8b88:	0a00005d 	beq	8d04 <vprintk+0x1a4>
    8b8c:	e3500025 	cmp	r0, #37, 0	; 0x25
    8b90:	1afffff7 	bne	8b74 <vprintk+0x14>
    8b94:	e2845001 	add	r5, r4, #1, 0
    8b98:	e5d42001 	ldrb	r2, [r4, #1]
    8b9c:	e2423062 	sub	r3, r2, #98, 0	; 0x62
    8ba0:	e3530016 	cmp	r3, #22, 0
    8ba4:	979ff103 	ldrls	pc, [pc, r3, lsl #2]
    8ba8:	ea00004e 	b	8ce8 <vprintk+0x188>
    8bac:	00008c08 	andeq	r8, r0, r8, lsl #24
    8bb0:	00008c40 	andeq	r8, r0, r0, asr #24
    8bb4:	00008c84 	andeq	r8, r0, r4, lsl #25
    8bb8:	00008ce8 	andeq	r8, r0, r8, ror #25
    8bbc:	00008ce8 	andeq	r8, r0, r8, ror #25
    8bc0:	00008ce8 	andeq	r8, r0, r8, ror #25
    8bc4:	00008ce8 	andeq	r8, r0, r8, ror #25
    8bc8:	00008ce8 	andeq	r8, r0, r8, ror #25
    8bcc:	00008ce8 	andeq	r8, r0, r8, ror #25
    8bd0:	00008ce8 	andeq	r8, r0, r8, ror #25
    8bd4:	00008ce8 	andeq	r8, r0, r8, ror #25
    8bd8:	00008ce8 	andeq	r8, r0, r8, ror #25
    8bdc:	00008ce8 	andeq	r8, r0, r8, ror #25
    8be0:	00008ce8 	andeq	r8, r0, r8, ror #25
    8be4:	00008c58 	andeq	r8, r0, r8, asr ip
    8be8:	00008ce8 	andeq	r8, r0, r8, ror #25
    8bec:	00008ce8 	andeq	r8, r0, r8, ror #25
    8bf0:	00008cbc 			; <UNDEFINED> instruction: 0x00008cbc
    8bf4:	00008ce8 	andeq	r8, r0, r8, ror #25
    8bf8:	00008c24 	andeq	r8, r0, r4, lsr #24
    8bfc:	00008ce8 	andeq	r8, r0, r8, ror #25
    8c00:	00008ce8 	andeq	r8, r0, r8, ror #25
    8c04:	00008c58 	andeq	r8, r0, r8, asr ip
    8c08:	e59d300c 	ldr	r3, [sp, #12]
    8c0c:	e2832004 	add	r2, r3, #4, 0
    8c10:	e58d200c 	str	r2, [sp, #12]
    8c14:	e5931000 	ldr	r1, [r3]
    8c18:	e3a00002 	mov	r0, #2, 0
    8c1c:	ebffff8e 	bl	8a5c <emit_val>
    8c20:	eaffffd5 	b	8b7c <vprintk+0x1c>
    8c24:	e59d300c 	ldr	r3, [sp, #12]
    8c28:	e2832004 	add	r2, r3, #4, 0
    8c2c:	e58d200c 	str	r2, [sp, #12]
    8c30:	e5931000 	ldr	r1, [r3]
    8c34:	e3a0000a 	mov	r0, #10, 0
    8c38:	ebffff87 	bl	8a5c <emit_val>
    8c3c:	eaffffce 	b	8b7c <vprintk+0x1c>
    8c40:	e59d300c 	ldr	r3, [sp, #12]
    8c44:	e2832004 	add	r2, r3, #4, 0
    8c48:	e58d200c 	str	r2, [sp, #12]
    8c4c:	e5930000 	ldr	r0, [r3]
    8c50:	eb000030 	bl	8d18 <rpi_putchar>
    8c54:	eaffffc8 	b	8b7c <vprintk+0x1c>
    8c58:	e3a00030 	mov	r0, #48, 0	; 0x30
    8c5c:	eb00002d 	bl	8d18 <rpi_putchar>
    8c60:	e3a00078 	mov	r0, #120, 0	; 0x78
    8c64:	eb00002b 	bl	8d18 <rpi_putchar>
    8c68:	e59d300c 	ldr	r3, [sp, #12]
    8c6c:	e2832004 	add	r2, r3, #4, 0
    8c70:	e58d200c 	str	r2, [sp, #12]
    8c74:	e5931000 	ldr	r1, [r3]
    8c78:	e3a00010 	mov	r0, #16, 0
    8c7c:	ebffff76 	bl	8a5c <emit_val>
    8c80:	eaffffbd 	b	8b7c <vprintk+0x1c>
    8c84:	e59d300c 	ldr	r3, [sp, #12]
    8c88:	e2832004 	add	r2, r3, #4, 0
    8c8c:	e58d200c 	str	r2, [sp, #12]
    8c90:	e5934000 	ldr	r4, [r3]
    8c94:	e3540000 	cmp	r4, #0, 0
    8c98:	ba000003 	blt	8cac <vprintk+0x14c>
    8c9c:	e1a01004 	mov	r1, r4
    8ca0:	e3a0000a 	mov	r0, #10, 0
    8ca4:	ebffff6c 	bl	8a5c <emit_val>
    8ca8:	eaffffb3 	b	8b7c <vprintk+0x1c>
    8cac:	e3a0002d 	mov	r0, #45, 0	; 0x2d
    8cb0:	eb000018 	bl	8d18 <rpi_putchar>
    8cb4:	e2644000 	rsb	r4, r4, #0, 0
    8cb8:	eafffff7 	b	8c9c <vprintk+0x13c>
    8cbc:	e59d300c 	ldr	r3, [sp, #12]
    8cc0:	e2832004 	add	r2, r3, #4, 0
    8cc4:	e58d200c 	str	r2, [sp, #12]
    8cc8:	e5934000 	ldr	r4, [r3]
    8ccc:	ea000001 	b	8cd8 <vprintk+0x178>
    8cd0:	eb000010 	bl	8d18 <rpi_putchar>
    8cd4:	e2844001 	add	r4, r4, #1, 0
    8cd8:	e5d40000 	ldrb	r0, [r4]
    8cdc:	e3500000 	cmp	r0, #0, 0
    8ce0:	1afffffa 	bne	8cd0 <vprintk+0x170>
    8ce4:	eaffffa4 	b	8b7c <vprintk+0x1c>
    8ce8:	e58d2000 	str	r2, [sp]
    8cec:	e3a03049 	mov	r3, #73, 0	; 0x49
    8cf0:	e59f2014 	ldr	r2, [pc, #20]	; 8d0c <vprintk+0x1ac>
    8cf4:	e59f1014 	ldr	r1, [pc, #20]	; 8d10 <vprintk+0x1b0>
    8cf8:	e59f0014 	ldr	r0, [pc, #20]	; 8d14 <vprintk+0x1b4>
    8cfc:	ebffff4b 	bl	8a30 <printk>
    8d00:	eb000009 	bl	8d2c <clean_reboot>
    8d04:	e28dd014 	add	sp, sp, #20, 0
    8d08:	e8bd8030 	pop	{r4, r5, pc}
    8d0c:	000097c4 	andeq	r9, r0, r4, asr #15
    8d10:	00009738 	andeq	r9, r0, r8, lsr r7
    8d14:	00009790 	muleq	r0, r0, r7

00008d18 <rpi_putchar>:
    8d18:	e92d4010 	push	{r4, lr}
    8d1c:	e1a04000 	mov	r4, r0
    8d20:	eb0000b3 	bl	8ff4 <uart_putc>
    8d24:	e1a00004 	mov	r0, r4
    8d28:	e8bd8010 	pop	{r4, pc}

00008d2c <clean_reboot>:
    8d2c:	e92d4010 	push	{r4, lr}
    8d30:	e59f0010 	ldr	r0, [pc, #16]	; 8d48 <clean_reboot+0x1c>
    8d34:	eb00011f 	bl	91b8 <putk>
    8d38:	eb0000c5 	bl	9054 <uart_flush_tx>
    8d3c:	e3a0000a 	mov	r0, #10, 0
    8d40:	eb000049 	bl	8e6c <delay_ms>
    8d44:	eb00001f 	bl	8dc8 <rpi_reboot>
    8d48:	000097cc 	andeq	r9, r0, ip, asr #15

00008d4c <_cstart>:
    8d4c:	e92d4010 	push	{r4, lr}
    8d50:	e59f3024 	ldr	r3, [pc, #36]	; 8d7c <_cstart+0x30>
    8d54:	e59f2024 	ldr	r2, [pc, #36]	; 8d80 <_cstart+0x34>
    8d58:	e1530002 	cmp	r3, r2
    8d5c:	33a02000 	movcc	r2, #0, 0
    8d60:	34832004 	strcc	r2, [r3], #4
    8d64:	3afffffa 	bcc	8d54 <_cstart+0x8>
    8d68:	eb00005b 	bl	8edc <uart_init>
    8d6c:	e3a03001 	mov	r3, #1, 0
    8d70:	ee0f3f1c 	mcr	15, 0, r3, cr15, cr12, {0}
    8d74:	ebfffd09 	bl	81a0 <notmain>
    8d78:	ebffffeb 	bl	8d2c <clean_reboot>
    8d7c:	000097e4 	andeq	r9, r0, r4, ror #15
    8d80:	00009800 	andeq	r9, r0, r0, lsl #16

00008d84 <dev_barrier>:
    8d84:	ea000002 	b	8d94 <dsb>

00008d88 <dmb>:
    8d88:	e3a00000 	mov	r0, #0, 0
    8d8c:	ee070fba 	mcr	15, 0, r0, cr7, cr10, {5}
    8d90:	e12fff1e 	bx	lr

00008d94 <dsb>:
    8d94:	ee070f9a 	mcr	15, 0, r0, cr7, cr10, {4}
    8d98:	e12fff1e 	bx	lr

00008d9c <at_user_level>:
    8d9c:	e10f0000 	mrs	r0, CPSR
    8da0:	e200001f 	and	r0, r0, #31, 0
    8da4:	e3500010 	cmp	r0, #16, 0
    8da8:	13a00000 	movne	r0, #0, 0
    8dac:	03a00001 	moveq	r0, #1, 0
    8db0:	e12fff1e 	bx	lr

00008db4 <set_user_level>:
    8db4:	e10f3000 	mrs	r3, CPSR
    8db8:	e3c3301f 	bic	r3, r3, #31, 0
    8dbc:	e3833010 	orr	r3, r3, #16, 0
    8dc0:	e129f003 	msr	CPSR_fc, r3
    8dc4:	e12fff1e 	bx	lr

00008dc8 <rpi_reboot>:
    8dc8:	e92d4010 	push	{r4, lr}
    8dcc:	ebfffff2 	bl	8d9c <at_user_level>
    8dd0:	e3500000 	cmp	r0, #0, 0
    8dd4:	1a000009 	bne	8e00 <rpi_reboot+0x38>
    8dd8:	eb00009d 	bl	9054 <uart_flush_tx>
    8ddc:	e3a0000a 	mov	r0, #10, 0
    8de0:	eb000021 	bl	8e6c <delay_ms>
    8de4:	e59f101c 	ldr	r1, [pc, #28]	; 8e08 <rpi_reboot+0x40>
    8de8:	e59f001c 	ldr	r0, [pc, #28]	; 8e0c <rpi_reboot+0x44>
    8dec:	ebfffc8c 	bl	8024 <PUT32>
    8df0:	e59f1018 	ldr	r1, [pc, #24]	; 8e10 <rpi_reboot+0x48>
    8df4:	e59f0018 	ldr	r0, [pc, #24]	; 8e14 <rpi_reboot+0x4c>
    8df8:	ebfffc89 	bl	8024 <PUT32>
    8dfc:	eafffffe 	b	8dfc <rpi_reboot+0x34>
    8e00:	ebffffeb 	bl	8db4 <set_user_level>
    8e04:	eafffff3 	b	8dd8 <rpi_reboot+0x10>
    8e08:	5a000001 	bpl	8e14 <rpi_reboot+0x4c>
    8e0c:	20100024 	andscs	r0, r0, r4, lsr #32
    8e10:	5a000020 	bpl	8e98 <delay_sec+0x14>
    8e14:	2010001c 	andscs	r0, r0, ip, lsl r0

00008e18 <timer_get_usec_raw>:
    8e18:	e92d4010 	push	{r4, lr}
    8e1c:	e59f0004 	ldr	r0, [pc, #4]	; 8e28 <timer_get_usec_raw+0x10>
    8e20:	ebfffc81 	bl	802c <GET32>
    8e24:	e8bd8010 	pop	{r4, pc}
    8e28:	20003004 	andcs	r3, r0, r4

00008e2c <timer_get_usec>:
    8e2c:	e92d4010 	push	{r4, lr}
    8e30:	ebffffd3 	bl	8d84 <dev_barrier>
    8e34:	ebfffff7 	bl	8e18 <timer_get_usec_raw>
    8e38:	e1a04000 	mov	r4, r0
    8e3c:	ebffffd0 	bl	8d84 <dev_barrier>
    8e40:	e1a00004 	mov	r0, r4
    8e44:	e8bd8010 	pop	{r4, pc}

00008e48 <delay_us>:
    8e48:	e92d4070 	push	{r4, r5, r6, lr}
    8e4c:	e1a05000 	mov	r5, r0
    8e50:	ebfffff5 	bl	8e2c <timer_get_usec>
    8e54:	e1a04000 	mov	r4, r0
    8e58:	ebfffff3 	bl	8e2c <timer_get_usec>
    8e5c:	e0400004 	sub	r0, r0, r4
    8e60:	e1500005 	cmp	r0, r5
    8e64:	3afffffb 	bcc	8e58 <delay_us+0x10>
    8e68:	e8bd8070 	pop	{r4, r5, r6, pc}

00008e6c <delay_ms>:
    8e6c:	e92d4010 	push	{r4, lr}
    8e70:	e0603280 	rsb	r3, r0, r0, lsl #5
    8e74:	e0800103 	add	r0, r0, r3, lsl #2
    8e78:	e1a00180 	lsl	r0, r0, #3
    8e7c:	ebfffff1 	bl	8e48 <delay_us>
    8e80:	e8bd8010 	pop	{r4, pc}

00008e84 <delay_sec>:
    8e84:	e92d4010 	push	{r4, lr}
    8e88:	e0603280 	rsb	r3, r0, r0, lsl #5
    8e8c:	e0800103 	add	r0, r0, r3, lsl #2
    8e90:	e1a00180 	lsl	r0, r0, #3
    8e94:	ebfffff4 	bl	8e6c <delay_ms>
    8e98:	e8bd8010 	pop	{r4, pc}

00008e9c <and_in32>:
    8e9c:	e92d4070 	push	{r4, r5, r6, lr}
    8ea0:	e1a04000 	mov	r4, r0
    8ea4:	e1a05001 	mov	r5, r1
    8ea8:	ebfffc5f 	bl	802c <GET32>
    8eac:	e0001005 	and	r1, r0, r5
    8eb0:	e1a00004 	mov	r0, r4
    8eb4:	ebfffc5a 	bl	8024 <PUT32>
    8eb8:	e8bd8070 	pop	{r4, r5, r6, pc}

00008ebc <or_in32>:
    8ebc:	e92d4070 	push	{r4, r5, r6, lr}
    8ec0:	e1a04000 	mov	r4, r0
    8ec4:	e1a05001 	mov	r5, r1
    8ec8:	ebfffc57 	bl	802c <GET32>
    8ecc:	e1801005 	orr	r1, r0, r5
    8ed0:	e1a00004 	mov	r0, r4
    8ed4:	ebfffc52 	bl	8024 <PUT32>
    8ed8:	e8bd8070 	pop	{r4, r5, r6, pc}

00008edc <uart_init>:
    8edc:	e92d4010 	push	{r4, lr}
    8ee0:	e3a01002 	mov	r1, #2, 0
    8ee4:	e3a0000e 	mov	r0, #14, 0
    8ee8:	eb000090 	bl	9130 <gpio_set_function>
    8eec:	e3a01002 	mov	r1, #2, 0
    8ef0:	e3a0000f 	mov	r0, #15, 0
    8ef4:	eb00008d 	bl	9130 <gpio_set_function>
    8ef8:	ebffffa1 	bl	8d84 <dev_barrier>
    8efc:	e3a01001 	mov	r1, #1, 0
    8f00:	e59f0064 	ldr	r0, [pc, #100]	; 8f6c <uart_init+0x90>
    8f04:	ebffffec 	bl	8ebc <or_in32>
    8f08:	ebffff9d 	bl	8d84 <dev_barrier>
    8f0c:	e59f405c 	ldr	r4, [pc, #92]	; 8f70 <uart_init+0x94>
    8f10:	e3a01000 	mov	r1, #0, 0
    8f14:	e1a00004 	mov	r0, r4
    8f18:	ebfffc41 	bl	8024 <PUT32>
    8f1c:	e3a01000 	mov	r1, #0, 0
    8f20:	e59f004c 	ldr	r0, [pc, #76]	; 8f74 <uart_init+0x98>
    8f24:	ebfffc3e 	bl	8024 <PUT32>
    8f28:	e3a01003 	mov	r1, #3, 0
    8f2c:	e59f0044 	ldr	r0, [pc, #68]	; 8f78 <uart_init+0x9c>
    8f30:	ebfffc3b 	bl	8024 <PUT32>
    8f34:	e3a01000 	mov	r1, #0, 0
    8f38:	e59f003c 	ldr	r0, [pc, #60]	; 8f7c <uart_init+0xa0>
    8f3c:	ebfffc38 	bl	8024 <PUT32>
    8f40:	e3a010c7 	mov	r1, #199, 0	; 0xc7
    8f44:	e59f0034 	ldr	r0, [pc, #52]	; 8f80 <uart_init+0xa4>
    8f48:	ebfffc35 	bl	8024 <PUT32>
    8f4c:	e59f1030 	ldr	r1, [pc, #48]	; 8f84 <uart_init+0xa8>
    8f50:	e59f0030 	ldr	r0, [pc, #48]	; 8f88 <uart_init+0xac>
    8f54:	ebfffc32 	bl	8024 <PUT32>
    8f58:	e3a01003 	mov	r1, #3, 0
    8f5c:	e1a00004 	mov	r0, r4
    8f60:	ebfffc2f 	bl	8024 <PUT32>
    8f64:	ebffff86 	bl	8d84 <dev_barrier>
    8f68:	e8bd8010 	pop	{r4, pc}
    8f6c:	20215004 	eorcs	r5, r1, r4
    8f70:	20215060 	eorcs	r5, r1, r0, rrx
    8f74:	20215044 	eorcs	r5, r1, r4, asr #32
    8f78:	2021504c 	eorcs	r5, r1, ip, asr #32
    8f7c:	20215050 	eorcs	r5, r1, r0, asr r0
    8f80:	20215048 	eorcs	r5, r1, r8, asr #32
    8f84:	0000010e 	andeq	r0, r0, lr, lsl #2
    8f88:	20215068 	eorcs	r5, r1, r8, rrx

00008f8c <uart_can_getc>:
    8f8c:	e92d4010 	push	{r4, lr}
    8f90:	e59f0008 	ldr	r0, [pc, #8]	; 8fa0 <uart_can_getc+0x14>
    8f94:	ebfffc24 	bl	802c <GET32>
    8f98:	e2000001 	and	r0, r0, #1, 0
    8f9c:	e8bd8010 	pop	{r4, pc}
    8fa0:	20215064 	eorcs	r5, r1, r4, rrx

00008fa4 <uart_can_putc>:
    8fa4:	e92d4010 	push	{r4, lr}
    8fa8:	e59f0010 	ldr	r0, [pc, #16]	; 8fc0 <uart_can_putc+0x1c>
    8fac:	ebfffc1e 	bl	802c <GET32>
    8fb0:	e3100002 	tst	r0, #2, 0
    8fb4:	13a00001 	movne	r0, #1, 0
    8fb8:	03a00000 	moveq	r0, #0, 0
    8fbc:	e8bd8010 	pop	{r4, pc}
    8fc0:	20215064 	eorcs	r5, r1, r4, rrx

00008fc4 <uart_getc>:
    8fc4:	e92d4010 	push	{r4, lr}
    8fc8:	ebffff6d 	bl	8d84 <dev_barrier>
    8fcc:	ebffffee 	bl	8f8c <uart_can_getc>
    8fd0:	e3500000 	cmp	r0, #0, 0
    8fd4:	0afffffc 	beq	8fcc <uart_getc+0x8>
    8fd8:	e59f0010 	ldr	r0, [pc, #16]	; 8ff0 <uart_getc+0x2c>
    8fdc:	ebfffc12 	bl	802c <GET32>
    8fe0:	e6ef4070 	uxtb	r4, r0
    8fe4:	ebffff66 	bl	8d84 <dev_barrier>
    8fe8:	e1a00004 	mov	r0, r4
    8fec:	e8bd8010 	pop	{r4, pc}
    8ff0:	20215040 	eorcs	r5, r1, r0, asr #32

00008ff4 <uart_putc>:
    8ff4:	e92d4010 	push	{r4, lr}
    8ff8:	e1a04000 	mov	r4, r0
    8ffc:	ebffff60 	bl	8d84 <dev_barrier>
    9000:	ebffffe7 	bl	8fa4 <uart_can_putc>
    9004:	e3500000 	cmp	r0, #0, 0
    9008:	0afffffc 	beq	9000 <uart_putc+0xc>
    900c:	e6ef1074 	uxtb	r1, r4
    9010:	e59f0008 	ldr	r0, [pc, #8]	; 9020 <uart_putc+0x2c>
    9014:	ebfffc02 	bl	8024 <PUT32>
    9018:	ebffff59 	bl	8d84 <dev_barrier>
    901c:	e8bd8010 	pop	{r4, pc}
    9020:	20215040 	eorcs	r5, r1, r0, asr #32

00009024 <uart_has_data>:
    9024:	e92d4010 	push	{r4, lr}
    9028:	ebffff55 	bl	8d84 <dev_barrier>
    902c:	ebffffd6 	bl	8f8c <uart_can_getc>
    9030:	e8bd8010 	pop	{r4, pc}

00009034 <uart_tx_is_empty>:
    9034:	e92d4010 	push	{r4, lr}
    9038:	ebffff51 	bl	8d84 <dev_barrier>
    903c:	e59f000c 	ldr	r0, [pc, #12]	; 9050 <uart_tx_is_empty+0x1c>
    9040:	ebfffbf9 	bl	802c <GET32>
    9044:	e1a004a0 	lsr	r0, r0, #9
    9048:	e2000001 	and	r0, r0, #1, 0
    904c:	e8bd8010 	pop	{r4, pc}
    9050:	20215064 	eorcs	r5, r1, r4, rrx

00009054 <uart_flush_tx>:
    9054:	e92d4010 	push	{r4, lr}
    9058:	ebfffff5 	bl	9034 <uart_tx_is_empty>
    905c:	e3500000 	cmp	r0, #0, 0
    9060:	0afffffc 	beq	9058 <uart_flush_tx+0x4>
    9064:	e8bd8010 	pop	{r4, pc}

00009068 <uart_disable>:
    9068:	e92d4010 	push	{r4, lr}
    906c:	ebfffff8 	bl	9054 <uart_flush_tx>
    9070:	ebffff43 	bl	8d84 <dev_barrier>
    9074:	e3e01001 	mvn	r1, #1, 0
    9078:	e59f0008 	ldr	r0, [pc, #8]	; 9088 <uart_disable+0x20>
    907c:	ebffff86 	bl	8e9c <and_in32>
    9080:	ebffff3f 	bl	8d84 <dev_barrier>
    9084:	e8bd8010 	pop	{r4, pc}
    9088:	20215004 	eorcs	r5, r1, r4

0000908c <gpio_set_on>:
    908c:	e350002f 	cmp	r0, #47, 0	; 0x2f
    9090:	1350001f 	cmpne	r0, #31, 0
    9094:	812fff1e 	bxhi	lr
    9098:	e92d4010 	push	{r4, lr}
    909c:	e3a01001 	mov	r1, #1, 0
    90a0:	e1a01011 	lsl	r1, r1, r0
    90a4:	e59f0004 	ldr	r0, [pc, #4]	; 90b0 <gpio_set_on+0x24>
    90a8:	ebfffbdd 	bl	8024 <PUT32>
    90ac:	e8bd8010 	pop	{r4, pc}
    90b0:	2020001c 	eorcs	r0, r0, ip, lsl r0

000090b4 <gpio_set_off>:
    90b4:	e350002f 	cmp	r0, #47, 0	; 0x2f
    90b8:	1350001f 	cmpne	r0, #31, 0
    90bc:	812fff1e 	bxhi	lr
    90c0:	e92d4010 	push	{r4, lr}
    90c4:	e3a01001 	mov	r1, #1, 0
    90c8:	e1a01011 	lsl	r1, r1, r0
    90cc:	e59f0004 	ldr	r0, [pc, #4]	; 90d8 <gpio_set_off+0x24>
    90d0:	ebfffbd3 	bl	8024 <PUT32>
    90d4:	e8bd8010 	pop	{r4, pc}
    90d8:	20200028 	eorcs	r0, r0, r8, lsr #32

000090dc <gpio_write>:
    90dc:	e92d4010 	push	{r4, lr}
    90e0:	e3510000 	cmp	r1, #0, 0
    90e4:	0a000001 	beq	90f0 <gpio_write+0x14>
    90e8:	ebffffe7 	bl	908c <gpio_set_on>
    90ec:	e8bd8010 	pop	{r4, pc}
    90f0:	ebffffef 	bl	90b4 <gpio_set_off>
    90f4:	e8bd8010 	pop	{r4, pc}

000090f8 <gpio_read>:
    90f8:	e350002f 	cmp	r0, #47, 0	; 0x2f
    90fc:	1350001f 	cmpne	r0, #31, 0
    9100:	8a000007 	bhi	9124 <gpio_read+0x2c>
    9104:	e92d4010 	push	{r4, lr}
    9108:	e1a04000 	mov	r4, r0
    910c:	e59f0018 	ldr	r0, [pc, #24]	; 912c <gpio_read+0x34>
    9110:	ebfffbc5 	bl	802c <GET32>
    9114:	e3a03001 	mov	r3, #1, 0
    9118:	e0000413 	and	r0, r0, r3, lsl r4
    911c:	e1a00430 	lsr	r0, r0, r4
    9120:	e8bd8010 	pop	{r4, pc}
    9124:	e3e00000 	mvn	r0, #0, 0
    9128:	e12fff1e 	bx	lr
    912c:	20200034 	eorcs	r0, r0, r4, lsr r0

00009130 <gpio_set_function>:
    9130:	e350002f 	cmp	r0, #47, 0	; 0x2f
    9134:	1350001f 	cmpne	r0, #31, 0
    9138:	812fff1e 	bxhi	lr
    913c:	e92d41f0 	push	{r4, r5, r6, r7, r8, lr}
    9140:	e1a05001 	mov	r5, r1
    9144:	e3510007 	cmp	r1, #7, 0
    9148:	88bd81f0 	pophi	{r4, r5, r6, r7, r8, pc}
    914c:	e59f4040 	ldr	r4, [pc, #64]	; 9194 <gpio_set_function+0x64>
    9150:	e0843094 	umull	r3, r4, r4, r0
    9154:	e1a041a4 	lsr	r4, r4, #3
    9158:	e2846302 	add	r6, r4, #134217728	; 0x8000000
    915c:	e2866702 	add	r6, r6, #524288	; 0x80000
    9160:	e1a06106 	lsl	r6, r6, #2
    9164:	e0844104 	add	r4, r4, r4, lsl #2
    9168:	e0404084 	sub	r4, r0, r4, lsl #1
    916c:	e0844084 	add	r4, r4, r4, lsl #1
    9170:	e3a01007 	mov	r1, #7, 0
    9174:	e1a07411 	lsl	r7, r1, r4
    9178:	e1a00006 	mov	r0, r6
    917c:	ebfffbaa 	bl	802c <GET32>
    9180:	e1c01007 	bic	r1, r0, r7
    9184:	e1811415 	orr	r1, r1, r5, lsl r4
    9188:	e1a00006 	mov	r0, r6
    918c:	ebfffba4 	bl	8024 <PUT32>
    9190:	e8bd81f0 	pop	{r4, r5, r6, r7, r8, pc}
    9194:	cccccccd 	stclgt	12, cr12, [ip], {205}	; 0xcd

00009198 <gpio_set_output>:
    9198:	e92d4010 	push	{r4, lr}
    919c:	e3a01001 	mov	r1, #1, 0
    91a0:	ebffffe2 	bl	9130 <gpio_set_function>
    91a4:	e8bd8010 	pop	{r4, pc}

000091a8 <gpio_set_input>:
    91a8:	e92d4010 	push	{r4, lr}
    91ac:	e3a01000 	mov	r1, #0, 0
    91b0:	ebffffde 	bl	9130 <gpio_set_function>
    91b4:	e8bd8010 	pop	{r4, pc}

000091b8 <putk>:
    91b8:	e92d4010 	push	{r4, lr}
    91bc:	e1a04000 	mov	r4, r0
    91c0:	e5d40000 	ldrb	r0, [r4]
    91c4:	e3500000 	cmp	r0, #0, 0
    91c8:	0a000002 	beq	91d8 <putk+0x20>
    91cc:	ebfffed1 	bl	8d18 <rpi_putchar>
    91d0:	e2844001 	add	r4, r4, #1, 0
    91d4:	eafffff9 	b	91c0 <putk+0x8>
    91d8:	e3a00001 	mov	r0, #1, 0
    91dc:	e8bd8010 	pop	{r4, pc}

Disassembly of section .rodata:

000091e0 <__FUNCTION__.4278-0x144>:
    91e0:	25206370 	strcs	r6, [r0, #-880]!	; 0xfffffc90
    91e4:	64252078 	strtvs	r2, [r5], #-120	; 0xffffff88
    91e8:	0000000a 	andeq	r0, r0, sl
    91ec:	756f6261 	strbvc	r6, [pc, #-609]!	; 8f93 <uart_can_getc+0x7>
    91f0:	6f742074 	svcvs	0x00742074
    91f4:	736e6920 	cmnvc	lr, #32, 18	; 0x80000
    91f8:	6c6c6174 	stfvse	f6, [ip], #-464	; 0xfffffe30
    91fc:	6e616820 	cdpvs	8, 6, cr6, cr1, cr0, {1}
    9200:	72656c64 	rsbvc	r6, r5, #100, 24	; 0x6400
    9204:	00000a73 	andeq	r0, r0, r3, ror sl
    9208:	74746573 	ldrbtvc	r6, [r4], #-1395	; 0xfffffa8d
    920c:	20676e69 	rsbcs	r6, r7, r9, ror #28
    9210:	74207075 	strtvc	r7, [r0], #-117	; 0xffffff8b
    9214:	72656d69 	rsbvc	r6, r5, #6720	; 0x1a40
    9218:	746e6920 	strbtvc	r6, [lr], #-2336	; 0xfffff6e0
    921c:	75727265 	ldrbvc	r7, [r2, #-613]!	; 0xfffffd9b
    9220:	0a737470 	beq	1ce63e8 <__bss_end__+0x1cdcbe8>
    9224:	00000000 	andeq	r0, r0, r0
    9228:	6e6e6f67 	cdpvs	15, 6, cr6, cr14, cr7, {3}
    922c:	6e652061 	cdpvs	0, 6, cr2, cr5, cr1, {3}
    9230:	656c6261 	strbvs	r6, [ip, #-609]!	; 0xfffffd9f
    9234:	746e6920 	strbtvc	r6, [lr], #-2336	; 0xfffff6e0
    9238:	6c672073 	stclvs	0, cr2, [r7], #-460	; 0xfffffe34
    923c:	6c61626f 	sfmvs	f6, 2, [r1], #-444	; 0xfffffe44
    9240:	0a21796c 	beq	8677f8 <__bss_end__+0x85dff8>
    9244:	00000000 	andeq	r0, r0, r0
    9248:	62616e65 	rsbvs	r6, r1, #1616	; 0x650
    924c:	2164656c 	cmncs	r4, ip, ror #10
    9250:	0000000a 	andeq	r0, r0, sl
    9254:	72657469 	rsbvc	r7, r5, #1761607680	; 0x69000000
    9258:	3a64253d 	bcc	1912754 <__bss_end__+0x1908f54>
    925c:	746e6320 	strbtvc	r6, [lr], #-800	; 0xfffffce0
    9260:	25203d20 	strcs	r3, [r0, #-3360]!	; 0xfffff2e0
    9264:	70202c64 	eorvc	r2, r0, r4, ror #24
    9268:	6f697265 	svcvs	0x00697265
    926c:	203d2064 	eorscs	r2, sp, r4, rrx
    9270:	73756425 	cmnvc	r5, #620756992	; 0x25000000
    9274:	202c6365 	eorcs	r6, ip, r5, ror #6
    9278:	000a7825 	andeq	r7, sl, r5, lsr #16
    927c:	65746e69 	ldrbvs	r6, [r4, #-3689]!	; 0xfffff197
    9280:	70757272 	rsbsvc	r7, r5, r2, ror r2
    9284:	632d7374 			; <UNDEFINED> instruction: 0x632d7374
    9288:	0000632e 	andeq	r6, r0, lr, lsr #6
    928c:	494e4150 	stmdbmi	lr, {r4, r6, r8, lr}^
    9290:	73253a43 			; <UNDEFINED> instruction: 0x73253a43
    9294:	3a73253a 	bcc	1cd2784 <__bss_end__+0x1cc8f84>
    9298:	453a6425 	ldrmi	r6, [sl, #-1061]!	; 0xfffffbdb
    929c:	524f5252 	subpl	r5, pc, #536870917	; 0x20000005
    92a0:	6e75203a 	mrcvs	0, 3, r2, cr5, cr10, {1}
    92a4:	646e6168 	strbtvs	r6, [lr], #-360	; 0xfffffe98
    92a8:	2064656c 	rsbcs	r6, r4, ip, ror #10
    92ac:	65637865 	strbvs	r7, [r3, #-2149]!	; 0xfffff79b
    92b0:	6f697470 	svcvs	0x00697470
    92b4:	253c206e 	ldrcs	r2, [ip, #-110]!	; 0xffffff92
    92b8:	61203e73 			; <UNDEFINED> instruction: 0x61203e73
    92bc:	43502074 	cmpmi	r0, #116, 0	; 0x74
    92c0:	0a78253d 	beq	1e127bc <__bss_end__+0x1e08fbc>
    92c4:	0000000a 	andeq	r0, r0, sl
    92c8:	74736166 	ldrbtvc	r6, [r3], #-358	; 0xfffffe9a
    92cc:	00000000 	andeq	r0, r0, r0
    92d0:	74666f73 	strbtvc	r6, [r6], #-3955	; 0xfffff08d
    92d4:	746e6920 	strbtvc	r6, [lr], #-2336	; 0xfffff6e0
    92d8:	75727265 	ldrbvc	r7, [r2, #-613]!	; 0xfffffd9b
    92dc:	00007470 	andeq	r7, r0, r0, ror r4
    92e0:	65736572 	ldrbvs	r6, [r3, #-1394]!	; 0xfffffa8e
    92e4:	65762074 	ldrbvs	r2, [r6, #-116]!	; 0xffffff8c
    92e8:	726f7463 	rsbvc	r7, pc, #1660944384	; 0x63000000
    92ec:	00000000 	andeq	r0, r0, r0
    92f0:	65646e75 	strbvs	r6, [r4, #-3701]!	; 0xfffff18b
    92f4:	656e6966 	strbvs	r6, [lr, #-2406]!	; 0xfffff69a
    92f8:	6e692064 	cdpvs	0, 6, cr2, cr9, cr4, {3}
    92fc:	75727473 	ldrbvc	r7, [r2, #-1139]!	; 0xfffffb8d
    9300:	6f697463 	svcvs	0x00697463
    9304:	0000006e 	andeq	r0, r0, lr, rrx
    9308:	66657270 			; <UNDEFINED> instruction: 0x66657270
    930c:	68637465 	stmdavs	r3!, {r0, r2, r5, r6, sl, ip, sp, lr}^
    9310:	6f626120 	svcvs	0x00626120
    9314:	00007472 	andeq	r7, r0, r2, ror r4
    9318:	61746164 	cmnvs	r4, r4, ror #2
    931c:	6f626120 	svcvs	0x00626120
    9320:	00007472 	andeq	r7, r0, r2, ror r4

00009324 <__FUNCTION__.4278>:
    9324:	74736166 	ldrbtvc	r6, [r3], #-358	; 0xfffffe9a
    9328:	746e695f 	strbtvc	r6, [lr], #-2399	; 0xfffff6a1
    932c:	75727265 	ldrbvc	r7, [r2, #-613]!	; 0xfffffd9b
    9330:	765f7470 			; <UNDEFINED> instruction: 0x765f7470
    9334:	6f746365 	svcvs	0x00746365
    9338:	00000072 	andeq	r0, r0, r2, ror r0

0000933c <__FUNCTION__.4282>:
    933c:	74666f73 	strbtvc	r6, [r6], #-3955	; 0xfffff08d
    9340:	65726177 	ldrbvs	r6, [r2, #-375]!	; 0xfffffe89
    9344:	746e695f 	strbtvc	r6, [lr], #-2399	; 0xfffff6a1
    9348:	75727265 	ldrbvc	r7, [r2, #-613]!	; 0xfffffd9b
    934c:	765f7470 			; <UNDEFINED> instruction: 0x765f7470
    9350:	6f746365 	svcvs	0x00746365
    9354:	00000072 	andeq	r0, r0, r2, ror r0

00009358 <__FUNCTION__.4286>:
    9358:	65736572 	ldrbvs	r6, [r3, #-1394]!	; 0xfffffa8e
    935c:	65765f74 	ldrbvs	r5, [r6, #-3956]!	; 0xfffff08c
    9360:	726f7463 	rsbvc	r7, pc, #1660944384	; 0x63000000
    9364:	00000000 	andeq	r0, r0, r0

00009368 <__FUNCTION__.4290>:
    9368:	65646e75 	strbvs	r6, [r4, #-3701]!	; 0xfffff18b
    936c:	656e6966 	strbvs	r6, [lr, #-2406]!	; 0xfffff69a
    9370:	6e695f64 	cdpvs	15, 6, cr5, cr9, cr4, {3}
    9374:	75727473 	ldrbvc	r7, [r2, #-1139]!	; 0xfffffb8d
    9378:	6f697463 	svcvs	0x00697463
    937c:	65765f6e 	ldrbvs	r5, [r6, #-3950]!	; 0xfffff092
    9380:	726f7463 	rsbvc	r7, pc, #1660944384	; 0x63000000
    9384:	00000000 	andeq	r0, r0, r0

00009388 <__FUNCTION__.4294>:
    9388:	66657270 			; <UNDEFINED> instruction: 0x66657270
    938c:	68637465 	stmdavs	r3!, {r0, r2, r5, r6, sl, ip, sp, lr}^
    9390:	6f62615f 	svcvs	0x0062615f
    9394:	765f7472 			; <UNDEFINED> instruction: 0x765f7472
    9398:	6f746365 	svcvs	0x00746365
    939c:	00000072 	andeq	r0, r0, r2, ror r0

000093a0 <__FUNCTION__.4298>:
    93a0:	61746164 	cmnvs	r4, r4, ror #2
    93a4:	6f62615f 	svcvs	0x0062615f
    93a8:	765f7472 			; <UNDEFINED> instruction: 0x765f7472
    93ac:	6f746365 	svcvs	0x00746365
    93b0:	00000072 	andeq	r0, r0, r2, ror r0
    93b4:	656d6974 	strbvs	r6, [sp, #-2420]!	; 0xfffff68c
    93b8:	6e692d72 	mcrvs	13, 3, r2, cr9, cr2, {3}
    93bc:	72726574 	rsbsvc	r6, r2, #116, 10	; 0x1d000000
    93c0:	2e747075 	mrccs	0, 3, r7, cr4, cr5, {3}
    93c4:	00000063 	andeq	r0, r0, r3, rrx
    93c8:	494e4150 	stmdbmi	lr, {r4, r6, r8, lr}^
    93cc:	73253a43 			; <UNDEFINED> instruction: 0x73253a43
    93d0:	3a73253a 	bcc	1cd28c0 <__bss_end__+0x1cc90c0>
    93d4:	6f3a6425 	svcvs	0x003a6425
    93d8:	65736666 	ldrbvs	r6, [r3, #-1638]!	; 0xfffff99a
    93dc:	72772074 	rsbsvc	r2, r7, #116, 0	; 0x74
    93e0:	3a676e6f 	bcc	19e4da4 <__bss_end__+0x19db5a4>
    93e4:	70786520 	rsbsvc	r6, r8, r0, lsr #10
    93e8:	20746365 	rsbscs	r6, r4, r5, ror #6
    93ec:	67207825 	strvs	r7, [r0, -r5, lsr #16]!
    93f0:	2520746f 	strcs	r7, [r0, #-1135]!	; 0xfffffb91
    93f4:	73252078 			; <UNDEFINED> instruction: 0x73252078
    93f8:	666f5b20 	strbtvs	r5, [pc], -r0, lsr #22
    93fc:	64253d66 	strtvs	r3, [r5], #-3430	; 0xfffff29a
    9400:	69626e2c 	stmdbvs	r2!, {r2, r3, r5, r9, sl, fp, sp, lr}^
    9404:	253d7374 	ldrcs	r7, [sp, #-884]!	; 0xfffffc8c
    9408:	0a0a5d64 	beq	2a09a0 <__bss_end__+0x2971a0>
    940c:	00000000 	andeq	r0, r0, r0
    9410:	5f657375 	svcpl	0x00657375
    9414:	69623233 	stmdbvs	r2!, {r0, r1, r4, r5, r9, ip, sp}^
    9418:	6f635f74 	svcvs	0x00635f74
    941c:	65746e75 	ldrbvs	r6, [r4, #-3701]!	; 0xfffff18b
    9420:	00000072 	andeq	r0, r0, r2, ror r0
    9424:	494e4150 	stmdbmi	lr, {r4, r6, r8, lr}^
    9428:	73253a43 			; <UNDEFINED> instruction: 0x73253a43
    942c:	3a73253a 	bcc	1cd291c <__bss_end__+0x1cc911c>
    9430:	773a6425 	ldrvc	r6, [sl, -r5, lsr #8]!
    9434:	68746469 	ldmdavs	r4!, {r0, r3, r5, r6, sl, sp, lr}^
    9438:	6f727720 	svcvs	0x00727720
    943c:	203a676e 	eorscs	r6, sl, lr, ror #14
    9440:	65707865 	ldrbvs	r7, [r0, #-2149]!	; 0xfffff79b
    9444:	25207463 	strcs	r7, [r0, #-1123]!	; 0xfffffb9d
    9448:	6f672078 	svcvs	0x00672078
    944c:	78252074 	stmdavc	r5!, {r2, r4, r5, r6, sp}
    9450:	20732520 	rsbscs	r2, r3, r0, lsr #10
    9454:	66666f5b 	uqsaxvs	r6, r6, fp
    9458:	2c64253d 	cfstr64cs	mvdx2, [r4], #-244	; 0xffffff0c
    945c:	7469626e 	strbtvc	r6, [r9], #-622	; 0xfffffd92
    9460:	64253d73 	strtvs	r3, [r5], #-3443	; 0xfffff28d
    9464:	000a0a5d 	andeq	r0, sl, sp, asr sl
    9468:	5f746e69 	svcpl	0x00746e69
    946c:	62616e65 	rsbvs	r6, r1, #1616	; 0x650
    9470:	0064656c 	rsbeq	r6, r4, ip, ror #10
    9474:	656d6974 	strbvs	r6, [sp, #-2420]!	; 0xfffff68c
    9478:	6e655f72 	mcrvs	15, 3, r5, cr5, cr2, {3}
    947c:	656c6261 	strbvs	r6, [ip, #-609]!	; 0xfffffd9f
    9480:	00000064 	andeq	r0, r0, r4, rrx
    9484:	6e756f63 	cdpvs	15, 7, cr6, cr5, cr3, {3}
    9488:	5f726574 	svcpl	0x00726574
    948c:	62616e65 	rsbvs	r6, r1, #1616	; 0x650
    9490:	0064656c 	rsbeq	r6, r4, ip, ror #10
    9494:	6e756f63 	cdpvs	15, 7, cr6, cr5, cr3, {3}
    9498:	5f726574 	svcpl	0x00726574
    949c:	73657270 	cmnvc	r5, #112, 4
    94a0:	656c6163 	strbvs	r6, [ip, #-355]!	; 0xfffffe9d
    94a4:	00000072 	andeq	r0, r0, r2, ror r0
    94a8:	7366666f 	cmnvc	r6, #116391936	; 0x6f00000
    94ac:	20737465 	rsbscs	r7, r3, r5, ror #8
    94b0:	63656863 	cmnvs	r5, #6488064	; 0x630000
    94b4:	2064656b 	rsbcs	r6, r4, fp, ror #10
    94b8:	2174756f 	cmncs	r4, pc, ror #10
    94bc:	0000000a 	andeq	r0, r0, sl

000094c0 <__FUNCTION__.4306>:
    94c0:	656d6974 	strbvs	r6, [sp, #-2420]!	; 0xfffff68c
    94c4:	68635f72 	stmdavs	r3!, {r1, r4, r5, r6, r8, r9, sl, fp, ip, lr}^
    94c8:	5f6b6365 	svcpl	0x006b6365
    94cc:	7366666f 	cmnvc	r6, #116391936	; 0x6f00000
    94d0:	00737465 	rsbseq	r7, r3, r5, ror #8
    94d4:	6c616d6b 	stclvs	13, cr6, [r1], #-428	; 0xfffffe54
    94d8:	2e636f6c 	cdpcs	15, 6, cr6, cr3, cr12, {3}
    94dc:	00000063 	andeq	r0, r0, r3, rrx
    94e0:	494e4150 	stmdbmi	lr, {r4, r6, r8, lr}^
    94e4:	73253a43 			; <UNDEFINED> instruction: 0x73253a43
    94e8:	3a73253a 	bcc	1cd29d8 <__bss_end__+0x1cc91d8>
    94ec:	613a6425 	teqvs	sl, r5, lsr #8
    94f0:	6165726c 	cmnvs	r5, ip, ror #4
    94f4:	63207964 			; <UNDEFINED> instruction: 0x63207964
    94f8:	656c6c61 	strbvs	r6, [ip, #-3169]!	; 0xfffff39f
    94fc:	6d6b2064 	stclvs	0, cr2, [fp, #-400]!	; 0xfffffe70
    9500:	6f6c6c61 	svcvs	0x006c6c61
    9504:	65735f63 	ldrbvs	r5, [r3, #-3939]!	; 0xfffff09d
    9508:	74735f74 	ldrbtvc	r5, [r3], #-3956	; 0xfffff08c
    950c:	0a747261 	beq	1d25e98 <__bss_end__+0x1d1c698>
    9510:	0000000a 	andeq	r0, r0, sl
    9514:	253a7325 	ldrcs	r7, [sl, #-805]!	; 0xfffffcdb
    9518:	64253a73 	strtvs	r3, [r5], #-2675	; 0xfffff58d
    951c:	5252453a 	subspl	r4, r2, #243269632	; 0xe800000
    9520:	203a524f 	eorscs	r5, sl, pc, asr #4
    9524:	65737341 	ldrbvs	r7, [r3, #-833]!	; 0xfffffcbf
    9528:	6f697472 	svcvs	0x00697472
    952c:	2560206e 	strbcs	r2, [r0, #-110]!	; 0xffffff92
    9530:	66206073 			; <UNDEFINED> instruction: 0x66206073
    9534:	656c6961 	strbvs	r6, [ip, #-2401]!	; 0xfffff69f
    9538:	000a2e64 	andeq	r2, sl, r4, ror #28
    953c:	5f78616d 	svcpl	0x0078616d
    9540:	7479626e 	ldrbtvc	r6, [r9], #-622	; 0xfffffd92
    9544:	00007365 	andeq	r7, r0, r5, ror #6
    9548:	494e4150 	stmdbmi	lr, {r4, r6, r8, lr}^
    954c:	73253a43 			; <UNDEFINED> instruction: 0x73253a43
    9550:	3a73253a 	bcc	1cd2a40 <__bss_end__+0x1cc9240>
    9554:	733a6425 	teqvc	sl, #620756992	; 0x25000000
    9558:	69747465 	ldmdbvs	r4!, {r0, r2, r5, r6, sl, ip, sp, lr}^
    955c:	6820676e 	stmdavs	r0!, {r1, r2, r3, r5, r6, r8, r9, sl, sp, lr}
    9560:	20706165 	rsbscs	r6, r0, r5, ror #2
    9564:	25206f74 	strcs	r6, [r0, #-3956]!	; 0xfffff08c
    9568:	77203a70 			; <UNDEFINED> instruction: 0x77203a70
    956c:	206c6c69 	rsbcs	r6, ip, r9, ror #24
    9570:	20746968 	rsbscs	r6, r4, r8, ror #18
    9574:	20656874 	rsbcs	r6, r5, r4, ror r8
    9578:	20646c6f 	rsbcs	r6, r4, pc, ror #24
    957c:	70616568 	rsbvc	r6, r1, r8, ror #10
    9580:	20746120 	rsbscs	r6, r4, r0, lsr #2
    9584:	0a0a7025 	beq	2a5620 <__bss_end__+0x29be20>
    9588:	00000000 	andeq	r0, r0, r0
    958c:	494e4150 	stmdbmi	lr, {r4, r6, r8, lr}^
    9590:	73253a43 			; <UNDEFINED> instruction: 0x73253a43
    9594:	3a73253a 	bcc	1cd2a84 <__bss_end__+0x1cc9284>
    9598:	613a6425 	teqvs	sl, r5, lsr #8
    959c:	6165726c 	cmnvs	r5, ip, ror #4
    95a0:	63207964 			; <UNDEFINED> instruction: 0x63207964
    95a4:	656c6c61 	strbvs	r6, [ip, #-3169]!	; 0xfffff39f
    95a8:	6d6b2064 	stclvs	0, cr2, [fp, #-400]!	; 0xfffffe70
    95ac:	6f6c6c61 	svcvs	0x006c6c61
    95b0:	6e695f63 	cdpvs	15, 6, cr5, cr9, cr3, {3}
    95b4:	0a0a7469 	beq	2a6760 <__bss_end__+0x29cf60>
    95b8:	00000000 	andeq	r0, r0, r0
    95bc:	494e4150 	stmdbmi	lr, {r4, r6, r8, lr}^
    95c0:	73253a43 			; <UNDEFINED> instruction: 0x73253a43
    95c4:	3a73253a 	bcc	1cd2ab4 <__bss_end__+0x1cc92b4>
    95c8:	253a6425 	ldrcs	r6, [sl, #-1061]!	; 0xfffffbdb
    95cc:	626e2064 	rsbvs	r2, lr, #100, 0	; 0x64
    95d0:	20657479 	rsbcs	r7, r5, r9, ror r4
    95d4:	6f6c6c61 	svcvs	0x006c6c61
    95d8:	69746163 	ldmdbvs	r4!, {r0, r1, r5, r6, r8, sp, lr}^
    95dc:	65206e6f 	strvs	r6, [r0, #-3695]!	; 0xfffff191
    95e0:	65656378 	strbvs	r6, [r5, #-888]!	; 0xfffffc88
    95e4:	20646564 	rsbcs	r6, r4, r4, ror #10
    95e8:	657a6973 	ldrbvs	r6, [sl, #-2419]!	; 0xfffff68d
    95ec:	20666f20 	rsbcs	r6, r6, r0, lsr #30
    95f0:	70616568 	rsbvc	r6, r1, r8, ror #10
    95f4:	20796220 	rsbscs	r6, r9, r0, lsr #4
    95f8:	6e207525 	cfsh64vs	mvdx7, mvdx0, #21
    95fc:	65747962 	ldrbvs	r7, [r4, #-2402]!	; 0xfffff69e
    9600:	000a0a73 	andeq	r0, sl, r3, ror sl
    9604:	253a7325 	ldrcs	r7, [sl, #-805]!	; 0xfffffcdb
    9608:	64253a73 	strtvs	r3, [r5], #-2675	; 0xfffff58d
    960c:	5252453a 	subspl	r4, r2, #243269632	; 0xe800000
    9610:	203a524f 	eorscs	r5, sl, pc, asr #4
    9614:	616d6544 	cmnvs	sp, r4, asr #10
    9618:	6020646e 	eorvs	r6, r0, lr, ror #8
    961c:	20607325 	rsbcs	r7, r0, r5, lsr #6
    9620:	6c696166 	stfvse	f6, [r9], #-408	; 0xfffffe68
    9624:	203a6465 	eorscs	r6, sl, r5, ror #8
    9628:	000a7325 	andeq	r7, sl, r5, lsr #6
    962c:	75737361 	ldrbvc	r7, [r3, #-865]!	; 0xfffffc9f
    9630:	676e696d 	strbvs	r6, [lr, -sp, ror #18]!
    9634:	776f7020 	strbvc	r7, [pc, -r0, lsr #32]!
    9638:	6f207265 	svcvs	0x00207265
    963c:	77742066 	ldrbvc	r2, [r4, -r6, rrx]!
    9640:	0000006f 	andeq	r0, r0, pc, rrx
    9644:	705f7369 	subsvc	r7, pc, r9, ror #6
    9648:	2832776f 	ldmdacs	r2!, {r0, r1, r2, r3, r5, r6, r8, r9, sl, ip, sp, lr}
    964c:	67696c61 	strbvs	r6, [r9, -r1, ror #24]!
    9650:	6e656d6e 	cdpvs	13, 6, cr6, cr5, cr14, {3}
    9654:	00002974 	andeq	r2, r0, r4, ror r9
    9658:	705f7369 	subsvc	r7, pc, r9, ror #6
    965c:	2832776f 	ldmdacs	r2!, {r0, r1, r2, r3, r5, r6, r8, r9, sl, ip, sp, lr}
    9660:	0000296e 	andeq	r2, r0, lr, ror #18
    9664:	6f706d69 	svcvs	0x00706d69
    9668:	62697373 	rsbvs	r7, r9, #-872415231	; 0xcc000001
    966c:	0000656c 	andeq	r6, r0, ip, ror #10
    9670:	615f7369 	cmpvs	pc, r9, ror #6
    9674:	6e67696c 	vnmulvs.f16	s13, s14, s25	; <UNPREDICTABLE>
    9678:	68286465 	stmdavs	r8!, {r0, r2, r5, r6, sl, sp, lr}
    967c:	6c61202c 	stclvs	0, cr2, [r1], #-176	; 0xffffff50
    9680:	6d6e6769 	stclvs	7, cr6, [lr, #-420]!	; 0xfffffe5c
    9684:	29746e65 	ldmdbcs	r4!, {r0, r2, r5, r6, r9, sl, fp, sp, lr}^
    9688:	00000000 	andeq	r0, r0, r0
    968c:	494e4150 	stmdbmi	lr, {r4, r6, r8, lr}^
    9690:	73253a43 			; <UNDEFINED> instruction: 0x73253a43
    9694:	3a73253a 	bcc	1cd2b84 <__bss_end__+0x1cc9384>
    9698:	703a6425 	eorsvc	r6, sl, r5, lsr #8
    969c:	746e696f 	strbtvc	r6, [lr], #-2415	; 0xfffff691
    96a0:	25207265 	strcs	r7, [r0, #-613]!	; 0xfffffd9b
    96a4:	61772070 	cmnvs	r7, r0, ror r0
    96a8:	656e2073 	strbvs	r2, [lr, #-115]!	; 0xffffff8d
    96ac:	20726576 	rsbscs	r6, r2, r6, ror r5
    96b0:	6f6c6c61 	svcvs	0x006c6c61
    96b4:	65746163 	ldrbvs	r6, [r4, #-355]!	; 0xfffffe9d
    96b8:	000a0a64 	andeq	r0, sl, r4, ror #20

000096bc <__FUNCTION__.7>:
    96bc:	6c616d6b 	stclvs	13, cr6, [r1], #-428	; 0xfffffe54
    96c0:	5f636f6c 	svcpl	0x00636f6c
    96c4:	74696e69 	strbtvc	r6, [r9], #-3689	; 0xfffff197
    96c8:	7465735f 	strbtvc	r7, [r5], #-863	; 0xfffffca1
    96cc:	6174735f 	cmnvs	r4, pc, asr r3
    96d0:	00007472 	andeq	r7, r0, r2, ror r4

000096d4 <__FUNCTION__.5>:
    96d4:	6c616d6b 	stclvs	13, cr6, [r1], #-428	; 0xfffffe54
    96d8:	5f636f6c 	svcpl	0x00636f6c
    96dc:	74696e69 	strbtvc	r6, [r9], #-3689	; 0xfffff197
    96e0:	00000000 	andeq	r0, r0, r0

000096e4 <__FUNCTION__.4>:
    96e4:	6c616d6b 	stclvs	13, cr6, [r1], #-428	; 0xfffffe54
    96e8:	5f636f6c 	svcpl	0x00636f6c
    96ec:	7a746f6e 	bvc	1d254ac <__bss_end__+0x1d1bcac>
    96f0:	006f7265 	rsbeq	r7, pc, r5, ror #4

000096f4 <__FUNCTION__.2>:
    96f4:	6c616d6b 	stclvs	13, cr6, [r1], #-428	; 0xfffffe54
    96f8:	00636f6c 	rsbeq	r6, r3, ip, ror #30

000096fc <__FUNCTION__.1>:
    96fc:	6c616d6b 	stclvs	13, cr6, [r1], #-428	; 0xfffffe54
    9700:	5f636f6c 	svcpl	0x00636f6c
    9704:	67696c61 	strbvs	r6, [r9, -r1, ror #24]!
    9708:	0064656e 	rsbeq	r6, r4, lr, ror #10

0000970c <__FUNCTION__.3>:
    970c:	6e756f72 	mrcvs	15, 3, r6, cr5, cr2, {3}
    9710:	00707564 	rsbseq	r7, r0, r4, ror #10

00009714 <__FUNCTION__.0>:
    9714:	6572666b 	ldrbvs	r6, [r2, #-1643]!	; 0xfffff995
    9718:	6f705f65 	svcvs	0x00705f65
    971c:	00000070 	andeq	r0, r0, r0, ror r0
    9720:	696c2f2e 	stmdbvs	ip!, {r1, r2, r3, r5, r8, r9, sl, fp, sp}^
    9724:	6d2f6362 	stcvs	3, cr6, [pc, #-392]!	; 95a4 <__FUNCTION__.4306+0xe4>
    9728:	65736d65 	ldrbvs	r6, [r3, #-3429]!	; 0xfffff29b
    972c:	00632e74 	rsbeq	r2, r3, r4, ror lr

00009730 <__FUNCTION__.3799>:
    9730:	736d656d 	cmnvc	sp, #457179136	; 0x1b400000
    9734:	00007465 	andeq	r7, r0, r5, ror #8
    9738:	696c2f2e 	stmdbvs	ip!, {r1, r2, r3, r5, r8, r9, sl, fp, sp}^
    973c:	702f6362 	eorvc	r6, pc, r2, ror #6
    9740:	746e6972 	strbtvc	r6, [lr], #-2418	; 0xfffff68e
    9744:	00632e6b 	rsbeq	r2, r3, fp, ror #28
    9748:	494e4150 	stmdbmi	lr, {r4, r6, r8, lr}^
    974c:	73253a43 			; <UNDEFINED> instruction: 0x73253a43
    9750:	3a73253a 	bcc	1cd2c40 <__bss_end__+0x1cc9440>
    9754:	693a6425 	ldmdbvs	sl!, {r0, r2, r5, sl, sp, lr}
    9758:	6c61766e 	stclvs	6, cr7, [r1], #-440	; 0xfffffe48
    975c:	62206469 	eorvs	r6, r0, #1761607680	; 0x69000000
    9760:	3d657361 	stclcc	3, cr7, [r5, #-388]!	; 0xfffffe7c
    9764:	0a0a6425 	beq	2a2800 <__bss_end__+0x299000>
    9768:	00000000 	andeq	r0, r0, r0
    976c:	00003130 	andeq	r3, r0, r0, lsr r1
    9770:	33323130 	teqcc	r2, #12
    9774:	37363534 			; <UNDEFINED> instruction: 0x37363534
    9778:	00003938 	andeq	r3, r0, r8, lsr r9
    977c:	33323130 	teqcc	r2, #12
    9780:	37363534 			; <UNDEFINED> instruction: 0x37363534
    9784:	62613938 	rsbvs	r3, r1, #56, 18	; 0xe0000
    9788:	66656463 	strbtvs	r6, [r5], -r3, ror #8
    978c:	00000000 	andeq	r0, r0, r0
    9790:	494e4150 	stmdbmi	lr, {r4, r6, r8, lr}^
    9794:	73253a43 			; <UNDEFINED> instruction: 0x73253a43
    9798:	3a73253a 	bcc	1cd2c88 <__bss_end__+0x1cc9488>
    979c:	623a6425 	eorsvs	r6, sl, #620756992	; 0x25000000
    97a0:	7375676f 	cmnvc	r5, #29097984	; 0x1bc0000
    97a4:	65646920 	strbvs	r6, [r4, #-2336]!	; 0xfffff6e0
    97a8:	6669746e 	strbtvs	r7, [r9], -lr, ror #8
    97ac:	3a726569 	bcc	1ca2d58 <__bss_end__+0x1c99558>
    97b0:	63253c20 			; <UNDEFINED> instruction: 0x63253c20
    97b4:	000a0a3e 	andeq	r0, sl, lr, lsr sl

000097b8 <__FUNCTION__.3811>:
    97b8:	74696d65 	strbtvc	r6, [r9], #-3429	; 0xfffff29b
    97bc:	6c61765f 	stclvs	6, cr7, [r1], #-380	; 0xfffffe84
    97c0:	00000000 	andeq	r0, r0, r0

000097c4 <__FUNCTION__.3834>:
    97c4:	69727076 	ldmdbvs	r2!, {r1, r2, r4, r5, r6, ip, sp, lr}^
    97c8:	006b746e 	rsbeq	r7, fp, lr, ror #8
    97cc:	454e4f44 	strbmi	r4, [lr, #-3908]	; 0xfffff0bc
    97d0:	0a212121 	beq	851c5c <__bss_end__+0x84845c>
	...

Disassembly of section .data:

000097d8 <__data_start__>:
    97d8:	00009800 	andeq	r9, r0, r0, lsl #16

000097dc <heap_start>:
    97dc:	00009800 	andeq	r9, r0, r0, lsl #16

000097e0 <heap_end>:
    97e0:	00209800 	eoreq	r9, r0, r0, lsl #16

Disassembly of section .bss:

000097e4 <__bss_start__>:
    97e4:	00000000 	andeq	r0, r0, r0

000097e8 <size>:
    97e8:	00000000 	andeq	r0, r0, r0

000097ec <cnt>:
    97ec:	00000000 	andeq	r0, r0, r0

000097f0 <last_clk.4324>:
    97f0:	00000000 	andeq	r0, r0, r0

000097f4 <period>:
    97f4:	00000000 	andeq	r0, r0, r0

000097f8 <init_p.8>:
    97f8:	00000000 	andeq	r0, r0, r0

000097fc <init_p.6>:
    97fc:	00000000 	andeq	r0, r0, r0

Disassembly of section .ARM.attributes:

00000000 <.ARM.attributes>:
   0:	00002a41 	andeq	r2, r0, r1, asr #20
   4:	61656100 	cmnvs	r5, r0, lsl #2
   8:	01006962 	tsteq	r0, r2, ror #18
   c:	00000020 	andeq	r0, r0, r0, lsr #32
  10:	4b5a3605 	blmi	168d82c <__bss_end__+0x168402c>
  14:	08070600 	stmdaeq	r7, {r9, sl}
  18:	12010901 	andne	r0, r1, #16384	; 0x4000
  1c:	15011404 	strne	r1, [r1, #-1028]	; 0xfffffbfc
  20:	18031701 	stmdane	r3, {r0, r8, r9, sl, ip}
  24:	22011a01 	andcs	r1, r1, #4096	; 0x1000
  28:	Address 0x0000000000000028 is out of bounds.


Disassembly of section .comment:

00000000 <.comment>:
   0:	3a434347 	bcc	10d0d24 <__bss_end__+0x10c7524>
   4:	4e472820 	cdpmi	8, 4, cr2, cr7, cr0, {1}
   8:	6f542055 	svcvs	0x00542055
   c:	20736c6f 	rsbscs	r6, r3, pc, ror #24
  10:	20726f66 	rsbscs	r6, r2, r6, ror #30
  14:	206d7241 	rsbcs	r7, sp, r1, asr #4
  18:	65626d45 	strbvs	r6, [r2, #-3397]!	; 0xfffff2bb
  1c:	64656464 	strbtvs	r6, [r5], #-1124	; 0xfffffb9c
  20:	6f725020 	svcvs	0x00725020
  24:	73736563 	cmnvc	r3, #415236096	; 0x18c00000
  28:	2073726f 	rsbscs	r7, r3, pc, ror #4
  2c:	30322d39 	eorscc	r2, r2, r9, lsr sp
  30:	712d3931 			; <UNDEFINED> instruction: 0x712d3931
  34:	616d2d34 	cmnvs	sp, r4, lsr sp
  38:	29726f6a 	ldmdbcs	r2!, {r1, r3, r5, r6, r8, r9, sl, fp, sp, lr}^
  3c:	322e3920 	eorcc	r3, lr, #32, 18	; 0x80000
  40:	3220312e 	eorcc	r3, r0, #-2147483637	; 0x8000000b
  44:	31393130 	teqcc	r9, r0, lsr r1
  48:	20353230 	eorscs	r3, r5, r0, lsr r2
  4c:	6c657228 	sfmvs	f7, 2, [r5], #-160	; 0xffffff60
  50:	65736165 	ldrbvs	r6, [r3, #-357]!	; 0xfffffe9b
  54:	415b2029 	cmpmi	fp, r9, lsr #32
  58:	612f4d52 			; <UNDEFINED> instruction: 0x612f4d52
  5c:	392d6d72 	pushcc	{r1, r4, r5, r6, r8, sl, fp, sp, lr}
  60:	6172622d 	cmnvs	r2, sp, lsr #4
  64:	2068636e 	rsbcs	r6, r8, lr, ror #6
  68:	69766572 	ldmdbvs	r6!, {r1, r4, r5, r6, r8, sl, sp, lr}^
  6c:	6e6f6973 			; <UNDEFINED> instruction: 0x6e6f6973
  70:	37373220 	ldrcc	r3, [r7, -r0, lsr #4]!
  74:	5d393935 			; <UNDEFINED> instruction: 0x5d393935
  78:	43434700 	movtmi	r4, #14080	; 0x3700
  7c:	4728203a 			; <UNDEFINED> instruction: 0x4728203a
  80:	4120554e 			; <UNDEFINED> instruction: 0x4120554e
  84:	45206d72 	strmi	r6, [r0, #-3442]!	; 0xfffff28e
  88:	6465626d 	strbtvs	r6, [r5], #-621	; 0xfffffd93
  8c:	20646564 	rsbcs	r6, r4, r4, ror #10
  90:	6c6f6f54 	stclvs	15, cr6, [pc], #-336	; ffffff48 <__bss_end__+0xffff6748>
  94:	69616863 	stmdbvs	r1!, {r0, r1, r5, r6, fp, sp, lr}^
  98:	3031206e 	eorscc	r2, r1, lr, rrx
  9c:	322d332e 	eorcc	r3, sp, #-1207959552	; 0xb8000000
  a0:	2e313230 	mrccs	2, 1, r3, cr1, cr0, {1}
  a4:	20293031 	eorcs	r3, r9, r1, lsr r0
  a8:	332e3031 			; <UNDEFINED> instruction: 0x332e3031
  ac:	3220312e 	eorcc	r3, r0, #-2147483637	; 0x8000000b
  b0:	30313230 	eorscc	r3, r1, r0, lsr r2
  b4:	20343238 	eorscs	r3, r4, r8, lsr r2
  b8:	6c657228 	sfmvs	f7, 2, [r5], #-160	; 0xffffff60
  bc:	65736165 	ldrbvs	r6, [r3, #-357]!	; 0xfffffe9b
  c0:	Address 0x00000000000000c0 is out of bounds.


Disassembly of section .debug_info:

00000000 <.debug_info>:
       0:	00000e11 	andeq	r0, r0, r1, lsl lr
       4:	00000004 	andeq	r0, r0, r4
       8:	01040000 	mrseq	r0, (UNDEF: 4)
       c:	00000021 	andeq	r0, r0, r1, lsr #32
      10:	0003aa0c 	andeq	sl, r3, ip, lsl #20
      14:	00064600 	andeq	r4, r6, r0, lsl #12
      18:	00803800 	addeq	r3, r0, r0, lsl #16
      1c:	00024000 	andeq	r4, r2, r0
      20:	00000000 	andeq	r0, r0, r0
      24:	05040200 	streq	r0, [r4, #-512]	; 0xfffffe00
      28:	00746e69 	rsbseq	r6, r4, r9, ror #28
      2c:	00001203 	andeq	r1, r0, r3, lsl #4
      30:	17d10200 	ldrbne	r0, [r1, r0, lsl #4]
      34:	00000038 	andeq	r0, r0, r8, lsr r0
      38:	23070404 	movwcs	r0, #29700	; 0x7404
      3c:	05000001 	streq	r0, [r0, #-1]
      40:	00000038 	andeq	r0, r0, r8, lsr r0
      44:	e1060104 	tst	r6, r4, lsl #2
      48:	04000004 	streq	r0, [r0], #-4
      4c:	04fb0502 	ldrbteq	r0, [fp], #1282	; 0x502
      50:	04040000 	streq	r0, [r4], #-0
      54:	00018305 	andeq	r8, r1, r5, lsl #6
      58:	05080400 	streq	r0, [r8, #-1024]	; 0xfffffc00
      5c:	0000017e 	andeq	r0, r0, lr, ror r1
      60:	df080104 	svcle	0x00080104
      64:	04000004 	streq	r0, [r0], #-4
      68:	035b0702 	cmpeq	fp, #524288	; 0x80000
      6c:	ab030000 	blge	c0074 <__bss_end__+0xb6874>
      70:	03000005 	movweq	r0, #5
      74:	007a1934 	rsbseq	r1, sl, r4, lsr r9
      78:	04040000 	streq	r0, [r4], #-0
      7c:	00011e07 	andeq	r1, r1, r7, lsl #28
      80:	07080400 	streq	r0, [r8, -r0, lsl #8]
      84:	00000119 	andeq	r0, r0, r9, lsl r1
      88:	c0030406 	andgt	r0, r3, r6, lsl #8
      8c:	04000003 	streq	r0, [r0], #-3
      90:	00961922 	addseq	r1, r6, r2, lsr #18
      94:	04070000 	streq	r0, [r7], #-0
      98:	0000009c 	muleq	r0, ip, r0
      9c:	0005a408 	andeq	sl, r5, r8, lsl #8
      a0:	048c0300 	streq	r0, [ip], #768	; 0x300
      a4:	2c050000 	stccs	0, cr0, [r5], {-0}
      a8:	0000520e 	andeq	r5, r0, lr, lsl #4
      ac:	05bf0300 	ldreq	r0, [pc, #768]!	; 3b4 <__code_start__-0x7c4c>
      b0:	72050000 	andvc	r0, r5, #0, 0
      b4:	0000520e 	andeq	r5, r0, lr, lsl #4
      b8:	03c80900 	biceq	r0, r8, #0, 18
      bc:	5e020000 	cdppl	0, 0, cr0, cr2, cr0, {0}
      c0:	00381701 	eorseq	r1, r8, r1, lsl #14
      c4:	040a0000 	streq	r0, [sl], #-0
      c8:	e803a605 	stmda	r3, {r0, r2, r9, sl, sp, pc}
      cc:	0b000000 	bleq	d4 <__code_start__-0x7f2c>
      d0:	000003a4 	andeq	r0, r0, r4, lsr #7
      d4:	b90ca805 	stmdblt	ip, {r0, r2, fp, sp, pc}
      d8:	0b000000 	bleq	e0 <__code_start__-0x7f20>
      dc:	000002f6 	strdeq	r0, [r0], -r6
      e0:	e813a905 	ldmda	r3, {r0, r2, r8, fp, sp, pc}
      e4:	00000000 	andeq	r0, r0, r0
      e8:	0000600c 	andeq	r6, r0, ip
      ec:	0000f800 	andeq	pc, r0, r0, lsl #16
      f0:	00380d00 	eorseq	r0, r8, r0, lsl #26
      f4:	00030000 	andeq	r0, r3, r0
      f8:	a305080e 	movwge	r0, #22542	; 0x580e
      fc:	00011c09 	andeq	r1, r1, r9, lsl #24
     100:	059c0f00 	ldreq	r0, [ip, #3840]	; 0xf00
     104:	a5050000 	strge	r0, [r5, #-0]
     108:	00002507 	andeq	r2, r0, r7, lsl #10
     10c:	1b0f0000 	blne	3c0114 <__bss_end__+0x3b6914>
     110:	05000006 	streq	r0, [r0, #-6]
     114:	00c605aa 	sbceq	r0, r6, sl, lsr #11
     118:	00040000 	andeq	r0, r4, r0
     11c:	00052303 	andeq	r2, r5, r3, lsl #6
     120:	03ab0500 			; <UNDEFINED> instruction: 0x03ab0500
     124:	000000f8 	strdeq	r0, [r0], -r8
     128:	0002ab03 	andeq	sl, r2, r3, lsl #22
     12c:	1baf0500 	blne	febc1534 <__bss_end__+0xfebb7d34>
     130:	0000008a 	andeq	r0, r0, sl, lsl #1
     134:	013a0407 	teqeq	sl, r7, lsl #8
     138:	01040000 	mrseq	r0, (UNDEF: 4)
     13c:	0004e808 	andeq	lr, r4, r8, lsl #16
     140:	013a1000 	teqeq	sl, r0
     144:	84030000 	strhi	r0, [r3], #-0
     148:	06000006 	streq	r0, [r0], -r6
     14c:	007a1916 	rsbseq	r1, sl, r6, lsl r9
     150:	bc110000 	ldclt	0, cr0, [r1], {-0}
     154:	18000002 	stmdane	r0, {r1}
     158:	ac082f06 	stcge	15, cr2, [r8], {6}
     15c:	0f000001 	svceq	0x00000001
     160:	00000544 	andeq	r0, r0, r4, asr #10
     164:	ac133106 	ldfges	f3, [r3], {6}
     168:	00000001 	andeq	r0, r0, r1
     16c:	006b5f12 	rsbeq	r5, fp, r2, lsl pc
     170:	25073206 	strcs	r3, [r7, #-518]	; 0xfffffdfa
     174:	04000000 	streq	r0, [r0], #-0
     178:	0005870f 	andeq	r8, r5, pc, lsl #14
     17c:	0b320600 	bleq	c81984 <__bss_end__+0xc78184>
     180:	00000025 	andeq	r0, r0, r5, lsr #32
     184:	029a0f08 	addseq	r0, sl, #8, 30
     188:	32060000 	andcc	r0, r6, #0, 0
     18c:	00002514 	andeq	r2, r0, r4, lsl r5
     190:	eb0f0c00 	bl	3c3198 <__bss_end__+0x3b9998>
     194:	06000006 	streq	r0, [r0], -r6
     198:	00251b32 	eoreq	r1, r5, r2, lsr fp
     19c:	12100000 	andsne	r0, r0, #0, 0
     1a0:	0600785f 			; <UNDEFINED> instruction: 0x0600785f
     1a4:	01b20b33 			; <UNDEFINED> instruction: 0x01b20b33
     1a8:	00140000 	andseq	r0, r4, r0
     1ac:	01520407 	cmpeq	r2, r7, lsl #8
     1b0:	460c0000 	strmi	r0, [ip], -r0
     1b4:	c2000001 	andgt	r0, r0, #1, 0
     1b8:	0d000001 	stceq	0, cr0, [r0, #-4]
     1bc:	00000038 	andeq	r0, r0, r8, lsr r0
     1c0:	f1110000 			; <UNDEFINED> instruction: 0xf1110000
     1c4:	24000002 	strcs	r0, [r0], #-2
     1c8:	45083706 	strmi	r3, [r8, #-1798]	; 0xfffff8fa
     1cc:	0f000002 	svceq	0x00000002
     1d0:	00000175 	andeq	r0, r0, r5, ror r1
     1d4:	25093906 	strcs	r3, [r9, #-2310]	; 0xfffff6fa
     1d8:	00000000 	andeq	r0, r0, r0
     1dc:	0005c70f 	andeq	ip, r5, pc, lsl #14
     1e0:	093a0600 	ldmdbeq	sl!, {r9, sl}
     1e4:	00000025 	andeq	r0, r0, r5, lsr #32
     1e8:	01980f04 	orrseq	r0, r8, r4, lsl #30
     1ec:	3b060000 	blcc	1801f4 <__bss_end__+0x1769f4>
     1f0:	00002509 	andeq	r2, r0, r9, lsl #10
     1f4:	a20f0800 	andge	r0, pc, #0, 16
     1f8:	06000007 	streq	r0, [r0], -r7
     1fc:	0025093c 	eoreq	r0, r5, ip, lsr r9
     200:	0f0c0000 	svceq	0x000c0000
     204:	0000045b 	andeq	r0, r0, fp, asr r4
     208:	25093d06 	strcs	r3, [r9, #-3334]	; 0xfffff2fa
     20c:	10000000 	andne	r0, r0, r0
     210:	0003dc0f 	andeq	sp, r3, pc, lsl #24
     214:	093e0600 	ldmdbeq	lr!, {r9, sl}
     218:	00000025 	andeq	r0, r0, r5, lsr #32
     21c:	06f00f14 	usateq	r0, #16, r4, lsl #30
     220:	3f060000 	svccc	0x00060000
     224:	00002509 	andeq	r2, r0, r9, lsl #10
     228:	050f1800 	streq	r1, [pc, #-2048]	; fffffa30 <__bss_end__+0xffff6230>
     22c:	06000005 	streq	r0, [r0], -r5
     230:	00250940 	eoreq	r0, r5, r0, asr #18
     234:	0f1c0000 	svceq	0x001c0000
     238:	0000074f 	andeq	r0, r0, pc, asr #14
     23c:	25094106 	strcs	r4, [r9, #-262]	; 0xfffffefa
     240:	20000000 	andcs	r0, r0, r0
     244:	01c01300 	biceq	r1, r0, r0, lsl #6
     248:	01080000 	mrseq	r0, (UNDEF: 8)
     24c:	8a084a06 	bhi	212a6c <__bss_end__+0x20926c>
     250:	0f000002 	svceq	0x00000002
     254:	0000028d 	andeq	r0, r0, sp, lsl #5
     258:	8a0a4b06 	bhi	292e78 <__bss_end__+0x289678>
     25c:	00000002 	andeq	r0, r0, r2
     260:	0000000f 	andeq	r0, r0, pc
     264:	094c0600 	stmdbeq	ip, {r9, sl}^
     268:	0000028a 	andeq	r0, r0, sl, lsl #5
     26c:	06231480 	strteq	r1, [r3], -r0, lsl #9
     270:	4e060000 	cdpmi	0, 0, cr0, cr6, cr0, {0}
     274:	0001460a 	andeq	r4, r1, sl, lsl #12
     278:	14010000 	strne	r0, [r1], #-0
     27c:	00000200 	andeq	r0, r0, r0, lsl #4
     280:	460a5106 	strmi	r5, [sl], -r6, lsl #2
     284:	04000001 	streq	r0, [r0], #-1
     288:	880c0001 	stmdahi	ip, {r0}
     28c:	9a000000 	bls	294 <__code_start__-0x7d6c>
     290:	0d000002 	stceq	0, cr0, [r0, #-8]
     294:	00000038 	andeq	r0, r0, r8, lsr r0
     298:	6d13001f 	ldcvs	0, cr0, [r3, #-124]	; 0xffffff84
     29c:	90000004 	andls	r0, r0, r4
     2a0:	085d0601 	ldmdaeq	sp, {r0, r9, sl}^
     2a4:	000002dd 	ldrdeq	r0, [r0], -sp
     2a8:	0005440f 	andeq	r4, r5, pc, lsl #8
     2ac:	125e0600 	subsne	r0, lr, #0, 12
     2b0:	000002dd 	ldrdeq	r0, [r0], -sp
     2b4:	05570f00 	ldrbeq	r0, [r7, #-3840]	; 0xfffff100
     2b8:	5f060000 	svcpl	0x00060000
     2bc:	00002506 	andeq	r2, r0, r6, lsl #10
     2c0:	950f0400 	strls	r0, [pc, #-1024]	; fffffec8 <__bss_end__+0xffff66c8>
     2c4:	06000002 	streq	r0, [r0], -r2
     2c8:	02e30961 	rsceq	r0, r3, #1589248	; 0x184000
     2cc:	0f080000 	svceq	0x00080000
     2d0:	000001c0 	andeq	r0, r0, r0, asr #3
     2d4:	451e6206 	ldrmi	r6, [lr, #-518]	; 0xfffffdfa
     2d8:	88000002 	stmdahi	r0, {r1}
     2dc:	9a040700 	bls	101ee4 <__bss_end__+0xf86e4>
     2e0:	0c000002 	stceq	0, cr0, [r0], {2}
     2e4:	000002f3 	strdeq	r0, [r0], -r3
     2e8:	000002f3 	strdeq	r0, [r0], -r3
     2ec:	0000380d 	andeq	r3, r0, sp, lsl #16
     2f0:	07001f00 	streq	r1, [r0, -r0, lsl #30]
     2f4:	0002f904 	andeq	pc, r2, r4, lsl #18
     2f8:	0f111500 	svceq	0x00111500
     2fc:	08000005 	stmdaeq	r0, {r0, r2}
     300:	22087506 	andcs	r7, r8, #25165824	; 0x1800000
     304:	0f000003 	svceq	0x00000003
     308:	00000192 	muleq	r0, r2, r1
     30c:	22117606 	andscs	r7, r1, #6291456	; 0x600000
     310:	00000003 	andeq	r0, r0, r3
     314:	00000c0f 	andeq	r0, r0, pc, lsl #24
     318:	06770600 	ldrbteq	r0, [r7], -r0, lsl #12
     31c:	00000025 	andeq	r0, r0, r5, lsr #32
     320:	04070004 	streq	r0, [r7], #-4
     324:	00000060 	andeq	r0, r0, r0, rrx
     328:	00052e11 	andeq	r2, r5, r1, lsl lr
     32c:	b5066800 	strlt	r6, [r6, #-2048]	; 0xfffff800
     330:	00046b08 	andeq	r6, r4, r8, lsl #22
     334:	705f1200 	subsvc	r1, pc, r0, lsl #4
     338:	12b60600 	adcsne	r0, r6, #0, 12
     33c:	00000322 	andeq	r0, r0, r2, lsr #6
     340:	725f1200 	subsvc	r1, pc, #0, 4
     344:	07b70600 	ldreq	r0, [r7, r0, lsl #12]!
     348:	00000025 	andeq	r0, r0, r5, lsr #32
     34c:	775f1204 	ldrbvc	r1, [pc, -r4, lsl #4]
     350:	07b80600 	ldreq	r0, [r8, r0, lsl #12]!
     354:	00000025 	andeq	r0, r0, r5, lsr #32
     358:	01f90f08 	mvnseq	r0, r8, lsl #30
     35c:	b9060000 	stmdblt	r6, {}	; <UNPREDICTABLE>
     360:	00004b09 	andeq	r4, r0, r9, lsl #22
     364:	0d0f0c00 	stceq	12, cr0, [pc, #-0]	; 36c <__code_start__-0x7c94>
     368:	06000003 	streq	r0, [r0], -r3
     36c:	004b09ba 	strheq	r0, [fp], #-154	; 0xffffff66
     370:	120e0000 	andne	r0, lr, #0, 0
     374:	0066625f 	rsbeq	r6, r6, pc, asr r2
     378:	fa11bb06 	blx	46ef98 <__bss_end__+0x465798>
     37c:	10000002 	andne	r0, r0, r2
     380:	00013b0f 	andeq	r3, r1, pc, lsl #22
     384:	07bc0600 	ldreq	r0, [ip, r0, lsl #12]!
     388:	00000025 	andeq	r0, r0, r5, lsr #32
     38c:	01e90f18 	mvneq	r0, r8, lsl pc
     390:	c3060000 	movwgt	r0, #24576	; 0x6000
     394:	0000880a 	andeq	r8, r0, sl, lsl #16
     398:	d10f1c00 	tstle	pc, r0, lsl #24
     39c:	0600000e 	streq	r0, [r0], -lr
     3a0:	05dd1dc5 	ldrbeq	r1, [sp, #3525]	; 0xdc5
     3a4:	0f200000 	svceq	0x00200000
     3a8:	00000eb1 			; <UNDEFINED> instruction: 0x00000eb1
     3ac:	071dc706 	ldreq	ip, [sp, -r6, lsl #14]
     3b0:	24000006 	strcs	r0, [r0], #-6
     3b4:	0005b40f 	andeq	fp, r5, pc, lsl #8
     3b8:	0dca0600 	stcleq	6, cr0, [sl]
     3bc:	0000062b 	andeq	r0, r0, fp, lsr #12
     3c0:	07690f28 	strbeq	r0, [r9, -r8, lsr #30]!
     3c4:	cb060000 	blgt	1803cc <__bss_end__+0x176bcc>
     3c8:	00064509 	andeq	r4, r6, r9, lsl #10
     3cc:	5f122c00 	svcpl	0x00122c00
     3d0:	06006275 			; <UNDEFINED> instruction: 0x06006275
     3d4:	02fa11ce 	rscseq	r1, sl, #-2147483597	; 0x80000033
     3d8:	12300000 	eorsne	r0, r0, #0, 0
     3dc:	0070755f 	rsbseq	r7, r0, pc, asr r5
     3e0:	2212cf06 	andscs	ip, r2, #6, 30
     3e4:	38000003 	stmdacc	r0, {r0, r1}
     3e8:	72755f12 	rsbsvc	r5, r5, #72	; 0x48
     3ec:	07d00600 	ldrbeq	r0, [r0, r0, lsl #12]
     3f0:	00000025 	andeq	r0, r0, r5, lsr #32
     3f4:	018c0f3c 	orreq	r0, ip, ip, lsr pc
     3f8:	d3060000 	movwle	r0, #24576	; 0x6000
     3fc:	00064b11 	andeq	r4, r6, r1, lsl fp
     400:	320f4000 	andcc	r4, pc, #0, 0
     404:	06000007 	streq	r0, [r0], -r7
     408:	065b11d4 			; <UNDEFINED> instruction: 0x065b11d4
     40c:	12430000 	subne	r0, r3, #0, 0
     410:	00626c5f 	rsbeq	r6, r2, pc, asr ip
     414:	fa11d706 	blx	476034 <__bss_end__+0x46c834>
     418:	44000002 	strmi	r0, [r0], #-2
     41c:	0002170f 	andeq	r1, r2, pc, lsl #14
     420:	07da0600 	ldrbeq	r0, [sl, r0, lsl #12]
     424:	00000025 	andeq	r0, r0, r5, lsr #32
     428:	024f0f4c 	subeq	r0, pc, #76, 30	; 0x130
     42c:	db060000 	blle	180434 <__bss_end__+0x176c34>
     430:	0000a10a 	andeq	sl, r0, sl, lsl #2
     434:	340f5000 	strcc	r5, [pc], #-0	; 43c <__code_start__-0x7bc4>
     438:	0600000e 	streq	r0, [r0], -lr
     43c:	048912de 	streq	r1, [r9], #734	; 0x2de
     440:	0f540000 	svceq	0x00540000
     444:	000005a5 	andeq	r0, r0, r5, lsr #11
     448:	280ce206 	stmdacs	ip, {r1, r2, r9, sp, lr, pc}
     44c:	58000001 	stmdapl	r0, {r0}
     450:	0005360f 	andeq	r3, r5, pc, lsl #12
     454:	0ee40600 	cdpeq	6, 14, cr0, cr4, cr0, {0}
     458:	0000011c 	andeq	r0, r0, ip, lsl r1
     45c:	03cf0f5c 	biceq	r0, pc, #92, 30	; 0x170
     460:	e5060000 	str	r0, [r6, #-0]
     464:	00002509 	andeq	r2, r0, r9, lsl #10
     468:	16006400 	strne	r6, [r0], -r0, lsl #8
     46c:	00000025 	andeq	r0, r0, r5, lsr #32
     470:	00000489 	andeq	r0, r0, r9, lsl #9
     474:	00048917 	andeq	r8, r4, r7, lsl r9
     478:	00881700 	addeq	r1, r8, r0, lsl #14
     47c:	34170000 	ldrcc	r0, [r7], #-0
     480:	17000001 	strne	r0, [r0, -r1]
     484:	00000025 	andeq	r0, r0, r5, lsr #32
     488:	94040700 	strls	r0, [r4], #-1792	; 0xfffff900
     48c:	10000004 	andne	r0, r0, r4
     490:	00000489 	andeq	r0, r0, r9, lsl #9
     494:	00058f18 	andeq	r8, r5, r8, lsl pc
     498:	06042800 	streq	r2, [r4], -r0, lsl #16
     49c:	dd080260 	sfmle	f0, 4, [r8, #-384]	; 0xfffffe80
     4a0:	19000005 	stmdbne	r0, {r0, r2}
     4a4:	000004f4 	strdeq	r0, [r0], -r4
     4a8:	07026206 	streq	r6, [r2, -r6, lsl #4]
     4ac:	00000025 	andeq	r0, r0, r5, lsr #32
     4b0:	02081900 	andeq	r1, r8, #0, 18
     4b4:	67060000 	strvs	r0, [r6, -r0]
     4b8:	06b70b02 	ldrteq	r0, [r7], r2, lsl #22
     4bc:	19040000 	stmdbne	r4, {}	; <UNPREDICTABLE>
     4c0:	000002fd 	strdeq	r0, [r0], -sp
     4c4:	14026706 	strne	r6, [r2], #-1798	; 0xfffff8fa
     4c8:	000006b7 			; <UNDEFINED> instruction: 0x000006b7
     4cc:	02b41908 	adcseq	r1, r4, #8, 18	; 0x20000
     4d0:	67060000 	strvs	r0, [r6, -r0]
     4d4:	06b71e02 	ldrteq	r1, [r7], r2, lsl #28
     4d8:	190c0000 	stmdbne	ip, {}	; <UNPREDICTABLE>
     4dc:	000005e2 	andeq	r0, r0, r2, ror #11
     4e0:	08026906 	stmdaeq	r2, {r1, r2, r8, fp, sp, lr}
     4e4:	00000025 	andeq	r0, r0, r5, lsr #32
     4e8:	05f61910 	ldrbeq	r1, [r6, #2320]!	; 0x910
     4ec:	6a060000 	bvs	1804f4 <__bss_end__+0x176cf4>
     4f0:	08b70802 	ldmeq	r7!, {r1, fp}
     4f4:	19140000 	ldmdbne	r4, {}	; <UNPREDICTABLE>
     4f8:	0000056e 	andeq	r0, r0, lr, ror #10
     4fc:	07026d06 	streq	r6, [r2, -r6, lsl #26]
     500:	00000025 	andeq	r0, r0, r5, lsr #32
     504:	055c1930 	ldrbeq	r1, [ip, #-2352]	; 0xfffff6d0
     508:	6e060000 	cdpvs	0, 0, cr0, cr6, cr0, {0}
     50c:	08cc1602 	stmiaeq	ip, {r1, r9, sl, ip}^
     510:	19340000 	ldmdbne	r4!, {}	; <UNPREDICTABLE>
     514:	00000481 	andeq	r0, r0, r1, lsl #9
     518:	07027006 	streq	r7, [r2, -r6]
     51c:	00000025 	andeq	r0, r0, r5, lsr #32
     520:	05641938 	strbeq	r1, [r4, #-2360]!	; 0xfffff6c8
     524:	72060000 	andvc	r0, r6, #0, 0
     528:	08dd0a02 	ldmeq	sp, {r1, r9, fp}^
     52c:	193c0000 	ldmdbne	ip!, {}	; <UNPREDICTABLE>
     530:	0000039c 	muleq	r0, ip, r3
     534:	13027506 	movwne	r7, #9478	; 0x2506
     538:	000001ac 	andeq	r0, r0, ip, lsr #3
     53c:	02d31940 	sbcseq	r1, r3, #64, 18	; 0x100000
     540:	76060000 	strvc	r0, [r6], -r0
     544:	00250702 	eoreq	r0, r5, r2, lsl #14
     548:	19440000 	stmdbne	r4, {}^	; <UNPREDICTABLE>
     54c:	00000783 	andeq	r0, r0, r3, lsl #15
     550:	13027706 	movwne	r7, #9990	; 0x2706
     554:	000001ac 	andeq	r0, r0, ip, lsr #3
     558:	04a01948 	strteq	r1, [r0], #2376	; 0x948
     55c:	78060000 	stmdavc	r6, {}	; <UNPREDICTABLE>
     560:	08e31402 	stmiaeq	r3!, {r1, sl, ip}^
     564:	194c0000 	stmdbne	ip, {}^	; <UNPREDICTABLE>
     568:	00000305 	andeq	r0, r0, r5, lsl #6
     56c:	07027b06 	streq	r7, [r2, -r6, lsl #22]
     570:	00000025 	andeq	r0, r0, r5, lsr #32
     574:	02471950 	subeq	r1, r7, #80, 18	; 0x140000
     578:	7c060000 	stcvc	0, cr0, [r6], {-0}
     57c:	01340902 	teqeq	r4, r2, lsl #18
     580:	19540000 	ldmdbne	r4, {}^	; <UNPREDICTABLE>
     584:	000004ed 	andeq	r0, r0, sp, ror #9
     588:	07029f06 	streq	r9, [r2, -r6, lsl #30]
     58c:	00000892 	muleq	r0, r2, r8
     590:	046d1a58 	strbteq	r1, [sp], #-2648	; 0xfffff5a8
     594:	a3060000 	movwge	r0, #24576	; 0x6000
     598:	02dd1302 	sbcseq	r1, sp, #134217728	; 0x8000000
     59c:	01480000 	mrseq	r0, (UNDEF: 72)
     5a0:	00036e1a 	andeq	r6, r3, sl, lsl lr
     5a4:	02a40600 	adceq	r0, r4, #0, 12
     5a8:	00029a12 	andeq	r9, r2, r2, lsl sl
     5ac:	1a014c00 	bne	535b4 <__bss_end__+0x49db4>
     5b0:	0000071f 	andeq	r0, r0, pc, lsl r7
     5b4:	0c02a806 	stceq	8, cr10, [r2], {6}
     5b8:	000008f4 	strdeq	r0, [r0], -r4
     5bc:	f11a02dc 			; <UNDEFINED> instruction: 0xf11a02dc
     5c0:	06000001 	streq	r0, [r0], -r1
     5c4:	781002ad 	ldmdavc	r0, {r0, r2, r3, r5, r7, r9}
     5c8:	e0000006 	and	r0, r0, r6
     5cc:	01bb1a02 			; <UNDEFINED> instruction: 0x01bb1a02
     5d0:	af060000 	svcge	0x00060000
     5d4:	09000a02 	stmdbeq	r0, {r1, r9, fp}
     5d8:	02ec0000 	rsceq	r0, ip, #0, 0
     5dc:	6b040700 	blvs	1021e4 <__bss_end__+0xf89e4>
     5e0:	16000004 	strne	r0, [r0], -r4
     5e4:	00000025 	andeq	r0, r0, r5, lsr #32
     5e8:	00000601 	andeq	r0, r0, r1, lsl #12
     5ec:	00048917 	andeq	r8, r4, r7, lsl r9
     5f0:	00881700 	addeq	r1, r8, r0, lsl #14
     5f4:	01170000 	tsteq	r7, r0
     5f8:	17000006 	strne	r0, [r0, -r6]
     5fc:	00000025 	andeq	r0, r0, r5, lsr #32
     600:	41040700 	tstmi	r4, r0, lsl #14
     604:	07000001 	streq	r0, [r0, -r1]
     608:	0005e304 	andeq	lr, r5, r4, lsl #6
     60c:	00ad1600 	adceq	r1, sp, r0, lsl #12
     610:	062b0000 	strteq	r0, [fp], -r0
     614:	89170000 	ldmdbhi	r7, {}	; <UNPREDICTABLE>
     618:	17000004 	strne	r0, [r0, -r4]
     61c:	00000088 	andeq	r0, r0, r8, lsl #1
     620:	0000ad17 	andeq	sl, r0, r7, lsl sp
     624:	00251700 	eoreq	r1, r5, r0, lsl #14
     628:	07000000 	streq	r0, [r0, -r0]
     62c:	00060d04 	andeq	r0, r6, r4, lsl #26
     630:	00251600 	eoreq	r1, r5, r0, lsl #12
     634:	06450000 	strbeq	r0, [r5], -r0
     638:	89170000 	ldmdbhi	r7, {}	; <UNPREDICTABLE>
     63c:	17000004 	strne	r0, [r0, -r4]
     640:	00000088 	andeq	r0, r0, r8, lsl #1
     644:	31040700 	tstcc	r4, r0, lsl #14
     648:	0c000006 	stceq	0, cr0, [r0], {6}
     64c:	00000060 	andeq	r0, r0, r0, rrx
     650:	0000065b 	andeq	r0, r0, fp, asr r6
     654:	0000380d 	andeq	r3, r0, sp, lsl #16
     658:	0c000200 	sfmeq	f0, 4, [r0], {-0}
     65c:	00000060 	andeq	r0, r0, r0, rrx
     660:	0000066b 	andeq	r0, r0, fp, ror #12
     664:	0000380d 	andeq	r3, r0, sp, lsl #16
     668:	09000000 	stmdbeq	r0, {}	; <UNPREDICTABLE>
     66c:	0000051c 	andeq	r0, r0, ip, lsl r5
     670:	1a011f06 	bne	48290 <__bss_end__+0x3ea90>
     674:	00000328 	andeq	r0, r0, r8, lsr #6
     678:	0006fa1b 	andeq	pc, r6, fp, lsl sl	; <UNPREDICTABLE>
     67c:	23060c00 	movwcs	r0, #27648	; 0x6c00
     680:	06b10801 	ldrteq	r0, [r1], r1, lsl #16
     684:	44190000 	ldrmi	r0, [r9], #-0
     688:	06000005 	streq	r0, [r0], -r5
     68c:	b1110125 	tstlt	r1, r5, lsr #2
     690:	00000006 	andeq	r0, r0, r6
     694:	00034119 	andeq	r4, r3, r9, lsl r1
     698:	01260600 			; <UNDEFINED> instruction: 0x01260600
     69c:	00002507 	andeq	r2, r0, r7, lsl #10
     6a0:	16190400 	ldrne	r0, [r9], -r0, lsl #8
     6a4:	06000005 	streq	r0, [r0], -r5
     6a8:	b70b0127 	strlt	r0, [fp, -r7, lsr #2]
     6ac:	08000006 	stmdaeq	r0, {r1, r2}
     6b0:	78040700 	stmdavc	r4, {r8, r9, sl}
     6b4:	07000006 	streq	r0, [r0, -r6]
     6b8:	00066b04 	andeq	r6, r6, r4, lsl #22
     6bc:	00191b00 	andseq	r1, r9, r0, lsl #22
     6c0:	060e0000 	streq	r0, [lr], -r0
     6c4:	f608013f 			; <UNDEFINED> instruction: 0xf608013f
     6c8:	19000006 	stmdbne	r0, {r1, r2}
     6cc:	00000596 	muleq	r0, r6, r5
     6d0:	12014006 	andne	r4, r1, #6, 0
     6d4:	000006f6 	strdeq	r0, [r0], -r6
     6d8:	06011900 	streq	r1, [r1], -r0, lsl #18
     6dc:	41060000 	mrsmi	r0, (UNDEF: 6)
     6e0:	06f61201 	ldrbteq	r1, [r6], r1, lsl #4
     6e4:	19060000 	stmdbne	r6, {}	; <UNPREDICTABLE>
     6e8:	00000641 	andeq	r0, r0, r1, asr #12
     6ec:	12014206 	andne	r4, r1, #1610612736	; 0x60000000
     6f0:	00000067 	andeq	r0, r0, r7, rrx
     6f4:	670c000c 	strvs	r0, [ip, -ip]
     6f8:	06000000 	streq	r0, [r0], -r0
     6fc:	0d000007 	stceq	0, cr0, [r0, #-28]	; 0xffffffe4
     700:	00000038 	andeq	r0, r0, r8, lsr r0
     704:	d01c0002 	andsle	r0, ip, r2
     708:	07028006 	streq	r8, [r2, -r6]
     70c:	0000081b 	andeq	r0, r0, fp, lsl r8
     710:	0006cf19 	andeq	ip, r6, r9, lsl pc
     714:	02820600 	addeq	r0, r2, #0, 12
     718:	00003818 	andeq	r3, r0, r8, lsl r8
     71c:	0e190000 	cdpeq	0, 1, cr0, cr9, cr0, {0}
     720:	06000006 	streq	r0, [r0], -r6
     724:	34120283 	ldrcc	r0, [r2], #-643	; 0xfffffd7d
     728:	04000001 	streq	r0, [r0], #-1
     72c:	00038319 	andeq	r8, r3, r9, lsl r3
     730:	02840600 	addeq	r0, r4, #0, 12
     734:	00081b10 	andeq	r1, r8, r0, lsl fp
     738:	5a190800 	bpl	642740 <__bss_end__+0x638f40>
     73c:	06000007 	streq	r0, [r0], -r7
     740:	c2170285 	andsgt	r0, r7, #1342177288	; 0x50000008
     744:	24000001 	strcs	r0, [r0], #-1
     748:	0002c419 	andeq	ip, r2, r9, lsl r4
     74c:	02860600 	addeq	r0, r6, #0, 12
     750:	0000250f 	andeq	r2, r0, pc, lsl #10
     754:	3f194800 	svccc	0x00194800
     758:	06000005 	streq	r0, [r0], -r5
     75c:	812c0287 	smlawbhi	ip, r7, r2, r0
     760:	50000000 	andpl	r0, r0, r0
     764:	00077019 	andeq	r7, r7, r9, lsl r0
     768:	02880600 	addeq	r0, r8, #0, 12
     76c:	0006bd1a 	andeq	fp, r6, sl, lsl sp
     770:	4a195800 	bmi	656778 <__bss_end__+0x64cf78>
     774:	06000005 	streq	r0, [r0], -r5
     778:	1c160289 	lfmne	f0, 4, [r6], {137}	; 0x89
     77c:	68000001 	stmdavs	r0, {r0}
     780:	00077519 	andeq	r7, r7, r9, lsl r5
     784:	028a0600 	addeq	r0, sl, #0, 12
     788:	00011c16 	andeq	r1, r1, r6, lsl ip
     78c:	bc197000 	ldclt	0, cr7, [r9], {-0}
     790:	06000004 	streq	r0, [r0], -r4
     794:	1c16028b 	lfmne	f0, 4, [r6], {139}	; 0x8b
     798:	78000001 	stmdavc	r0, {r0}
     79c:	00071519 	andeq	r1, r7, r9, lsl r5
     7a0:	028c0600 	addeq	r0, ip, #0, 12
     7a4:	00082b10 	andeq	r2, r8, r0, lsl fp
     7a8:	77198000 	ldrvc	r8, [r9, -r0]
     7ac:	06000003 	streq	r0, [r0], -r3
     7b0:	3b10028d 	blcc	4011ec <__bss_end__+0x3f79ec>
     7b4:	88000008 	stmdahi	r0, {r3}
     7b8:	00068c19 	andeq	r8, r6, r9, lsl ip
     7bc:	028e0600 	addeq	r0, lr, #0, 12
     7c0:	0000250f 	andeq	r2, r0, pc, lsl #10
     7c4:	7f19a000 	svcvc	0x0019a000
     7c8:	06000002 	streq	r0, [r0], -r2
     7cc:	1c16028f 	lfmne	f0, 4, [r6], {143}	; 0x8f
     7d0:	a4000001 	strge	r0, [r0], #-1
     7d4:	00015e19 	andeq	r5, r1, r9, lsl lr
     7d8:	02900600 	addseq	r0, r0, #0, 12
     7dc:	00011c16 	andeq	r1, r1, r6, lsl ip
     7e0:	6e19ac00 	cdpvs	12, 1, cr10, cr9, cr0, {0}
     7e4:	06000002 	streq	r0, [r0], -r2
     7e8:	1c160291 	lfmne	f0, 4, [r6], {145}	; 0x91
     7ec:	b4000001 	strlt	r0, [r0], #-1
     7f0:	0000f919 	andeq	pc, r0, r9, lsl r9	; <UNPREDICTABLE>
     7f4:	02920600 	addseq	r0, r2, #0, 12
     7f8:	00011c16 	andeq	r1, r1, r6, lsl ip
     7fc:	0819bc00 	ldmdaeq	r9, {sl, fp, ip, sp, pc}
     800:	06000001 	streq	r0, [r0], -r1
     804:	1c160293 	lfmne	f0, 4, [r6], {147}	; 0x93
     808:	c4000001 	strgt	r0, [r0], #-1
     80c:	0004f219 	andeq	pc, r4, r9, lsl r2	; <UNPREDICTABLE>
     810:	02940600 	addseq	r0, r4, #0, 12
     814:	00002508 	andeq	r2, r0, r8, lsl #10
     818:	0c00cc00 	stceq	12, cr12, [r0], {-0}
     81c:	0000013a 	andeq	r0, r0, sl, lsr r1
     820:	0000082b 	andeq	r0, r0, fp, lsr #16
     824:	0000380d 	andeq	r3, r0, sp, lsl #16
     828:	0c001900 			; <UNDEFINED> instruction: 0x0c001900
     82c:	0000013a 	andeq	r0, r0, sl, lsr r1
     830:	0000083b 	andeq	r0, r0, fp, lsr r8
     834:	0000380d 	andeq	r3, r0, sp, lsl #16
     838:	0c000700 	stceq	7, cr0, [r0], {-0}
     83c:	0000013a 	andeq	r0, r0, sl, lsr r1
     840:	0000084b 	andeq	r0, r0, fp, asr #16
     844:	0000380d 	andeq	r3, r0, sp, lsl #16
     848:	1c001700 	stcne	7, cr1, [r0], {-0}
     84c:	029906f0 	addseq	r0, r9, #240, 12	; 0xf000000
     850:	00087207 	andeq	r7, r8, r7, lsl #4
     854:	042f1900 	strteq	r1, [pc], #-2304	; 85c <__code_start__-0x77a4>
     858:	9c060000 	stcls	0, cr0, [r6], {-0}
     85c:	08721b02 	ldmdaeq	r2!, {r1, r8, r9, fp, ip}^
     860:	19000000 	stmdbne	r0, {}	; <UNPREDICTABLE>
     864:	0000070c 	andeq	r0, r0, ip, lsl #14
     868:	18029d06 	stmdane	r2, {r1, r2, r8, sl, fp, ip, pc}
     86c:	00000882 	andeq	r0, r0, r2, lsl #17
     870:	220c0078 	andcs	r0, ip, #120, 0	; 0x78
     874:	82000003 	andhi	r0, r0, #3, 0
     878:	0d000008 	stceq	0, cr0, [r0, #-32]	; 0xffffffe0
     87c:	00000038 	andeq	r0, r0, r8, lsr r0
     880:	380c001d 	stmdacc	ip, {r0, r2, r3, r4}
     884:	92000000 	andls	r0, r0, #0, 0
     888:	0d000008 	stceq	0, cr0, [r0, #-32]	; 0xffffffe0
     88c:	00000038 	andeq	r0, r0, r8, lsr r0
     890:	f01d001d 			; <UNDEFINED> instruction: 0xf01d001d
     894:	03027e06 	movweq	r7, #11782	; 0x2e06
     898:	000008b7 			; <UNDEFINED> instruction: 0x000008b7
     89c:	00058f1e 	andeq	r8, r5, lr, lsl pc
     8a0:	02950600 	addseq	r0, r5, #0, 12
     8a4:	0007060b 	andeq	r0, r7, fp, lsl #12
     8a8:	07381e00 	ldreq	r1, [r8, -r0, lsl #28]!
     8ac:	9e060000 	cdpls	0, 0, cr0, cr6, cr0, {0}
     8b0:	084b0b02 	stmdaeq	fp, {r1, r8, r9, fp}^
     8b4:	0c000000 	stceq	0, cr0, [r0], {-0}
     8b8:	0000013a 	andeq	r0, r0, sl, lsr r1
     8bc:	000008c7 	andeq	r0, r0, r7, asr #17
     8c0:	0000380d 	andeq	r3, r0, sp, lsl #16
     8c4:	08001800 	stmdaeq	r0, {fp, ip}
     8c8:	00000144 	andeq	r0, r0, r4, asr #2
     8cc:	08c70407 	stmiaeq	r7, {r0, r1, r2, sl}^
     8d0:	dd1f0000 	ldcle	0, cr0, [pc, #-0]	; 8d8 <__code_start__-0x7728>
     8d4:	17000008 	strne	r0, [r0, -r8]
     8d8:	00000489 	andeq	r0, r0, r9, lsl #9
     8dc:	d2040700 	andle	r0, r4, #0, 14
     8e0:	07000008 	streq	r0, [r0, -r8]
     8e4:	0001ac04 	andeq	sl, r1, r4, lsl #24
     8e8:	08f41f00 	ldmeq	r4!, {r8, r9, sl, fp, ip}^
     8ec:	25170000 	ldrcs	r0, [r7, #-0]
     8f0:	00000000 	andeq	r0, r0, r0
     8f4:	08fa0407 	ldmeq	sl!, {r0, r1, r2, sl}^
     8f8:	04070000 	streq	r0, [r7], #-0
     8fc:	000008e9 	andeq	r0, r0, r9, ror #17
     900:	00066b0c 	andeq	r6, r6, ip, lsl #22
     904:	00091000 	andeq	r1, r9, r0
     908:	00380d00 	eorseq	r0, r8, r0, lsl #26
     90c:	00020000 	andeq	r0, r2, r0
     910:	0006a020 	andeq	sl, r6, r0, lsr #32
     914:	032e0600 			; <UNDEFINED> instruction: 0x032e0600
     918:	00048917 	andeq	r8, r4, r7, lsl r9
     91c:	06992000 	ldreq	r2, [r9], r0
     920:	2f060000 	svccs	0x00060000
     924:	048f1d03 	streq	r1, [pc], #3331	; 92c <__code_start__-0x76d4>
     928:	07210000 	streq	r0, [r1, -r0]!
     92c:	00003804 	andeq	r3, r0, r4, lsl #16
     930:	0e330700 	cdpeq	7, 3, cr0, cr3, cr0, {0}
     934:	00000993 	muleq	r0, r3, r9
     938:	00022f22 	andeq	r2, r2, r2, lsr #30
     93c:	00b40000 	adcseq	r0, r4, r0
     940:	02202220 	eoreq	r2, r0, #32, 4
     944:	b4000000 	strlt	r0, [r0], #-0
     948:	ac222000 	stcge	0, cr2, [r2], #-0
     94c:	04000006 	streq	r0, [r0], #-6
     950:	222000b4 	eorcs	r0, r0, #180, 0	; 0xb4
     954:	00000313 	andeq	r0, r0, r3, lsl r3
     958:	2000b408 	andcs	fp, r0, r8, lsl #8
     95c:	0006bc22 	andeq	fp, r6, r2, lsr #24
     960:	00b40c00 	adcseq	r0, r4, r0, lsl #24
     964:	00e82220 	rsceq	r2, r8, r0, lsr #4
     968:	b4100000 	ldrlt	r0, [r0], #-0
     96c:	dd222000 	stcle	0, cr2, [r2, #-0]
     970:	14000002 	strne	r0, [r0], #-2
     974:	222000b4 	eorcs	r0, r0, #180, 0	; 0xb4
     978:	00000436 	andeq	r0, r0, r6, lsr r4
     97c:	2000b418 	andcs	fp, r0, r8, lsl r4
     980:	00062c22 	andeq	r2, r6, r2, lsr #24
     984:	00b41c00 	adcseq	r1, r4, r0, lsl #24
     988:	07ac2220 	streq	r2, [ip, r0, lsr #4]!
     98c:	b4200000 	strtlt	r0, [r0], #-0
     990:	21002000 	mrscs	r2, (UNDEF: 0)
     994:	00380407 	eorseq	r0, r8, r7, lsl #8
     998:	14080000 	strne	r0, [r8], #-0
     99c:	000a0506 	andeq	r0, sl, r6, lsl #10
     9a0:	023e2200 	eorseq	r2, lr, #0, 4
     9a4:	b2000000 	andlt	r0, r0, #0, 0
     9a8:	1d222000 	stcne	0, cr2, [r2, #-0]
     9ac:	00000004 	andeq	r0, r0, r4
     9b0:	222000b2 	eorcs	r0, r0, #178, 0	; 0xb2
     9b4:	00000325 	andeq	r0, r0, r5, lsr #6
     9b8:	2000b204 	andcs	fp, r0, r4, lsl #4
     9bc:	00033322 	andeq	r3, r3, r2, lsr #6
     9c0:	00b20800 	adcseq	r0, r2, r0, lsl #16
     9c4:	07002220 	streq	r2, [r0, -r0, lsr #4]
     9c8:	b20c0000 	andlt	r0, ip, #0, 0
     9cc:	b2222000 	eorlt	r2, r2, #0, 0
     9d0:	10000003 	andne	r0, r0, r3
     9d4:	222000b2 	eorcs	r0, r0, #178, 0	; 0xb2
     9d8:	000003f3 	strdeq	r0, [r0], -r3
     9dc:	2000b214 	andcs	fp, r0, r4, lsl r2
     9e0:	0004aa22 	andeq	sl, r4, r2, lsr #20
     9e4:	00b21800 	adcseq	r1, r2, r0, lsl #16
     9e8:	040e2220 	streq	r2, [lr], #-544	; 0xfffffde0
     9ec:	b21c0000 	andslt	r0, ip, #0, 0
     9f0:	4f222000 	svcmi	0x00222000
     9f4:	20000001 	andcs	r0, r0, r1
     9f8:	222000b2 	eorcs	r0, r0, #178, 0	; 0xb2
     9fc:	00000348 	andeq	r0, r0, r8, asr #6
     a00:	2000b224 	andcs	fp, r0, r4, lsr #4
     a04:	006e0c00 	rsbeq	r0, lr, r0, lsl #24
     a08:	0a100000 	beq	400a10 <__bss_end__+0x3f7210>
     a0c:	00230000 	eoreq	r0, r3, r0
     a10:	00074024 	andeq	r4, r7, r4, lsr #32
     a14:	12050900 	andne	r0, r5, #0, 18
     a18:	00000a05 	andeq	r0, r0, r5, lsl #20
     a1c:	00049324 	andeq	r9, r4, r4, lsr #6
     a20:	12060900 	andne	r0, r6, #0, 18
     a24:	00000a05 	andeq	r0, r0, r5, lsl #20
     a28:	0005e724 	andeq	lr, r5, r4, lsr #14
     a2c:	12080900 	andne	r0, r8, #0, 18
     a30:	00000a05 	andeq	r0, r0, r5, lsl #20
     a34:	00040124 	andeq	r0, r4, r4, lsr #2
     a38:	12090900 	andne	r0, r9, #0, 18
     a3c:	00000a05 	andeq	r0, r0, r5, lsl #20
     a40:	00044d24 	andeq	r4, r4, r4, lsr #26
     a44:	120b0900 	andne	r0, fp, #0, 18
     a48:	00000a05 	andeq	r0, r0, r5, lsl #20
     a4c:	00047524 	andeq	r7, r4, r4, lsr #10
     a50:	120c0900 	andne	r0, ip, #0, 18
     a54:	00000a05 	andeq	r0, r0, r5, lsl #20
     a58:	0005d024 	andeq	sp, r5, r4, lsr #32
     a5c:	120e0900 	andne	r0, lr, #0, 18
     a60:	00000a05 	andeq	r0, r0, r5, lsl #20
     a64:	0004d024 	andeq	sp, r4, r4, lsr #32
     a68:	120f0900 	andne	r0, pc, #0, 18
     a6c:	00000a05 	andeq	r0, r0, r5, lsl #20
     a70:	0005ba25 	andeq	fp, r5, r5, lsr #20
     a74:	1b1e0100 	blne	780e7c <__bss_end__+0x77767c>
     a78:	00000a82 	andeq	r0, r0, r2, lsl #21
     a7c:	97e40305 	strbls	r0, [r4, r5, lsl #6]!
     a80:	04070000 	streq	r0, [r7], #-0
     a84:	0000003f 	andeq	r0, r0, pc, lsr r0
     a88:	00000d25 	andeq	r0, r0, r5, lsr #26
     a8c:	1a1f0100 	bne	7c0e94 <__bss_end__+0x7b7694>
     a90:	0000003f 	andeq	r0, r0, pc, lsr r0
     a94:	97e80305 	strbls	r0, [r8, r5, lsl #6]!
     a98:	63260000 			; <UNDEFINED> instruction: 0x63260000
     a9c:	0100746e 	tsteq	r0, lr, ror #8
     aa0:	003f1a41 	eorseq	r1, pc, r1, asr #20
     aa4:	03050000 	movweq	r0, #20480	; 0x5000
     aa8:	000097ec 	andeq	r9, r0, ip, ror #15
     aac:	00060725 	andeq	r0, r6, r5, lsr #14
     ab0:	1a420100 	bne	1080eb8 <__bss_end__+0x10776b8>
     ab4:	0000003f 	andeq	r0, r0, pc, lsr r0
     ab8:	97f40305 	ldrbls	r0, [r4, r5, lsl #6]!
     abc:	e0270000 	eor	r0, r7, r0
     ac0:	01000000 	mrseq	r0, (UNDEF: 0)
     ac4:	81a00665 	rorhi	r0, r5, #12
     ac8:	00d80000 	sbcseq	r0, r8, r0
     acc:	9c010000 	stcls	0, cr0, [r1], {-0}
     ad0:	00000be9 	andeq	r0, r0, r9, ror #23
     ad4:	0004ca28 	andeq	ip, r4, r8, lsr #20
     ad8:	0e700100 	rpweqs	f0, f0, f0
     adc:	0000006e 	andeq	r0, r0, lr, rrx
     ae0:	00100000 	andseq	r0, r0, r0
     ae4:	0003d729 	andeq	sp, r3, r9, lsr #14
     ae8:	0e7a0100 	rpweqe	f0, f2, f0
     aec:	00000038 	andeq	r0, r0, r8, lsr r0
     af0:	00000004 	andeq	r0, r0, r4
     af4:	00000000 	andeq	r0, r0, r0
     af8:	0081b02a 	addeq	fp, r1, sl, lsr #32
     afc:	000d8400 	andeq	r8, sp, r0, lsl #8
     b00:	000b0f00 	andeq	r0, fp, r0, lsl #30
     b04:	50012b00 	andpl	r2, r1, r0, lsl #22
     b08:	91ec0305 	mvnls	r0, r5, lsl #6
     b0c:	2c000000 	stccs	0, cr0, [r0], {-0}
     b10:	000081b4 			; <UNDEFINED> instruction: 0x000081b4
     b14:	00000d90 	muleq	r0, r0, sp
     b18:	0081bc2a 	addeq	fp, r1, sl, lsr #24
     b1c:	000d8400 	andeq	r8, sp, r0, lsl #8
     b20:	000b2f00 	andeq	r2, fp, r0, lsl #30
     b24:	50012b00 	andpl	r2, r1, r0, lsl #22
     b28:	92080305 	andls	r0, r8, #335544320	; 0x14000000
     b2c:	2a000000 	bcs	b34 <__code_start__-0x74cc>
     b30:	000081c4 	andeq	r8, r0, r4, asr #3
     b34:	00000d9c 	muleq	r0, ip, sp
     b38:	00000b42 	andeq	r0, r0, r2, asr #22
     b3c:	0150012b 	cmpeq	r0, fp, lsr #2
     b40:	d02a0040 	eorle	r0, sl, r0, asr #32
     b44:	84000081 	strhi	r0, [r0], #-129	; 0xffffff7f
     b48:	5600000d 	strpl	r0, [r0], -sp
     b4c:	2b00000b 	blcs	b80 <__code_start__-0x7480>
     b50:	74025001 	strvc	r5, [r2], #-1
     b54:	dc2a0000 	stcle	0, cr0, [sl], #-0
     b58:	a8000081 	stmdage	r0, {r0, r7}
     b5c:	7200000d 	andvc	r0, r0, #13, 0
     b60:	2b00000b 	blcs	b94 <__code_start__-0x746c>
     b64:	40035001 	andmi	r5, r3, r1
     b68:	012b2440 			; <UNDEFINED> instruction: 0x012b2440
     b6c:	40400351 	submi	r0, r0, r1, asr r3
     b70:	e02c0024 	eor	r0, ip, r4, lsr #32
     b74:	40000081 	andmi	r0, r0, r1, lsl #1
     b78:	2a00000d 	bcs	bb4 <__code_start__-0x744c>
     b7c:	000081e8 	andeq	r8, r0, r8, ror #3
     b80:	00000d84 	andeq	r0, r0, r4, lsl #27
     b84:	00000b8f 	andeq	r0, r0, pc, lsl #23
     b88:	0250012b 	subseq	r0, r0, #-1073741814	; 0xc000000a
     b8c:	2c000074 	stccs	0, cr0, [r0], {116}	; 0x74
     b90:	000081ec 	andeq	r8, r0, ip, ror #3
     b94:	00000db4 			; <UNDEFINED> instruction: 0x00000db4
     b98:	0081f42a 	addeq	pc, r1, sl, lsr #8
     b9c:	000d8400 	andeq	r8, sp, r0, lsl #8
     ba0:	000baf00 	andeq	sl, fp, r0, lsl #30
     ba4:	50012b00 	andpl	r2, r1, r0, lsl #22
     ba8:	92480305 	subls	r0, r8, #335544320	; 0x14000000
     bac:	2a000000 	bcs	bb4 <__code_start__-0x744c>
     bb0:	00008204 	andeq	r8, r0, r4, lsl #4
     bb4:	00000ca6 	andeq	r0, r0, r6, lsr #25
     bb8:	00000bc2 	andeq	r0, r0, r2, asr #23
     bbc:	0150012b 	cmpeq	r0, fp, lsr #2
     bc0:	342a0032 	strtcc	r0, [sl], #-50	; 0xffffffce
     bc4:	84000082 	strhi	r0, [r0], #-130	; 0xffffff7e
     bc8:	df00000d 	svcle	0x0000000d
     bcc:	2b00000b 	blcs	c00 <__code_start__-0x7400>
     bd0:	03055001 	movweq	r5, #20481	; 0x5001
     bd4:	00009254 	andeq	r9, r0, r4, asr r2
     bd8:	0251012b 	subseq	r0, r1, #-1073741814	; 0xc000000a
     bdc:	2c000074 	stccs	0, cr0, [r0], {116}	; 0x74
     be0:	0000825c 	andeq	r8, r0, ip, asr r2
     be4:	00000dc0 	andeq	r0, r0, r0, asr #27
     be8:	08592700 	ldmdaeq	r9, {r8, r9, sl, sp}^
     bec:	45010000 	strmi	r0, [r1, #-0]
     bf0:	00813406 	addeq	r3, r1, r6, lsl #8
     bf4:	00006c00 	andeq	r6, r0, r0, lsl #24
     bf8:	a69c0100 	ldrge	r0, [ip], r0, lsl #2
     bfc:	2d00000c 	stccs	0, cr0, [r0, #-48]	; 0xffffffd0
     c00:	01006370 	tsteq	r0, r0, ror r3
     c04:	00382045 	eorseq	r2, r8, r5, asr #32
     c08:	00270000 	eoreq	r0, r7, r0
     c0c:	00230000 	eoreq	r0, r3, r0
     c10:	27290000 	strcs	r0, [r9, -r0]!
     c14:	01000004 	tsteq	r0, r4
     c18:	00380e47 	eorseq	r0, r8, r7, asr #28
     c1c:	00470000 	subeq	r0, r7, r0
     c20:	00450000 	subeq	r0, r5, r0
     c24:	29250000 	stmdbcs	r5!, {}	; <UNPREDICTABLE>
     c28:	01000007 	tsteq	r0, r7
     c2c:	0038155b 	eorseq	r1, r8, fp, asr r5
     c30:	03050000 	movweq	r0, #20480	; 0x5000
     c34:	000097f0 	strdeq	r9, [r0], -r0
     c38:	6b6c632e 	blvs	1b198f8 <__bss_end__+0x1b100f8>
     c3c:	0e5c0100 	rdfeqe	f0, f4, f0
     c40:	00000038 	andeq	r0, r0, r8, lsr r0
     c44:	0000005c 	andeq	r0, r0, ip, asr r0
     c48:	0000005a 	andeq	r0, r0, sl, asr r0
     c4c:	0081402c 	addeq	r4, r1, ip, lsr #32
     c50:	000dcc00 	andeq	ip, sp, r0, lsl #24
     c54:	81482a00 	cmphi	r8, r0, lsl #20
     c58:	0dd80000 	ldcleq	0, cr0, [r8]
     c5c:	0c6c0000 	stcleq	0, cr0, [ip], #-0
     c60:	012b0000 			; <UNDEFINED> instruction: 0x012b0000
     c64:	000c0550 	andeq	r0, ip, r0, asr r5
     c68:	002000b2 	strhteq	r0, [r0], -r2
     c6c:	00815c2a 	addeq	r5, r1, sl, lsr #24
     c70:	000de400 	andeq	lr, sp, r0, lsl #8
     c74:	000c8800 	andeq	r8, ip, r0, lsl #16
     c78:	50012b00 	andpl	r2, r1, r0, lsl #22
     c7c:	b40c0c05 	strlt	r0, [ip], #-3077	; 0xfffff3fb
     c80:	012b2000 			; <UNDEFINED> instruction: 0x012b2000
     c84:	00310151 	eorseq	r0, r1, r1, asr r1
     c88:	0081742a 	addeq	r7, r1, sl, lsr #8
     c8c:	000d1600 	andeq	r1, sp, r0, lsl #12
     c90:	000c9c00 	andeq	r9, ip, r0, lsl #24
     c94:	50012b00 	andpl	r2, r1, r0, lsl #22
     c98:	00007402 	andeq	r7, r0, r2, lsl #8
     c9c:	0081782c 	addeq	r7, r1, ip, lsr #16
     ca0:	000df000 	andeq	pc, sp, r0
     ca4:	302f0000 	eorcc	r0, pc, r0
     ca8:	01000001 	tsteq	r0, r1
     cac:	80c80d32 	sbchi	r0, r8, r2, lsr sp
     cb0:	006c0000 	rsbeq	r0, ip, r0
     cb4:	9c010000 	stcls	0, cr0, [r1], {-0}
     cb8:	00000d16 	andeq	r0, r0, r6, lsl sp
     cbc:	00016d30 	andeq	r6, r1, r0, lsr sp
     cc0:	21320100 	teqcs	r2, r0, lsl #2
     cc4:	00000038 	andeq	r0, r0, r8, lsr r0
     cc8:	00000073 	andeq	r0, r0, r3, ror r0
     ccc:	0000006f 	andeq	r0, r0, pc, rrx
     cd0:	0080d431 	addeq	sp, r0, r1, lsr r4
     cd4:	00004c00 	andeq	r4, r0, r0, lsl #24
     cd8:	000d0300 	andeq	r0, sp, r0, lsl #6
     cdc:	00692e00 	rsbeq	r2, r9, r0, lsl #28
     ce0:	2c113401 	cfldrscs	mvf3, [r1], {1}
     ce4:	95000000 	strls	r0, [r0, #-0]
     ce8:	91000000 	mrsls	r0, (UNDEF: 0)
     cec:	32000000 	andcc	r0, r0, #0, 0
     cf0:	000080f0 	strdeq	r8, [r0], -r0
     cf4:	00000d84 	andeq	r0, r0, r4, lsl #27
     cf8:	0550012b 	ldrbeq	r0, [r0, #-299]	; 0xfffffed5
     cfc:	0091e003 	addseq	lr, r1, r3
     d00:	2c000000 	stccs	0, cr0, [r0], {-0}
     d04:	000080d4 	ldrdeq	r8, [r0], -r4
     d08:	00000dfc 	strdeq	r0, [r0], -ip
     d0c:	0081242c 	addeq	r2, r1, ip, lsr #8
     d10:	000db400 	andeq	fp, sp, r0, lsl #8
     d14:	dd2f0000 	stcle	0, cr0, [pc, #-0]	; d1c <__code_start__-0x72e4>
     d18:	01000005 	tsteq	r0, r5
     d1c:	80380d2b 	eorshi	r0, r8, fp, lsr #26
     d20:	002c0000 	eoreq	r0, ip, r0
     d24:	9c010000 	stcls	0, cr0, [r1], {-0}
     d28:	00000d40 	andeq	r0, r0, r0, asr #26
     d2c:	0063702d 	rsbeq	r7, r3, sp, lsr #32
     d30:	38202b01 	stmdacc	r0!, {r0, r8, r9, fp, sp}
     d34:	b8000000 	stmdalt	r0, {}	; <UNPREDICTABLE>
     d38:	b4000000 	strlt	r0, [r0], #-0
     d3c:	00000000 	andeq	r0, r0, r0
     d40:	0002a033 	andeq	sl, r2, r3, lsr r0
     d44:	11200100 			; <UNDEFINED> instruction: 0x11200100
     d48:	00000038 	andeq	r0, r0, r8, lsr r0
     d4c:	00008064 	andeq	r8, r0, r4, rrx
     d50:	00000064 	andeq	r0, r0, r4, rrx
     d54:	0d849c01 	stceq	12, cr9, [r4, #4]
     d58:	90310000 	eorsls	r0, r1, r0
     d5c:	20000080 	andcs	r0, r0, r0, lsl #1
     d60:	7a000000 	bvc	d68 <__code_start__-0x7298>
     d64:	2e00000d 	cdpcs	0, 0, cr0, cr0, cr13, {0}
     d68:	23010069 	movwcs	r0, #4201	; 0x1069
     d6c:	00003813 	andeq	r3, r0, r3, lsl r8
     d70:	0000dd00 	andeq	sp, r0, r0, lsl #26
     d74:	0000d900 	andeq	sp, r0, r0, lsl #18
     d78:	8c2c0000 	stchi	0, cr0, [ip], #-0
     d7c:	08000080 	stmdaeq	r0, {r7}
     d80:	0000000e 	andeq	r0, r0, lr
     d84:	000bec34 	andeq	lr, fp, r4, lsr ip
     d88:	000bec00 	andeq	lr, fp, r0, lsl #24
     d8c:	05250a00 	streq	r0, [r5, #-2560]!	; 0xfffff600
     d90:	00046434 	andeq	r6, r4, r4, lsr r4
     d94:	00046400 	andeq	r6, r4, r0, lsl #8
     d98:	064e0800 	strbeq	r0, [lr], -r0, lsl #16
     d9c:	0001ce34 	andeq	ip, r1, r4, lsr lr
     da0:	0001ce00 	andeq	ip, r1, r0, lsl #28
     da4:	06080b00 	streq	r0, [r8], -r0, lsl #22
     da8:	00025734 	andeq	r5, r2, r4, lsr r7
     dac:	00025700 	andeq	r5, r2, r0, lsl #14
     db0:	067a0a00 	ldrbteq	r0, [sl], -r0, lsl #20
     db4:	0001a234 	andeq	sl, r1, r4, lsr r2
     db8:	0001a200 	andeq	sl, r1, r0, lsl #4
     dbc:	063b0800 	ldrteq	r0, [fp], -r0, lsl #16
     dc0:	0003e634 	andeq	lr, r3, r4, lsr r6
     dc4:	0003e600 	andeq	lr, r3, r0, lsl #12
     dc8:	06600a00 	strbteq	r0, [r0], -r0, lsl #20
     dcc:	00039034 	andeq	r9, r3, r4, lsr r0
     dd0:	00039000 	andeq	r9, r3, r0
     dd4:	066e0a00 	strbteq	r0, [lr], -r0, lsl #20
     dd8:	00044734 	andeq	r4, r4, r4, lsr r7
     ddc:	00044700 	andeq	r4, r4, r0, lsl #14
     de0:	0a850a00 	beq	fe1435e8 <__bss_end__+0xfe139de8>
     de4:	0001e334 	andeq	lr, r1, r4, lsr r3
     de8:	0001e300 	andeq	lr, r1, r0, lsl #6
     dec:	06810a00 	streq	r0, [r1], r0, lsl #20
     df0:	0006dc34 	andeq	sp, r6, r4, lsr ip
     df4:	0006dc00 	andeq	sp, r6, r0, lsl #24
     df8:	0a530a00 	beq	14c3600 <__bss_end__+0x14b9e00>
     dfc:	00078834 	andeq	r8, r7, r4, lsr r8
     e00:	00078800 	andeq	r8, r7, r0, lsl #16
     e04:	063c0800 	ldrteq	r0, [ip], -r0, lsl #16
     e08:	00020f34 	andeq	r0, r2, r4, lsr pc
     e0c:	00020f00 	andeq	r0, r2, r0, lsl #30
     e10:	07750a00 	ldrbeq	r0, [r5, -r0, lsl #20]!
     e14:	000dea00 	andeq	lr, sp, r0, lsl #20
     e18:	ff000400 			; <UNDEFINED> instruction: 0xff000400
     e1c:	04000002 	streq	r0, [r0], #-2
     e20:	00002101 	andeq	r2, r0, r1, lsl #2
     e24:	08410c00 	stmdaeq	r1, {sl, fp}^
     e28:	06460000 	strbeq	r0, [r6], -r0
     e2c:	82780000 	rsbshi	r0, r8, #0, 0
     e30:	01cc0000 	biceq	r0, ip, r0
     e34:	031b0000 	tsteq	fp, #0, 0
     e38:	04020000 	streq	r0, [r2], #-0
     e3c:	746e6905 	strbtvc	r6, [lr], #-2309	; 0xfffff6fb
     e40:	07040300 	streq	r0, [r4, -r0, lsl #6]
     e44:	00000123 	andeq	r0, r0, r3, lsr #2
     e48:	e1060103 	tst	r6, r3, lsl #2
     e4c:	03000004 	movweq	r0, #4
     e50:	04fb0502 	ldrbteq	r0, [fp], #1282	; 0x502
     e54:	04030000 	streq	r0, [r3], #-0
     e58:	00018305 	andeq	r8, r1, r5, lsl #6
     e5c:	05080300 	streq	r0, [r8, #-768]	; 0xfffffd00
     e60:	0000017e 	andeq	r0, r0, lr, ror r1
     e64:	df080103 	svcle	0x00080103
     e68:	03000004 	movweq	r0, #4
     e6c:	035b0702 	cmpeq	fp, #524288	; 0x80000
     e70:	04030000 	streq	r0, [r3], #-0
     e74:	00011e07 	andeq	r1, r1, r7, lsl #28
     e78:	07080300 	streq	r0, [r8, -r0, lsl #6]
     e7c:	00000119 	andeq	r0, r0, r9, lsl r1
     e80:	c0050404 	andgt	r0, r5, r4, lsl #8
     e84:	02000003 	andeq	r0, r0, #3, 0
     e88:	00791922 	rsbseq	r1, r9, r2, lsr #18
     e8c:	04060000 	streq	r0, [r6], #-0
     e90:	0000007f 	andeq	r0, r0, pc, ror r0
     e94:	0005a407 	andeq	sl, r5, r7, lsl #8
     e98:	048c0500 	streq	r0, [ip], #1280	; 0x500
     e9c:	2c030000 	stccs	0, cr0, [r3], {-0}
     ea0:	0000410e 	andeq	r4, r0, lr, lsl #2
     ea4:	05bf0500 	ldreq	r0, [pc, #1280]!	; 13ac <__code_start__-0x6c54>
     ea8:	72030000 	andvc	r0, r3, #0, 0
     eac:	0000410e 	andeq	r4, r0, lr, lsl #2
     eb0:	03c80800 	biceq	r0, r8, #0, 16
     eb4:	5e040000 	cdppl	0, 0, cr0, cr4, cr0, {0}
     eb8:	002c1701 	eoreq	r1, ip, r1, lsl #14
     ebc:	04090000 	streq	r0, [r9], #-0
     ec0:	cb03a603 	blgt	ea6d4 <__bss_end__+0xe0ed4>
     ec4:	0a000000 	beq	ecc <__code_start__-0x7134>
     ec8:	000003a4 	andeq	r0, r0, r4, lsr #7
     ecc:	9c0ca803 	stcls	8, cr10, [ip], {3}
     ed0:	0a000000 	beq	ed8 <__code_start__-0x7128>
     ed4:	000002f6 	strdeq	r0, [r0], -r6
     ed8:	cb13a903 	blgt	4eb2ec <__bss_end__+0x4e1aec>
     edc:	00000000 	andeq	r0, r0, r0
     ee0:	00004f0b 	andeq	r4, r0, fp, lsl #30
     ee4:	0000db00 	andeq	sp, r0, r0, lsl #22
     ee8:	002c0c00 	eoreq	r0, ip, r0, lsl #24
     eec:	00030000 	andeq	r0, r3, r0
     ef0:	a303080d 	movwge	r0, #14349	; 0x380d
     ef4:	0000ff09 	andeq	pc, r0, r9, lsl #30
     ef8:	059c0e00 	ldreq	r0, [ip, #3584]	; 0xe00
     efc:	a5030000 	strge	r0, [r3, #-0]
     f00:	00002507 	andeq	r2, r0, r7, lsl #10
     f04:	1b0e0000 	blne	380f0c <__bss_end__+0x37770c>
     f08:	03000006 	movweq	r0, #6
     f0c:	00a905aa 	adceq	r0, r9, sl, lsr #11
     f10:	00040000 	andeq	r0, r4, r0
     f14:	00052305 	andeq	r2, r5, r5, lsl #6
     f18:	03ab0300 			; <UNDEFINED> instruction: 0x03ab0300
     f1c:	000000db 	ldrdeq	r0, [r0], -fp
     f20:	0002ab05 	andeq	sl, r2, r5, lsl #22
     f24:	1baf0300 	blne	febc1b2c <__bss_end__+0xfebb832c>
     f28:	0000006d 	andeq	r0, r0, sp, rrx
     f2c:	011d0406 	tsteq	sp, r6, lsl #8
     f30:	01030000 	mrseq	r0, (UNDEF: 3)
     f34:	0004e808 	andeq	lr, r4, r8, lsl #16
     f38:	011d0f00 	tsteq	sp, r0, lsl #30
     f3c:	84050000 	strhi	r0, [r5], #-0
     f40:	05000006 	streq	r0, [r0, #-6]
     f44:	005d1916 	subseq	r1, sp, r6, lsl r9
     f48:	bc100000 	ldclt	0, cr0, [r0], {-0}
     f4c:	18000002 	stmdane	r0, {r1}
     f50:	8f082f05 	svchi	0x00082f05
     f54:	0e000001 	cdpeq	0, 0, cr0, cr0, cr1, {0}
     f58:	00000544 	andeq	r0, r0, r4, asr #10
     f5c:	8f133105 	svchi	0x00133105
     f60:	00000001 	andeq	r0, r0, r1
     f64:	006b5f11 	rsbeq	r5, fp, r1, lsl pc
     f68:	25073205 	strcs	r3, [r7, #-517]	; 0xfffffdfb
     f6c:	04000000 	streq	r0, [r0], #-0
     f70:	0005870e 	andeq	r8, r5, lr, lsl #14
     f74:	0b320500 	bleq	c8237c <__bss_end__+0xc78b7c>
     f78:	00000025 	andeq	r0, r0, r5, lsr #32
     f7c:	029a0e08 	addseq	r0, sl, #8, 28	; 0x80
     f80:	32050000 	andcc	r0, r5, #0, 0
     f84:	00002514 	andeq	r2, r0, r4, lsl r5
     f88:	eb0e0c00 	bl	383f90 <__bss_end__+0x37a790>
     f8c:	05000006 	streq	r0, [r0, #-6]
     f90:	00251b32 	eoreq	r1, r5, r2, lsr fp
     f94:	11100000 	tstne	r0, r0
     f98:	0500785f 	streq	r7, [r0, #-2143]	; 0xfffff7a1
     f9c:	01950b33 	orrseq	r0, r5, r3, lsr fp
     fa0:	00140000 	andseq	r0, r4, r0
     fa4:	01350406 	teqeq	r5, r6, lsl #8
     fa8:	290b0000 	stmdbcs	fp, {}	; <UNPREDICTABLE>
     fac:	a5000001 	strge	r0, [r0, #-1]
     fb0:	0c000001 	stceq	0, cr0, [r0], {1}
     fb4:	0000002c 	andeq	r0, r0, ip, lsr #32
     fb8:	f1100000 	setpan	#0
     fbc:	24000002 	strcs	r0, [r0], #-2
     fc0:	28083705 	stmdacs	r8, {r0, r2, r8, r9, sl, ip, sp}
     fc4:	0e000002 	cdpeq	0, 0, cr0, cr0, cr2, {0}
     fc8:	00000175 	andeq	r0, r0, r5, ror r1
     fcc:	25093905 	strcs	r3, [r9, #-2309]	; 0xfffff6fb
     fd0:	00000000 	andeq	r0, r0, r0
     fd4:	0005c70e 	andeq	ip, r5, lr, lsl #14
     fd8:	093a0500 	ldmdbeq	sl!, {r8, sl}
     fdc:	00000025 	andeq	r0, r0, r5, lsr #32
     fe0:	01980e04 	orrseq	r0, r8, r4, lsl #28
     fe4:	3b050000 	blcc	140fec <__bss_end__+0x1377ec>
     fe8:	00002509 	andeq	r2, r0, r9, lsl #10
     fec:	a20e0800 	andge	r0, lr, #0, 16
     ff0:	05000007 	streq	r0, [r0, #-7]
     ff4:	0025093c 	eoreq	r0, r5, ip, lsr r9
     ff8:	0e0c0000 	cdpeq	0, 0, cr0, cr12, cr0, {0}
     ffc:	0000045b 	andeq	r0, r0, fp, asr r4
    1000:	25093d05 	strcs	r3, [r9, #-3333]	; 0xfffff2fb
    1004:	10000000 	andne	r0, r0, r0
    1008:	0003dc0e 	andeq	sp, r3, lr, lsl #24
    100c:	093e0500 	ldmdbeq	lr!, {r8, sl}
    1010:	00000025 	andeq	r0, r0, r5, lsr #32
    1014:	06f00e14 	usateq	r0, #16, r4, lsl #28
    1018:	3f050000 	svccc	0x00050000
    101c:	00002509 	andeq	r2, r0, r9, lsl #10
    1020:	050e1800 	streq	r1, [lr, #-2048]	; 0xfffff800
    1024:	05000005 	streq	r0, [r0, #-5]
    1028:	00250940 	eoreq	r0, r5, r0, asr #18
    102c:	0e1c0000 	cdpeq	0, 1, cr0, cr12, cr0, {0}
    1030:	0000074f 	andeq	r0, r0, pc, asr #14
    1034:	25094105 	strcs	r4, [r9, #-261]	; 0xfffffefb
    1038:	20000000 	andcs	r0, r0, r0
    103c:	01c01200 	biceq	r1, r0, r0, lsl #4
    1040:	01080000 	mrseq	r0, (UNDEF: 8)
    1044:	6d084a05 	vstrvs	s8, [r8, #-20]	; 0xffffffec
    1048:	0e000002 	cdpeq	0, 0, cr0, cr0, cr2, {0}
    104c:	0000028d 	andeq	r0, r0, sp, lsl #5
    1050:	6d0a4b05 	vstrvs	d4, [sl, #-20]	; 0xffffffec
    1054:	00000002 	andeq	r0, r0, r2
    1058:	0000000e 	andeq	r0, r0, lr
    105c:	094c0500 	stmdbeq	ip, {r8, sl}^
    1060:	0000026d 	andeq	r0, r0, sp, ror #4
    1064:	06231380 	strteq	r1, [r3], -r0, lsl #7
    1068:	4e050000 	cdpmi	0, 0, cr0, cr5, cr0, {0}
    106c:	0001290a 	andeq	r2, r1, sl, lsl #18
    1070:	13010000 	movwne	r0, #4096	; 0x1000
    1074:	00000200 	andeq	r0, r0, r0, lsl #4
    1078:	290a5105 	stmdbcs	sl, {r0, r2, r8, ip, lr}
    107c:	04000001 	streq	r0, [r0], #-1
    1080:	6b0b0001 	blvs	2c108c <__bss_end__+0x2b788c>
    1084:	7d000000 	stcvc	0, cr0, [r0, #-0]
    1088:	0c000002 	stceq	0, cr0, [r0], {2}
    108c:	0000002c 	andeq	r0, r0, ip, lsr #32
    1090:	6d12001f 	ldcvs	0, cr0, [r2, #-124]	; 0xffffff84
    1094:	90000004 	andls	r0, r0, r4
    1098:	085d0501 	ldmdaeq	sp, {r0, r8, sl}^
    109c:	000002c0 	andeq	r0, r0, r0, asr #5
    10a0:	0005440e 	andeq	r4, r5, lr, lsl #8
    10a4:	125e0500 	subsne	r0, lr, #0, 10
    10a8:	000002c0 	andeq	r0, r0, r0, asr #5
    10ac:	05570e00 	ldrbeq	r0, [r7, #-3584]	; 0xfffff200
    10b0:	5f050000 	svcpl	0x00050000
    10b4:	00002506 	andeq	r2, r0, r6, lsl #10
    10b8:	950e0400 	strls	r0, [lr, #-1024]	; 0xfffffc00
    10bc:	05000002 	streq	r0, [r0, #-2]
    10c0:	02c60961 	sbceq	r0, r6, #1589248	; 0x184000
    10c4:	0e080000 	cdpeq	0, 0, cr0, cr8, cr0, {0}
    10c8:	000001c0 	andeq	r0, r0, r0, asr #3
    10cc:	281e6205 	ldmdacs	lr, {r0, r2, r9, sp, lr}
    10d0:	88000002 	stmdahi	r0, {r1}
    10d4:	7d040600 	stcvc	6, cr0, [r4, #-0]
    10d8:	0b000002 	bleq	10e8 <__code_start__-0x6f18>
    10dc:	000002d6 	ldrdeq	r0, [r0], -r6
    10e0:	000002d6 	ldrdeq	r0, [r0], -r6
    10e4:	00002c0c 	andeq	r2, r0, ip, lsl #24
    10e8:	06001f00 	streq	r1, [r0], -r0, lsl #30
    10ec:	0002dc04 	andeq	sp, r2, r4, lsl #24
    10f0:	0f101400 	svceq	0x00101400
    10f4:	08000005 	stmdaeq	r0, {r0, r2}
    10f8:	05087505 	streq	r7, [r8, #-1285]	; 0xfffffafb
    10fc:	0e000003 	cdpeq	0, 0, cr0, cr0, cr3, {0}
    1100:	00000192 	muleq	r0, r2, r1
    1104:	05117605 	ldreq	r7, [r1, #-1541]	; 0xfffff9fb
    1108:	00000003 	andeq	r0, r0, r3
    110c:	00000c0e 	andeq	r0, r0, lr, lsl #24
    1110:	06770500 	ldrbteq	r0, [r7], -r0, lsl #10
    1114:	00000025 	andeq	r0, r0, r5, lsr #32
    1118:	04060004 	streq	r0, [r6], #-4
    111c:	0000004f 	andeq	r0, r0, pc, asr #32
    1120:	00052e10 	andeq	r2, r5, r0, lsl lr
    1124:	b5056800 	strlt	r6, [r5, #-2048]	; 0xfffff800
    1128:	00044e08 	andeq	r4, r4, r8, lsl #28
    112c:	705f1100 	subsvc	r1, pc, r0, lsl #2
    1130:	12b60500 	adcsne	r0, r6, #0, 10
    1134:	00000305 	andeq	r0, r0, r5, lsl #6
    1138:	725f1100 	subsvc	r1, pc, #0
    113c:	07b70500 	ldreq	r0, [r7, r0, lsl #10]!
    1140:	00000025 	andeq	r0, r0, r5, lsr #32
    1144:	775f1104 	ldrbvc	r1, [pc, -r4, lsl #2]
    1148:	07b80500 	ldreq	r0, [r8, r0, lsl #10]!
    114c:	00000025 	andeq	r0, r0, r5, lsr #32
    1150:	01f90e08 	mvnseq	r0, r8, lsl #28
    1154:	b9050000 	stmdblt	r5, {}	; <UNPREDICTABLE>
    1158:	00003a09 	andeq	r3, r0, r9, lsl #20
    115c:	0d0e0c00 	stceq	12, cr0, [lr, #-0]
    1160:	05000003 	streq	r0, [r0, #-3]
    1164:	003a09ba 	ldrhteq	r0, [sl], -sl
    1168:	110e0000 	mrsne	r0, (UNDEF: 14)
    116c:	0066625f 	rsbeq	r6, r6, pc, asr r2
    1170:	dd11bb05 	vldrle	d11, [r1, #-20]	; 0xffffffec
    1174:	10000002 	andne	r0, r0, r2
    1178:	00013b0e 	andeq	r3, r1, lr, lsl #22
    117c:	07bc0500 	ldreq	r0, [ip, r0, lsl #10]!
    1180:	00000025 	andeq	r0, r0, r5, lsr #32
    1184:	01e90e18 	mvneq	r0, r8, lsl lr
    1188:	c3050000 	movwgt	r0, #20480	; 0x5000
    118c:	00006b0a 	andeq	r6, r0, sl, lsl #22
    1190:	d10e1c00 	tstle	lr, r0, lsl #24
    1194:	0500000e 	streq	r0, [r0, #-14]
    1198:	05c01dc5 	strbeq	r1, [r0, #3525]	; 0xdc5
    119c:	0e200000 	cdpeq	0, 2, cr0, cr0, cr0, {0}
    11a0:	00000eb1 			; <UNDEFINED> instruction: 0x00000eb1
    11a4:	ea1dc705 	b	772dc0 <__bss_end__+0x7695c0>
    11a8:	24000005 	strcs	r0, [r0], #-5
    11ac:	0005b40e 	andeq	fp, r5, lr, lsl #8
    11b0:	0dca0500 	cfstr64eq	mvdx0, [sl]
    11b4:	0000060e 	andeq	r0, r0, lr, lsl #12
    11b8:	07690e28 	strbeq	r0, [r9, -r8, lsr #28]!
    11bc:	cb050000 	blgt	1411c4 <__bss_end__+0x1379c4>
    11c0:	00062809 	andeq	r2, r6, r9, lsl #16
    11c4:	5f112c00 	svcpl	0x00112c00
    11c8:	05006275 	streq	r6, [r0, #-629]	; 0xfffffd8b
    11cc:	02dd11ce 	sbcseq	r1, sp, #-2147483597	; 0x80000033
    11d0:	11300000 	teqne	r0, r0
    11d4:	0070755f 	rsbseq	r7, r0, pc, asr r5
    11d8:	0512cf05 	ldreq	ip, [r2, #-3845]	; 0xfffff0fb
    11dc:	38000003 	stmdacc	r0, {r0, r1}
    11e0:	72755f11 	rsbsvc	r5, r5, #68	; 0x44
    11e4:	07d00500 	ldrbeq	r0, [r0, r0, lsl #10]
    11e8:	00000025 	andeq	r0, r0, r5, lsr #32
    11ec:	018c0e3c 	orreq	r0, ip, ip, lsr lr
    11f0:	d3050000 	movwle	r0, #20480	; 0x5000
    11f4:	00062e11 	andeq	r2, r6, r1, lsl lr
    11f8:	320e4000 	andcc	r4, lr, #0, 0
    11fc:	05000007 	streq	r0, [r0, #-7]
    1200:	063e11d4 			; <UNDEFINED> instruction: 0x063e11d4
    1204:	11430000 	mrsne	r0, (UNDEF: 67)
    1208:	00626c5f 	rsbeq	r6, r2, pc, asr ip
    120c:	dd11d705 	ldcle	7, cr13, [r1, #-20]	; 0xffffffec
    1210:	44000002 	strmi	r0, [r0], #-2
    1214:	0002170e 	andeq	r1, r2, lr, lsl #14
    1218:	07da0500 	ldrbeq	r0, [sl, r0, lsl #10]
    121c:	00000025 	andeq	r0, r0, r5, lsr #32
    1220:	024f0e4c 	subeq	r0, pc, #76, 28	; 0x4c0
    1224:	db050000 	blle	14122c <__bss_end__+0x137a2c>
    1228:	0000840a 	andeq	r8, r0, sl, lsl #8
    122c:	340e5000 	strcc	r5, [lr], #-0
    1230:	0500000e 	streq	r0, [r0, #-14]
    1234:	046c12de 	strbteq	r1, [ip], #-734	; 0xfffffd22
    1238:	0e540000 	cdpeq	0, 5, cr0, cr4, cr0, {0}
    123c:	000005a5 	andeq	r0, r0, r5, lsr #11
    1240:	0b0ce205 	bleq	339a5c <__bss_end__+0x33025c>
    1244:	58000001 	stmdapl	r0, {r0}
    1248:	0005360e 	andeq	r3, r5, lr, lsl #12
    124c:	0ee40500 	cdpeq	5, 14, cr0, cr4, cr0, {0}
    1250:	000000ff 	strdeq	r0, [r0], -pc	; <UNPREDICTABLE>
    1254:	03cf0e5c 	biceq	r0, pc, #92, 28	; 0x5c0
    1258:	e5050000 	str	r0, [r5, #-0]
    125c:	00002509 	andeq	r2, r0, r9, lsl #10
    1260:	15006400 	strne	r6, [r0, #-1024]	; 0xfffffc00
    1264:	00000025 	andeq	r0, r0, r5, lsr #32
    1268:	0000046c 	andeq	r0, r0, ip, ror #8
    126c:	00046c16 	andeq	r6, r4, r6, lsl ip
    1270:	006b1600 	rsbeq	r1, fp, r0, lsl #12
    1274:	17160000 	ldrne	r0, [r6, -r0]
    1278:	16000001 	strne	r0, [r0], -r1
    127c:	00000025 	andeq	r0, r0, r5, lsr #32
    1280:	77040600 	strvc	r0, [r4, -r0, lsl #12]
    1284:	0f000004 	svceq	0x00000004
    1288:	0000046c 	andeq	r0, r0, ip, ror #8
    128c:	00058f17 	andeq	r8, r5, r7, lsl pc
    1290:	05042800 	streq	r2, [r4, #-2048]	; 0xfffff800
    1294:	c0080260 	andgt	r0, r8, r0, ror #4
    1298:	18000005 	stmdane	r0, {r0, r2}
    129c:	000004f4 	strdeq	r0, [r0], -r4
    12a0:	07026205 	streq	r6, [r2, -r5, lsl #4]
    12a4:	00000025 	andeq	r0, r0, r5, lsr #32
    12a8:	02081800 	andeq	r1, r8, #0, 16
    12ac:	67050000 	strvs	r0, [r5, -r0]
    12b0:	069a0b02 	ldreq	r0, [sl], r2, lsl #22
    12b4:	18040000 	stmdane	r4, {}	; <UNPREDICTABLE>
    12b8:	000002fd 	strdeq	r0, [r0], -sp
    12bc:	14026705 	strne	r6, [r2], #-1797	; 0xfffff8fb
    12c0:	0000069a 	muleq	r0, sl, r6
    12c4:	02b41808 	adcseq	r1, r4, #8, 16	; 0x80000
    12c8:	67050000 	strvs	r0, [r5, -r0]
    12cc:	069a1e02 	ldreq	r1, [sl], r2, lsl #28
    12d0:	180c0000 	stmdane	ip, {}	; <UNPREDICTABLE>
    12d4:	000005e2 	andeq	r0, r0, r2, ror #11
    12d8:	08026905 	stmdaeq	r2, {r0, r2, r8, fp, sp, lr}
    12dc:	00000025 	andeq	r0, r0, r5, lsr #32
    12e0:	05f61810 	ldrbeq	r1, [r6, #2064]!	; 0x810
    12e4:	6a050000 	bvs	1412ec <__bss_end__+0x137aec>
    12e8:	089a0802 	ldmeq	sl, {r1, fp}
    12ec:	18140000 	ldmdane	r4, {}	; <UNPREDICTABLE>
    12f0:	0000056e 	andeq	r0, r0, lr, ror #10
    12f4:	07026d05 	streq	r6, [r2, -r5, lsl #26]
    12f8:	00000025 	andeq	r0, r0, r5, lsr #32
    12fc:	055c1830 	ldrbeq	r1, [ip, #-2096]	; 0xfffff7d0
    1300:	6e050000 	cdpvs	0, 0, cr0, cr5, cr0, {0}
    1304:	08af1602 	stmiaeq	pc!, {r1, r9, sl, ip}	; <UNPREDICTABLE>
    1308:	18340000 	ldmdane	r4!, {}	; <UNPREDICTABLE>
    130c:	00000481 	andeq	r0, r0, r1, lsl #9
    1310:	07027005 	streq	r7, [r2, -r5]
    1314:	00000025 	andeq	r0, r0, r5, lsr #32
    1318:	05641838 	strbeq	r1, [r4, #-2104]!	; 0xfffff7c8
    131c:	72050000 	andvc	r0, r5, #0, 0
    1320:	08c00a02 	stmiaeq	r0, {r1, r9, fp}^
    1324:	183c0000 	ldmdane	ip!, {}	; <UNPREDICTABLE>
    1328:	0000039c 	muleq	r0, ip, r3
    132c:	13027505 	movwne	r7, #9477	; 0x2505
    1330:	0000018f 	andeq	r0, r0, pc, lsl #3
    1334:	02d31840 	sbcseq	r1, r3, #64, 16	; 0x400000
    1338:	76050000 	strvc	r0, [r5], -r0
    133c:	00250702 	eoreq	r0, r5, r2, lsl #14
    1340:	18440000 	stmdane	r4, {}^	; <UNPREDICTABLE>
    1344:	00000783 	andeq	r0, r0, r3, lsl #15
    1348:	13027705 	movwne	r7, #9989	; 0x2705
    134c:	0000018f 	andeq	r0, r0, pc, lsl #3
    1350:	04a01848 	strteq	r1, [r0], #2120	; 0x848
    1354:	78050000 	stmdavc	r5, {}	; <UNPREDICTABLE>
    1358:	08c61402 	stmiaeq	r6, {r1, sl, ip}^
    135c:	184c0000 	stmdane	ip, {}^	; <UNPREDICTABLE>
    1360:	00000305 	andeq	r0, r0, r5, lsl #6
    1364:	07027b05 	streq	r7, [r2, -r5, lsl #22]
    1368:	00000025 	andeq	r0, r0, r5, lsr #32
    136c:	02471850 	subeq	r1, r7, #80, 16	; 0x500000
    1370:	7c050000 	stcvc	0, cr0, [r5], {-0}
    1374:	01170902 	tsteq	r7, r2, lsl #18
    1378:	18540000 	ldmdane	r4, {}^	; <UNPREDICTABLE>
    137c:	000004ed 	andeq	r0, r0, sp, ror #9
    1380:	07029f05 	streq	r9, [r2, -r5, lsl #30]
    1384:	00000875 	andeq	r0, r0, r5, ror r8
    1388:	046d1958 	strbteq	r1, [sp], #-2392	; 0xfffff6a8
    138c:	a3050000 	movwge	r0, #20480	; 0x5000
    1390:	02c01302 	sbceq	r1, r0, #134217728	; 0x8000000
    1394:	01480000 	mrseq	r0, (UNDEF: 72)
    1398:	00036e19 	andeq	r6, r3, r9, lsl lr
    139c:	02a40500 	adceq	r0, r4, #0, 10
    13a0:	00027d12 	andeq	r7, r2, r2, lsl sp
    13a4:	19014c00 	stmdbne	r1, {sl, fp, lr}
    13a8:	0000071f 	andeq	r0, r0, pc, lsl r7
    13ac:	0c02a805 	stceq	8, cr10, [r2], {5}
    13b0:	000008d7 	ldrdeq	r0, [r0], -r7
    13b4:	f11902dc 			; <UNDEFINED> instruction: 0xf11902dc
    13b8:	05000001 	streq	r0, [r0, #-1]
    13bc:	5b1002ad 	blpl	401e78 <__bss_end__+0x3f8678>
    13c0:	e0000006 	and	r0, r0, r6
    13c4:	01bb1902 			; <UNDEFINED> instruction: 0x01bb1902
    13c8:	af050000 	svcge	0x00050000
    13cc:	08e30a02 	stmiaeq	r3!, {r1, r9, fp}^
    13d0:	02ec0000 	rsceq	r0, ip, #0, 0
    13d4:	4e040600 	cfmadd32mi	mvax0, mvfx0, mvfx4, mvfx0
    13d8:	15000004 	strne	r0, [r0, #-4]
    13dc:	00000025 	andeq	r0, r0, r5, lsr #32
    13e0:	000005e4 	andeq	r0, r0, r4, ror #11
    13e4:	00046c16 	andeq	r6, r4, r6, lsl ip
    13e8:	006b1600 	rsbeq	r1, fp, r0, lsl #12
    13ec:	e4160000 	ldr	r0, [r6], #-0
    13f0:	16000005 	strne	r0, [r0], -r5
    13f4:	00000025 	andeq	r0, r0, r5, lsr #32
    13f8:	24040600 	strcs	r0, [r4], #-1536	; 0xfffffa00
    13fc:	06000001 	streq	r0, [r0], -r1
    1400:	0005c604 	andeq	ip, r5, r4, lsl #12
    1404:	00901500 	addseq	r1, r0, r0, lsl #10
    1408:	060e0000 	streq	r0, [lr], -r0
    140c:	6c160000 	ldcvs	0, cr0, [r6], {-0}
    1410:	16000004 	strne	r0, [r0], -r4
    1414:	0000006b 	andeq	r0, r0, fp, rrx
    1418:	00009016 	andeq	r9, r0, r6, lsl r0
    141c:	00251600 	eoreq	r1, r5, r0, lsl #12
    1420:	06000000 	streq	r0, [r0], -r0
    1424:	0005f004 	andeq	pc, r5, r4
    1428:	00251500 	eoreq	r1, r5, r0, lsl #10
    142c:	06280000 	strteq	r0, [r8], -r0
    1430:	6c160000 	ldcvs	0, cr0, [r6], {-0}
    1434:	16000004 	strne	r0, [r0], -r4
    1438:	0000006b 	andeq	r0, r0, fp, rrx
    143c:	14040600 	strne	r0, [r4], #-1536	; 0xfffffa00
    1440:	0b000006 	bleq	1460 <__code_start__-0x6ba0>
    1444:	0000004f 	andeq	r0, r0, pc, asr #32
    1448:	0000063e 	andeq	r0, r0, lr, lsr r6
    144c:	00002c0c 	andeq	r2, r0, ip, lsl #24
    1450:	0b000200 	bleq	1c58 <__code_start__-0x63a8>
    1454:	0000004f 	andeq	r0, r0, pc, asr #32
    1458:	0000064e 	andeq	r0, r0, lr, asr #12
    145c:	00002c0c 	andeq	r2, r0, ip, lsl #24
    1460:	08000000 	stmdaeq	r0, {}	; <UNPREDICTABLE>
    1464:	0000051c 	andeq	r0, r0, ip, lsl r5
    1468:	1a011f05 	bne	49084 <__bss_end__+0x3f884>
    146c:	0000030b 	andeq	r0, r0, fp, lsl #6
    1470:	0006fa1a 	andeq	pc, r6, sl, lsl sl	; <UNPREDICTABLE>
    1474:	23050c00 	movwcs	r0, #23552	; 0x5c00
    1478:	06940801 	ldreq	r0, [r4], r1, lsl #16
    147c:	44180000 	ldrmi	r0, [r8], #-0
    1480:	05000005 	streq	r0, [r0, #-5]
    1484:	94110125 	ldrls	r0, [r1], #-293	; 0xfffffedb
    1488:	00000006 	andeq	r0, r0, r6
    148c:	00034118 	andeq	r4, r3, r8, lsl r1
    1490:	01260500 			; <UNDEFINED> instruction: 0x01260500
    1494:	00002507 	andeq	r2, r0, r7, lsl #10
    1498:	16180400 	ldrne	r0, [r8], -r0, lsl #8
    149c:	05000005 	streq	r0, [r0, #-5]
    14a0:	9a0b0127 	bls	2c1944 <__bss_end__+0x2b8144>
    14a4:	08000006 	stmdaeq	r0, {r1, r2}
    14a8:	5b040600 	blpl	102cb0 <__bss_end__+0xf94b0>
    14ac:	06000006 	streq	r0, [r0], -r6
    14b0:	00064e04 	andeq	r4, r6, r4, lsl #28
    14b4:	00191a00 	andseq	r1, r9, r0, lsl #20
    14b8:	050e0000 	streq	r0, [lr, #-0]
    14bc:	d908013f 	stmdble	r8, {r0, r1, r2, r3, r4, r5, r8}
    14c0:	18000006 	stmdane	r0, {r1, r2}
    14c4:	00000596 	muleq	r0, r6, r5
    14c8:	12014005 	andne	r4, r1, #5, 0
    14cc:	000006d9 	ldrdeq	r0, [r0], -r9
    14d0:	06011800 	streq	r1, [r1], -r0, lsl #16
    14d4:	41050000 	mrsmi	r0, (UNDEF: 5)
    14d8:	06d91201 	ldrbeq	r1, [r9], r1, lsl #4
    14dc:	18060000 	stmdane	r6, {}	; <UNPREDICTABLE>
    14e0:	00000641 	andeq	r0, r0, r1, asr #12
    14e4:	12014205 	andne	r4, r1, #1342177280	; 0x50000000
    14e8:	00000056 	andeq	r0, r0, r6, asr r0
    14ec:	560b000c 	strpl	r0, [fp], -ip
    14f0:	e9000000 	stmdb	r0, {}	; <UNPREDICTABLE>
    14f4:	0c000006 	stceq	0, cr0, [r0], {6}
    14f8:	0000002c 	andeq	r0, r0, ip, lsr #32
    14fc:	d01b0002 	andsle	r0, fp, r2
    1500:	07028005 	streq	r8, [r2, -r5]
    1504:	000007fe 	strdeq	r0, [r0], -lr
    1508:	0006cf18 	andeq	ip, r6, r8, lsl pc
    150c:	02820500 	addeq	r0, r2, #0, 10
    1510:	00002c18 	andeq	r2, r0, r8, lsl ip
    1514:	0e180000 	cdpeq	0, 1, cr0, cr8, cr0, {0}
    1518:	05000006 	streq	r0, [r0, #-6]
    151c:	17120283 	ldrne	r0, [r2, -r3, lsl #5]
    1520:	04000001 	streq	r0, [r0], #-1
    1524:	00038318 	andeq	r8, r3, r8, lsl r3
    1528:	02840500 	addeq	r0, r4, #0, 10
    152c:	0007fe10 	andeq	pc, r7, r0, lsl lr	; <UNPREDICTABLE>
    1530:	5a180800 	bpl	603538 <__bss_end__+0x5f9d38>
    1534:	05000007 	streq	r0, [r0, #-7]
    1538:	a5170285 	ldrge	r0, [r7, #-645]	; 0xfffffd7b
    153c:	24000001 	strcs	r0, [r0], #-1
    1540:	0002c418 	andeq	ip, r2, r8, lsl r4
    1544:	02860500 	addeq	r0, r6, #0, 10
    1548:	0000250f 	andeq	r2, r0, pc, lsl #10
    154c:	3f184800 	svccc	0x00184800
    1550:	05000005 	streq	r0, [r0, #-5]
    1554:	642c0287 	strtvs	r0, [ip], #-647	; 0xfffffd79
    1558:	50000000 	andpl	r0, r0, r0
    155c:	00077018 	andeq	r7, r7, r8, lsl r0
    1560:	02880500 	addeq	r0, r8, #0, 10
    1564:	0006a01a 	andeq	sl, r6, sl, lsl r0
    1568:	4a185800 	bmi	617570 <__bss_end__+0x60dd70>
    156c:	05000005 	streq	r0, [r0, #-5]
    1570:	ff160289 			; <UNDEFINED> instruction: 0xff160289
    1574:	68000000 	stmdavs	r0, {}	; <UNPREDICTABLE>
    1578:	00077518 	andeq	r7, r7, r8, lsl r5
    157c:	028a0500 	addeq	r0, sl, #0, 10
    1580:	0000ff16 	andeq	pc, r0, r6, lsl pc	; <UNPREDICTABLE>
    1584:	bc187000 	ldclt	0, cr7, [r8], {-0}
    1588:	05000004 	streq	r0, [r0, #-4]
    158c:	ff16028b 			; <UNDEFINED> instruction: 0xff16028b
    1590:	78000000 	stmdavc	r0, {}	; <UNPREDICTABLE>
    1594:	00071518 	andeq	r1, r7, r8, lsl r5
    1598:	028c0500 	addeq	r0, ip, #0, 10
    159c:	00080e10 	andeq	r0, r8, r0, lsl lr
    15a0:	77188000 	ldrvc	r8, [r8, -r0]
    15a4:	05000003 	streq	r0, [r0, #-3]
    15a8:	1e10028d 	cdpne	2, 1, cr0, cr0, cr13, {4}
    15ac:	88000008 	stmdahi	r0, {r3}
    15b0:	00068c18 	andeq	r8, r6, r8, lsl ip
    15b4:	028e0500 	addeq	r0, lr, #0, 10
    15b8:	0000250f 	andeq	r2, r0, pc, lsl #10
    15bc:	7f18a000 	svcvc	0x0018a000
    15c0:	05000002 	streq	r0, [r0, #-2]
    15c4:	ff16028f 			; <UNDEFINED> instruction: 0xff16028f
    15c8:	a4000000 	strge	r0, [r0], #-0
    15cc:	00015e18 	andeq	r5, r1, r8, lsl lr
    15d0:	02900500 	addseq	r0, r0, #0, 10
    15d4:	0000ff16 	andeq	pc, r0, r6, lsl pc	; <UNPREDICTABLE>
    15d8:	6e18ac00 	cdpvs	12, 1, cr10, cr8, cr0, {0}
    15dc:	05000002 	streq	r0, [r0, #-2]
    15e0:	ff160291 			; <UNDEFINED> instruction: 0xff160291
    15e4:	b4000000 	strlt	r0, [r0], #-0
    15e8:	0000f918 	andeq	pc, r0, r8, lsl r9	; <UNPREDICTABLE>
    15ec:	02920500 	addseq	r0, r2, #0, 10
    15f0:	0000ff16 	andeq	pc, r0, r6, lsl pc	; <UNPREDICTABLE>
    15f4:	0818bc00 	ldmdaeq	r8, {sl, fp, ip, sp, pc}
    15f8:	05000001 	streq	r0, [r0, #-1]
    15fc:	ff160293 			; <UNDEFINED> instruction: 0xff160293
    1600:	c4000000 	strgt	r0, [r0], #-0
    1604:	0004f218 	andeq	pc, r4, r8, lsl r2	; <UNPREDICTABLE>
    1608:	02940500 	addseq	r0, r4, #0, 10
    160c:	00002508 	andeq	r2, r0, r8, lsl #10
    1610:	0b00cc00 	bleq	34618 <__bss_end__+0x2ae18>
    1614:	0000011d 	andeq	r0, r0, sp, lsl r1
    1618:	0000080e 	andeq	r0, r0, lr, lsl #16
    161c:	00002c0c 	andeq	r2, r0, ip, lsl #24
    1620:	0b001900 	bleq	7a28 <__code_start__-0x5d8>
    1624:	0000011d 	andeq	r0, r0, sp, lsl r1
    1628:	0000081e 	andeq	r0, r0, lr, lsl r8
    162c:	00002c0c 	andeq	r2, r0, ip, lsl #24
    1630:	0b000700 	bleq	3238 <__code_start__-0x4dc8>
    1634:	0000011d 	andeq	r0, r0, sp, lsl r1
    1638:	0000082e 	andeq	r0, r0, lr, lsr #16
    163c:	00002c0c 	andeq	r2, r0, ip, lsl #24
    1640:	1b001700 	blne	7248 <__code_start__-0xdb8>
    1644:	029905f0 	addseq	r0, r9, #240, 10	; 0x3c000000
    1648:	00085507 	andeq	r5, r8, r7, lsl #10
    164c:	042f1800 	strteq	r1, [pc], #-2048	; 1654 <__code_start__-0x69ac>
    1650:	9c050000 	stcls	0, cr0, [r5], {-0}
    1654:	08551b02 	ldmdaeq	r5, {r1, r8, r9, fp, ip}^
    1658:	18000000 	stmdane	r0, {}	; <UNPREDICTABLE>
    165c:	0000070c 	andeq	r0, r0, ip, lsl #14
    1660:	18029d05 	stmdane	r2, {r0, r2, r8, sl, fp, ip, pc}
    1664:	00000865 	andeq	r0, r0, r5, ror #16
    1668:	050b0078 	streq	r0, [fp, #-120]	; 0xffffff88
    166c:	65000003 	strvs	r0, [r0, #-3]
    1670:	0c000008 	stceq	0, cr0, [r0], {8}
    1674:	0000002c 	andeq	r0, r0, ip, lsr #32
    1678:	2c0b001d 	stccs	0, cr0, [fp], {29}
    167c:	75000000 	strvc	r0, [r0, #-0]
    1680:	0c000008 	stceq	0, cr0, [r0], {8}
    1684:	0000002c 	andeq	r0, r0, ip, lsr #32
    1688:	f01c001d 			; <UNDEFINED> instruction: 0xf01c001d
    168c:	03027e05 	movweq	r7, #11781	; 0x2e05
    1690:	0000089a 	muleq	r0, sl, r8
    1694:	00058f1d 	andeq	r8, r5, sp, lsl pc
    1698:	02950500 	addseq	r0, r5, #0, 10
    169c:	0006e90b 	andeq	lr, r6, fp, lsl #18
    16a0:	07381d00 	ldreq	r1, [r8, -r0, lsl #26]!
    16a4:	9e050000 	cdpls	0, 0, cr0, cr5, cr0, {0}
    16a8:	082e0b02 	stmdaeq	lr!, {r1, r8, r9, fp}
    16ac:	0b000000 	bleq	16b4 <__code_start__-0x694c>
    16b0:	0000011d 	andeq	r0, r0, sp, lsl r1
    16b4:	000008aa 	andeq	r0, r0, sl, lsr #17
    16b8:	00002c0c 	andeq	r2, r0, ip, lsl #24
    16bc:	07001800 	streq	r1, [r0, -r0, lsl #16]
    16c0:	00000144 	andeq	r0, r0, r4, asr #2
    16c4:	08aa0406 	stmiaeq	sl!, {r1, r2, sl}
    16c8:	c01e0000 	andsgt	r0, lr, r0
    16cc:	16000008 	strne	r0, [r0], -r8
    16d0:	0000046c 	andeq	r0, r0, ip, ror #8
    16d4:	b5040600 	strlt	r0, [r4, #-1536]	; 0xfffffa00
    16d8:	06000008 	streq	r0, [r0], -r8
    16dc:	00018f04 	andeq	r8, r1, r4, lsl #30
    16e0:	08d71e00 	ldmeq	r7, {r9, sl, fp, ip}^
    16e4:	25160000 	ldrcs	r0, [r6, #-0]
    16e8:	00000000 	andeq	r0, r0, r0
    16ec:	08dd0406 	ldmeq	sp, {r1, r2, sl}^
    16f0:	04060000 	streq	r0, [r6], #-0
    16f4:	000008cc 	andeq	r0, r0, ip, asr #17
    16f8:	00064e0b 	andeq	r4, r6, fp, lsl #28
    16fc:	0008f300 	andeq	pc, r8, r0, lsl #6
    1700:	002c0c00 	eoreq	r0, ip, r0, lsl #24
    1704:	00020000 	andeq	r0, r2, r0
    1708:	0006a01f 	andeq	sl, r6, pc, lsl r0
    170c:	032e0500 			; <UNDEFINED> instruction: 0x032e0500
    1710:	00046c17 	andeq	r6, r4, r7, lsl ip
    1714:	06991f00 	ldreq	r1, [r9], r0, lsl #30
    1718:	2f050000 	svccs	0x00050000
    171c:	04721d03 	ldrbteq	r1, [r2], #-3331	; 0xfffff2fd
    1720:	07200000 	streq	r0, [r0, -r0]!
    1724:	00002c04 	andeq	r2, r0, r4, lsl #24
    1728:	06140700 	ldreq	r0, [r4], -r0, lsl #14
    172c:	0000097f 	andeq	r0, r0, pc, ror r9
    1730:	00023e21 	andeq	r3, r2, r1, lsr #28
    1734:	00b20000 	adcseq	r0, r2, r0
    1738:	041d2120 	ldreq	r2, [sp], #-288	; 0xfffffee0
    173c:	b2000000 	andlt	r0, r0, #0, 0
    1740:	25212000 	strcs	r2, [r1, #-0]!
    1744:	04000003 	streq	r0, [r0], #-3
    1748:	212000b2 	strhcs	r0, [r0, -r2]!
    174c:	00000333 	andeq	r0, r0, r3, lsr r3
    1750:	2000b208 	andcs	fp, r0, r8, lsl #4
    1754:	00070021 	andeq	r0, r7, r1, lsr #32
    1758:	00b20c00 	adcseq	r0, r2, r0, lsl #24
    175c:	03b22120 			; <UNDEFINED> instruction: 0x03b22120
    1760:	b2100000 	andslt	r0, r0, #0, 0
    1764:	f3212000 	vhadd.u32	d2, d1, d0
    1768:	14000003 	strne	r0, [r0], #-3
    176c:	212000b2 	strhcs	r0, [r0, -r2]!
    1770:	000004aa 	andeq	r0, r0, sl, lsr #9
    1774:	2000b218 	andcs	fp, r0, r8, lsl r2
    1778:	00040e21 	andeq	r0, r4, r1, lsr #28
    177c:	00b21c00 	adcseq	r1, r2, r0, lsl #24
    1780:	014f2120 	cmpeq	pc, r0, lsr #2
    1784:	b2200000 	eorlt	r0, r0, #0, 0
    1788:	48212000 	stmdami	r1!, {sp}
    178c:	24000003 	strcs	r0, [r0], #-3
    1790:	002000b2 	strhteq	r0, [r0], -r2
    1794:	0007c922 	andeq	ip, r7, r2, lsr #18
    1798:	06300100 	ldrteq	r0, [r0], -r0, lsl #2
    179c:	00008408 	andeq	r8, r0, r8, lsl #8
    17a0:	0000003c 	andeq	r0, r0, ip, lsr r0
    17a4:	0a029c01 	beq	a87b0 <__bss_end__+0x9efb0>
    17a8:	70230000 	eorvc	r0, r3, r0
    17ac:	30010063 	andcc	r0, r1, r3, rrx
    17b0:	00002c21 	andeq	r2, r0, r1, lsr #24
    17b4:	00010200 	andeq	r0, r1, r0, lsl #4
    17b8:	0000fc00 	andeq	pc, r0, r0, lsl #24
    17bc:	081f2400 	ldmdaeq	pc, {sl, sp}	; <UNPREDICTABLE>
    17c0:	0a120000 	beq	4817c8 <__bss_end__+0x477fc8>
    17c4:	03050000 	movweq	r0, #20480	; 0x5000
    17c8:	000093a0 	andeq	r9, r0, r0, lsr #7
    17cc:	00843025 	addeq	r3, r4, r5, lsr #32
    17d0:	000dbd00 	andeq	fp, sp, r0, lsl #26
    17d4:	0009f800 	andeq	pc, r9, r0, lsl #16
    17d8:	50012600 	andpl	r2, r1, r0, lsl #12
    17dc:	928c0305 	addls	r0, ip, #335544320	; 0x14000000
    17e0:	01260000 			; <UNDEFINED> instruction: 0x01260000
    17e4:	7c030551 	cfstr32vc	mvfx0, [r3], {81}	; 0x51
    17e8:	26000092 			; <UNDEFINED> instruction: 0x26000092
    17ec:	03055201 	movweq	r5, #20993	; 0x5201
    17f0:	000093a0 	andeq	r9, r0, r0, lsr #7
    17f4:	02530126 	subseq	r0, r3, #-2147483639	; 0x80000009
    17f8:	02263108 	eoreq	r3, r6, #2
    17fc:	0305007d 	movweq	r0, #20605	; 0x507d
    1800:	00009318 	andeq	r9, r0, r8, lsl r3
    1804:	047d0226 	ldrbteq	r0, [sp], #-550	; 0xfffffdda
    1808:	5001f303 	andpl	pc, r1, r3, lsl #6
    180c:	84342700 	ldrthi	r2, [r4], #-1792	; 0xfffff900
    1810:	0dc90000 	stcleq	0, cr0, [r9]
    1814:	0b000000 	bleq	181c <__code_start__-0x67e4>
    1818:	00000124 	andeq	r0, r0, r4, lsr #2
    181c:	00000a12 	andeq	r0, r0, r2, lsl sl
    1820:	00002c0c 	andeq	r2, r0, ip, lsl #24
    1824:	0f001100 	svceq	0x00001100
    1828:	00000a02 	andeq	r0, r0, r2, lsl #20
    182c:	0007f822 	andeq	pc, r7, r2, lsr #16
    1830:	062d0100 	strteq	r0, [sp], -r0, lsl #2
    1834:	000083cc 	andeq	r8, r0, ip, asr #7
    1838:	0000003c 	andeq	r0, r0, ip, lsr r0
    183c:	0a9a9c01 	beq	fe6a8848 <__bss_end__+0xfe69f048>
    1840:	70230000 	eorvc	r0, r3, r0
    1844:	2d010063 	stccs	0, cr0, [r1, #-396]	; 0xfffffe74
    1848:	00002c25 	andeq	r2, r0, r5, lsr #24
    184c:	00013500 	andeq	r3, r1, r0, lsl #10
    1850:	00012f00 	andeq	r2, r1, r0, lsl #30
    1854:	081f2400 	ldmdaeq	pc, {sl, sp}	; <UNPREDICTABLE>
    1858:	0aaa0000 	beq	fea81860 <__bss_end__+0xfea78060>
    185c:	03050000 	movweq	r0, #20480	; 0x5000
    1860:	00009388 	andeq	r9, r0, r8, lsl #7
    1864:	0083f425 	addeq	pc, r3, r5, lsr #8
    1868:	000dbd00 	andeq	fp, sp, r0, lsl #26
    186c:	000a9000 	andeq	r9, sl, r0
    1870:	50012600 	andpl	r2, r1, r0, lsl #12
    1874:	928c0305 	addls	r0, ip, #335544320	; 0x14000000
    1878:	01260000 			; <UNDEFINED> instruction: 0x01260000
    187c:	7c030551 	cfstr32vc	mvfx0, [r3], {81}	; 0x51
    1880:	26000092 			; <UNDEFINED> instruction: 0x26000092
    1884:	03055201 	movweq	r5, #20993	; 0x5201
    1888:	00009388 	andeq	r9, r0, r8, lsl #7
    188c:	02530126 	subseq	r0, r3, #-2147483639	; 0x80000009
    1890:	02262e08 	eoreq	r2, r6, #8, 28	; 0x80
    1894:	0305007d 	movweq	r0, #20605	; 0x507d
    1898:	00009308 	andeq	r9, r0, r8, lsl #6
    189c:	047d0226 	ldrbteq	r0, [sp], #-550	; 0xfffffdda
    18a0:	5001f303 	andpl	pc, r1, r3, lsl #6
    18a4:	83f82700 	mvnshi	r2, #0, 14
    18a8:	0dc90000 	stcleq	0, cr0, [r9]
    18ac:	0b000000 	bleq	18b4 <__code_start__-0x674c>
    18b0:	00000124 	andeq	r0, r0, r4, lsr #2
    18b4:	00000aaa 	andeq	r0, r0, sl, lsr #21
    18b8:	00002c0c 	andeq	r2, r0, ip, lsl #24
    18bc:	0f001500 	svceq	0x00001500
    18c0:	00000a9a 	muleq	r0, sl, sl
    18c4:	0007db22 	andeq	sp, r7, r2, lsr #22
    18c8:	062a0100 	strteq	r0, [sl], -r0, lsl #2
    18cc:	00008390 	muleq	r0, r0, r3
    18d0:	0000003c 	andeq	r0, r0, ip, lsr r0
    18d4:	0b329c01 	bleq	ca88e0 <__bss_end__+0xc9f0e0>
    18d8:	70230000 	eorvc	r0, r3, r0
    18dc:	2a010063 	bcs	41a70 <__bss_end__+0x38270>
    18e0:	00002c2c 	andeq	r2, r0, ip, lsr #24
    18e4:	00016800 	andeq	r6, r1, r0, lsl #16
    18e8:	00016200 	andeq	r6, r1, r0, lsl #4
    18ec:	081f2400 	ldmdaeq	pc, {sl, sp}	; <UNPREDICTABLE>
    18f0:	0b420000 	bleq	10818f8 <__bss_end__+0x10780f8>
    18f4:	03050000 	movweq	r0, #20480	; 0x5000
    18f8:	00009368 	andeq	r9, r0, r8, ror #6
    18fc:	0083b825 	addeq	fp, r3, r5, lsr #16
    1900:	000dbd00 	andeq	fp, sp, r0, lsl #26
    1904:	000b2800 	andeq	r2, fp, r0, lsl #16
    1908:	50012600 	andpl	r2, r1, r0, lsl #12
    190c:	928c0305 	addls	r0, ip, #335544320	; 0x14000000
    1910:	01260000 			; <UNDEFINED> instruction: 0x01260000
    1914:	7c030551 	cfstr32vc	mvfx0, [r3], {81}	; 0x51
    1918:	26000092 			; <UNDEFINED> instruction: 0x26000092
    191c:	03055201 	movweq	r5, #20993	; 0x5201
    1920:	00009368 	andeq	r9, r0, r8, ror #6
    1924:	02530126 	subseq	r0, r3, #-2147483639	; 0x80000009
    1928:	02262b08 	eoreq	r2, r6, #8, 22	; 0x2000
    192c:	0305007d 	movweq	r0, #20605	; 0x507d
    1930:	000092f0 	strdeq	r9, [r0], -r0
    1934:	047d0226 	ldrbteq	r0, [sp], #-550	; 0xfffffdda
    1938:	5001f303 	andpl	pc, r1, r3, lsl #6
    193c:	83bc2700 			; <UNDEFINED> instruction: 0x83bc2700
    1940:	0dc90000 	stcleq	0, cr0, [r9]
    1944:	0b000000 	bleq	194c <__code_start__-0x66b4>
    1948:	00000124 	andeq	r0, r0, r4, lsr #2
    194c:	00000b42 	andeq	r0, r0, r2, asr #22
    1950:	00002c0c 	andeq	r2, r0, ip, lsl #24
    1954:	0f001c00 	svceq	0x00001c00
    1958:	00000b32 	andeq	r0, r0, r2, lsr fp
    195c:	00086a22 	andeq	r6, r8, r2, lsr #20
    1960:	06270100 	strteq	r0, [r7], -r0, lsl #2
    1964:	00008354 	andeq	r8, r0, r4, asr r3
    1968:	0000003c 	andeq	r0, r0, ip, lsr r0
    196c:	0bca9c01 	bleq	ff2a8978 <__bss_end__+0xff29f178>
    1970:	70230000 	eorvc	r0, r3, r0
    1974:	27010063 	strcs	r0, [r1, -r3, rrx]
    1978:	00002c1c 	andeq	r2, r0, ip, lsl ip
    197c:	00019b00 	andeq	r9, r1, r0, lsl #22
    1980:	00019500 	andeq	r9, r1, r0, lsl #10
    1984:	081f2400 	ldmdaeq	pc, {sl, sp}	; <UNPREDICTABLE>
    1988:	0bda0000 	bleq	ff681990 <__bss_end__+0xff678190>
    198c:	03050000 	movweq	r0, #20480	; 0x5000
    1990:	00009358 	andeq	r9, r0, r8, asr r3
    1994:	00837c25 	addeq	r7, r3, r5, lsr #24
    1998:	000dbd00 	andeq	fp, sp, r0, lsl #26
    199c:	000bc000 	andeq	ip, fp, r0
    19a0:	50012600 	andpl	r2, r1, r0, lsl #12
    19a4:	928c0305 	addls	r0, ip, #335544320	; 0x14000000
    19a8:	01260000 			; <UNDEFINED> instruction: 0x01260000
    19ac:	7c030551 	cfstr32vc	mvfx0, [r3], {81}	; 0x51
    19b0:	26000092 			; <UNDEFINED> instruction: 0x26000092
    19b4:	03055201 	movweq	r5, #20993	; 0x5201
    19b8:	00009358 	andeq	r9, r0, r8, asr r3
    19bc:	02530126 	subseq	r0, r3, #-2147483639	; 0x80000009
    19c0:	02262808 	eoreq	r2, r6, #8, 16	; 0x80000
    19c4:	0305007d 	movweq	r0, #20605	; 0x507d
    19c8:	000092e0 	andeq	r9, r0, r0, ror #5
    19cc:	047d0226 	ldrbteq	r0, [sp], #-550	; 0xfffffdda
    19d0:	5001f303 	andpl	pc, r1, r3, lsl #6
    19d4:	83802700 	orrhi	r2, r0, #0, 14
    19d8:	0dc90000 	stcleq	0, cr0, [r9]
    19dc:	0b000000 	bleq	19e4 <__code_start__-0x661c>
    19e0:	00000124 	andeq	r0, r0, r4, lsr #2
    19e4:	00000bda 	ldrdeq	r0, [r0], -sl
    19e8:	00002c0c 	andeq	r2, r0, ip, lsl #24
    19ec:	0f000c00 	svceq	0x00000c00
    19f0:	00000bca 	andeq	r0, r0, sl, asr #23
    19f4:	00085022 	andeq	r5, r8, r2, lsr #32
    19f8:	06240100 	strteq	r0, [r4], -r0, lsl #2
    19fc:	00008318 	andeq	r8, r0, r8, lsl r3
    1a00:	0000003c 	andeq	r0, r0, ip, lsr r0
    1a04:	0c629c01 	stcleq	12, cr9, [r2], #-4
    1a08:	70230000 	eorvc	r0, r3, r0
    1a0c:	24010063 	strcs	r0, [r1], #-99	; 0xffffff9d
    1a10:	00002c29 	andeq	r2, r0, r9, lsr #24
    1a14:	0001ce00 	andeq	ip, r1, r0, lsl #28
    1a18:	0001c800 	andeq	ip, r1, r0, lsl #16
    1a1c:	081f2400 	ldmdaeq	pc, {sl, sp}	; <UNPREDICTABLE>
    1a20:	0c720000 	ldcleq	0, cr0, [r2], #-0
    1a24:	03050000 	movweq	r0, #20480	; 0x5000
    1a28:	0000933c 	andeq	r9, r0, ip, lsr r3
    1a2c:	00834025 	addeq	r4, r3, r5, lsr #32
    1a30:	000dbd00 	andeq	fp, sp, r0, lsl #26
    1a34:	000c5800 	andeq	r5, ip, r0, lsl #16
    1a38:	50012600 	andpl	r2, r1, r0, lsl #12
    1a3c:	928c0305 	addls	r0, ip, #335544320	; 0x14000000
    1a40:	01260000 			; <UNDEFINED> instruction: 0x01260000
    1a44:	7c030551 	cfstr32vc	mvfx0, [r3], {81}	; 0x51
    1a48:	26000092 			; <UNDEFINED> instruction: 0x26000092
    1a4c:	03055201 	movweq	r5, #20993	; 0x5201
    1a50:	0000933c 	andeq	r9, r0, ip, lsr r3
    1a54:	02530126 	subseq	r0, r3, #-2147483639	; 0x80000009
    1a58:	02262508 	eoreq	r2, r6, #8, 10	; 0x2000000
    1a5c:	0305007d 	movweq	r0, #20605	; 0x507d
    1a60:	000092d0 	ldrdeq	r9, [r0], -r0
    1a64:	047d0226 	ldrbteq	r0, [sp], #-550	; 0xfffffdda
    1a68:	5001f303 	andpl	pc, r1, r3, lsl #6
    1a6c:	83442700 	movthi	r2, #18176	; 0x4700
    1a70:	0dc90000 	stcleq	0, cr0, [r9]
    1a74:	0b000000 	bleq	1a7c <__code_start__-0x6584>
    1a78:	00000124 	andeq	r0, r0, r4, lsr #2
    1a7c:	00000c72 	andeq	r0, r0, r2, ror ip
    1a80:	00002c0c 	andeq	r2, r0, ip, lsl #24
    1a84:	0f001900 	svceq	0x00001900
    1a88:	00000c62 	andeq	r0, r0, r2, ror #24
    1a8c:	00087722 	andeq	r7, r8, r2, lsr #14
    1a90:	061f0100 	ldreq	r0, [pc], -r0, lsl #2
    1a94:	000082dc 	ldrdeq	r8, [r0], -ip
    1a98:	0000003c 	andeq	r0, r0, ip, lsr r0
    1a9c:	0cfa9c01 	ldcleq	12, cr9, [sl], #4
    1aa0:	70230000 	eorvc	r0, r3, r0
    1aa4:	1f010063 	svcne	0x00010063
    1aa8:	00002c25 	andeq	r2, r0, r5, lsr #24
    1aac:	00020100 	andeq	r0, r2, r0, lsl #2
    1ab0:	0001fb00 	andeq	pc, r1, r0, lsl #22
    1ab4:	081f2400 	ldmdaeq	pc, {sl, sp}	; <UNPREDICTABLE>
    1ab8:	0aaa0000 	beq	fea81ac0 <__bss_end__+0xfea782c0>
    1abc:	03050000 	movweq	r0, #20480	; 0x5000
    1ac0:	00009324 	andeq	r9, r0, r4, lsr #6
    1ac4:	00830425 	addeq	r0, r3, r5, lsr #8
    1ac8:	000dbd00 	andeq	fp, sp, r0, lsl #26
    1acc:	000cf000 	andeq	pc, ip, r0
    1ad0:	50012600 	andpl	r2, r1, r0, lsl #12
    1ad4:	928c0305 	addls	r0, ip, #335544320	; 0x14000000
    1ad8:	01260000 			; <UNDEFINED> instruction: 0x01260000
    1adc:	7c030551 	cfstr32vc	mvfx0, [r3], {81}	; 0x51
    1ae0:	26000092 			; <UNDEFINED> instruction: 0x26000092
    1ae4:	03055201 	movweq	r5, #20993	; 0x5201
    1ae8:	00009324 	andeq	r9, r0, r4, lsr #6
    1aec:	02530126 	subseq	r0, r3, #-2147483639	; 0x80000009
    1af0:	02262008 	eoreq	r2, r6, #8, 0
    1af4:	0305007d 	movweq	r0, #20605	; 0x507d
    1af8:	000092c8 	andeq	r9, r0, r8, asr #5
    1afc:	047d0226 	ldrbteq	r0, [sp], #-550	; 0xfffffdda
    1b00:	5001f303 	andpl	pc, r1, r3, lsl #6
    1b04:	83082700 	movwhi	r2, #34560	; 0x8700
    1b08:	0dc90000 	stcleq	0, cr0, [r9]
    1b0c:	22000000 	andcs	r0, r0, #0, 0
    1b10:	00000464 	andeq	r0, r0, r4, ror #8
    1b14:	78060501 	stmdavc	r6, {r0, r8, sl}
    1b18:	64000082 	strvs	r0, [r0], #-130	; 0xffffff7e
    1b1c:	01000000 	mrseq	r0, (UNDEF: 0)
    1b20:	000db79c 	muleq	sp, ip, r7
    1b24:	080e2800 	stmdaeq	lr, {fp, sp}
    1b28:	11010000 	mrsne	r0, (UNDEF: 1)
    1b2c:	00002c15 	andeq	r2, r0, r5, lsl ip
    1b30:	082c2800 	stmdaeq	ip!, {fp, sp}
    1b34:	12010000 	andne	r0, r1, #0, 0
    1b38:	00002c15 	andeq	r2, r0, r5, lsl ip
    1b3c:	73642900 	cmnvc	r4, #0, 18
    1b40:	16010074 			; <UNDEFINED> instruction: 0x16010074
    1b44:	000db70f 	andeq	fp, sp, pc, lsl #14
    1b48:	732a0000 			; <UNDEFINED> instruction: 0x732a0000
    1b4c:	01006372 	tsteq	r0, r2, ror r3
    1b50:	0db71317 	ldceq	3, cr1, [r7, #92]!	; 0x5c
    1b54:	6e2b0000 	cdpvs	0, 2, cr0, cr11, cr0, {0}
    1b58:	12180100 	andsne	r0, r8, #0
    1b5c:	0000002c 	andeq	r0, r0, ip, lsr #32
    1b60:	00000230 	andeq	r0, r0, r0, lsr r2
    1b64:	0000022e 	andeq	r0, r0, lr, lsr #4
    1b68:	0082a82c 	addeq	sl, r2, ip, lsr #16
    1b6c:	00003400 	andeq	r3, r0, r0, lsl #8
    1b70:	000d7300 	andeq	r7, sp, r0, lsl #6
    1b74:	00692b00 	rsbeq	r2, r9, r0, lsl #22
    1b78:	250d1901 	strcs	r1, [sp, #-2305]	; 0xfffff6ff
    1b7c:	47000000 	strmi	r0, [r0, -r0]
    1b80:	43000002 	movwmi	r0, #2
    1b84:	00000002 	andeq	r0, r0, r2
    1b88:	00828825 	addeq	r8, r2, r5, lsr #16
    1b8c:	000dd500 	andeq	sp, sp, r0, lsl #10
    1b90:	000d9000 	andeq	r9, sp, r0
    1b94:	50012600 	andpl	r2, r1, r0, lsl #12
    1b98:	b21c0c05 	andslt	r0, ip, #1280	; 0x500
    1b9c:	01262000 			; <UNDEFINED> instruction: 0x01262000
    1ba0:	ff090251 			; <UNDEFINED> instruction: 0xff090251
    1ba4:	82942500 	addshi	r2, r4, #0, 10
    1ba8:	0dd50000 	ldcleq	0, cr0, [r5]
    1bac:	0dad0000 	stceq	0, cr0, [sp]
    1bb0:	01260000 			; <UNDEFINED> instruction: 0x01260000
    1bb4:	200c0550 	andcs	r0, ip, r0, asr r5
    1bb8:	262000b2 			; <UNDEFINED> instruction: 0x262000b2
    1bbc:	09025101 	stmdbeq	r2, {r0, r8, ip, lr}
    1bc0:	982700ff 	stmdals	r7!, {r0, r1, r2, r3, r4, r5, r6, r7}
    1bc4:	e1000082 	smlabb	r0, r2, r0, r0
    1bc8:	0000000d 	andeq	r0, r0, sp
    1bcc:	002c0406 	eoreq	r0, ip, r6, lsl #8
    1bd0:	ec2d0000 	stc	0, cr0, [sp], #-0
    1bd4:	ec00000b 	stc	0, cr0, [r0], {11}
    1bd8:	0600000b 	streq	r0, [r0], -fp
    1bdc:	e62d0525 	strt	r0, [sp], -r5, lsr #10
    1be0:	e6000003 	str	r0, [r0], -r3
    1be4:	06000003 	streq	r0, [r0], -r3
    1be8:	e32d0660 			; <UNDEFINED> instruction: 0xe32d0660
    1bec:	e3000001 	movw	r0, #1
    1bf0:	06000001 	streq	r0, [r0], -r1
    1bf4:	902d0681 	eorls	r0, sp, r1, lsl #13
    1bf8:	90000003 	andls	r0, r0, r3
    1bfc:	06000003 	streq	r0, [r0], -r3
    1c00:	a600066e 	strge	r0, [r0], -lr, ror #12
    1c04:	0400000d 	streq	r0, [r0], #-13
    1c08:	00058300 	andeq	r8, r5, r0, lsl #6
    1c0c:	21010400 	tstcs	r1, r0, lsl #8
    1c10:	0c000000 	stceq	0, cr0, [r0], {-0}
    1c14:	000008cd 	andeq	r0, r0, sp, asr #17
    1c18:	00000646 	andeq	r0, r0, r6, asr #12
    1c1c:	00008444 	andeq	r8, r0, r4, asr #8
    1c20:	0000005c 	andeq	r0, r0, ip, asr r0
    1c24:	00000525 	andeq	r0, r0, r5, lsr #10
    1c28:	69050402 	stmdbvs	r5, {r1, sl}
    1c2c:	0300746e 	movweq	r7, #1134	; 0x46e
    1c30:	01230704 			; <UNDEFINED> instruction: 0x01230704
    1c34:	01030000 	mrseq	r0, (UNDEF: 3)
    1c38:	0004e106 	andeq	lr, r4, r6, lsl #2
    1c3c:	05020300 	streq	r0, [r2, #-768]	; 0xfffffd00
    1c40:	000004fb 	strdeq	r0, [r0], -fp
    1c44:	83050403 	movwhi	r0, #21507	; 0x5403
    1c48:	03000001 	movweq	r0, #1
    1c4c:	017e0508 	cmneq	lr, r8, lsl #10
    1c50:	01030000 	mrseq	r0, (UNDEF: 3)
    1c54:	0004df08 	andeq	sp, r4, r8, lsl #30
    1c58:	07020300 	streq	r0, [r2, -r0, lsl #6]
    1c5c:	0000035b 	andeq	r0, r0, fp, asr r3
    1c60:	0005ab04 	andeq	sl, r5, r4, lsl #22
    1c64:	19340200 	ldmdbne	r4!, {r9}
    1c68:	00000069 	andeq	r0, r0, r9, rrx
    1c6c:	1e070403 	cdpne	4, 0, cr0, cr7, cr3, {0}
    1c70:	03000001 	movweq	r0, #1
    1c74:	01190708 	tsteq	r9, r8, lsl #14
    1c78:	04050000 	streq	r0, [r5], #-0
    1c7c:	0003c004 	andeq	ip, r3, r4
    1c80:	19220300 	stmdbne	r2!, {r8, r9}
    1c84:	00000085 	andeq	r0, r0, r5, lsl #1
    1c88:	008b0406 	addeq	r0, fp, r6, lsl #8
    1c8c:	a4070000 	strge	r0, [r7], #-0
    1c90:	04000005 	streq	r0, [r0], #-5
    1c94:	0000048c 	andeq	r0, r0, ip, lsl #9
    1c98:	410e2c04 	tstmi	lr, r4, lsl #24
    1c9c:	04000000 	streq	r0, [r0], #-0
    1ca0:	000005bf 			; <UNDEFINED> instruction: 0x000005bf
    1ca4:	410e7204 	tstmi	lr, r4, lsl #4
    1ca8:	08000000 	stmdaeq	r0, {}	; <UNPREDICTABLE>
    1cac:	000003c8 	andeq	r0, r0, r8, asr #7
    1cb0:	17015e05 	strne	r5, [r1, -r5, lsl #28]
    1cb4:	0000002c 	andeq	r0, r0, ip, lsr #32
    1cb8:	a6040409 	strge	r0, [r4], -r9, lsl #8
    1cbc:	0000d703 	andeq	sp, r0, r3, lsl #14
    1cc0:	03a40a00 			; <UNDEFINED> instruction: 0x03a40a00
    1cc4:	a8040000 	stmdage	r4, {}	; <UNPREDICTABLE>
    1cc8:	0000a80c 	andeq	sl, r0, ip, lsl #16
    1ccc:	02f60a00 	rscseq	r0, r6, #0, 20
    1cd0:	a9040000 	stmdbge	r4, {}	; <UNPREDICTABLE>
    1cd4:	0000d713 	andeq	sp, r0, r3, lsl r7
    1cd8:	4f0b0000 	svcmi	0x000b0000
    1cdc:	e7000000 	str	r0, [r0, -r0]
    1ce0:	0c000000 	stceq	0, cr0, [r0], {-0}
    1ce4:	0000002c 	andeq	r0, r0, ip, lsr #32
    1ce8:	080d0003 	stmdaeq	sp, {r0, r1}
    1cec:	0b09a304 	bleq	26a904 <__bss_end__+0x261104>
    1cf0:	0e000001 	cdpeq	0, 0, cr0, cr0, cr1, {0}
    1cf4:	0000059c 	muleq	r0, ip, r5
    1cf8:	2507a504 	strcs	sl, [r7, #-1284]	; 0xfffffafc
    1cfc:	00000000 	andeq	r0, r0, r0
    1d00:	00061b0e 	andeq	r1, r6, lr, lsl #22
    1d04:	05aa0400 	streq	r0, [sl, #1024]!	; 0x400
    1d08:	000000b5 	strheq	r0, [r0], -r5
    1d0c:	23040004 	movwcs	r0, #16388	; 0x4004
    1d10:	04000005 	streq	r0, [r0], #-5
    1d14:	00e703ab 	rsceq	r0, r7, fp, lsr #7
    1d18:	ab040000 	blge	101d20 <__bss_end__+0xf8520>
    1d1c:	04000002 	streq	r0, [r0], #-2
    1d20:	00791baf 	rsbseq	r1, r9, pc, lsr #23
    1d24:	04060000 	streq	r0, [r6], #-0
    1d28:	00000129 	andeq	r0, r0, r9, lsr #2
    1d2c:	e8080103 	stmda	r8, {r0, r1, r8}
    1d30:	0f000004 	svceq	0x00000004
    1d34:	00000129 	andeq	r0, r0, r9, lsr #2
    1d38:	00068404 	andeq	r8, r6, r4, lsl #8
    1d3c:	19160600 	ldmdbne	r6, {r9, sl}
    1d40:	00000069 	andeq	r0, r0, r9, rrx
    1d44:	0002bc10 	andeq	fp, r2, r0, lsl ip
    1d48:	2f061800 	svccs	0x00061800
    1d4c:	00019b08 	andeq	r9, r1, r8, lsl #22
    1d50:	05440e00 	strbeq	r0, [r4, #-3584]	; 0xfffff200
    1d54:	31060000 	mrscc	r0, (UNDEF: 6)
    1d58:	00019b13 	andeq	r9, r1, r3, lsl fp
    1d5c:	5f110000 	svcpl	0x00110000
    1d60:	3206006b 	andcc	r0, r6, #107, 0	; 0x6b
    1d64:	00002507 	andeq	r2, r0, r7, lsl #10
    1d68:	870e0400 	strhi	r0, [lr, -r0, lsl #8]
    1d6c:	06000005 	streq	r0, [r0], -r5
    1d70:	00250b32 	eoreq	r0, r5, r2, lsr fp
    1d74:	0e080000 	cdpeq	0, 0, cr0, cr8, cr0, {0}
    1d78:	0000029a 	muleq	r0, sl, r2
    1d7c:	25143206 	ldrcs	r3, [r4, #-518]	; 0xfffffdfa
    1d80:	0c000000 	stceq	0, cr0, [r0], {-0}
    1d84:	0006eb0e 	andeq	lr, r6, lr, lsl #22
    1d88:	1b320600 	blne	c83590 <__bss_end__+0xc79d90>
    1d8c:	00000025 	andeq	r0, r0, r5, lsr #32
    1d90:	785f1110 	ldmdavc	pc, {r4, r8, ip}^	; <UNPREDICTABLE>
    1d94:	0b330600 	bleq	cc359c <__bss_end__+0xcb9d9c>
    1d98:	000001a1 	andeq	r0, r0, r1, lsr #3
    1d9c:	04060014 	streq	r0, [r6], #-20	; 0xffffffec
    1da0:	00000141 	andeq	r0, r0, r1, asr #2
    1da4:	0001350b 	andeq	r3, r1, fp, lsl #10
    1da8:	0001b100 	andeq	fp, r1, r0, lsl #2
    1dac:	002c0c00 	eoreq	r0, ip, r0, lsl #24
    1db0:	00000000 	andeq	r0, r0, r0
    1db4:	0002f110 	andeq	pc, r2, r0, lsl r1	; <UNPREDICTABLE>
    1db8:	37062400 	strcc	r2, [r6, -r0, lsl #8]
    1dbc:	00023408 	andeq	r3, r2, r8, lsl #8
    1dc0:	01750e00 	cmneq	r5, r0, lsl #28
    1dc4:	39060000 	stmdbcc	r6, {}	; <UNPREDICTABLE>
    1dc8:	00002509 	andeq	r2, r0, r9, lsl #10
    1dcc:	c70e0000 	strgt	r0, [lr, -r0]
    1dd0:	06000005 	streq	r0, [r0], -r5
    1dd4:	0025093a 	eoreq	r0, r5, sl, lsr r9
    1dd8:	0e040000 	cdpeq	0, 0, cr0, cr4, cr0, {0}
    1ddc:	00000198 	muleq	r0, r8, r1
    1de0:	25093b06 	strcs	r3, [r9, #-2822]	; 0xfffff4fa
    1de4:	08000000 	stmdaeq	r0, {}	; <UNPREDICTABLE>
    1de8:	0007a20e 	andeq	sl, r7, lr, lsl #4
    1dec:	093c0600 	ldmdbeq	ip!, {r9, sl}
    1df0:	00000025 	andeq	r0, r0, r5, lsr #32
    1df4:	045b0e0c 	ldrbeq	r0, [fp], #-3596	; 0xfffff1f4
    1df8:	3d060000 	stccc	0, cr0, [r6, #-0]
    1dfc:	00002509 	andeq	r2, r0, r9, lsl #10
    1e00:	dc0e1000 	stcle	0, cr1, [lr], {-0}
    1e04:	06000003 	streq	r0, [r0], -r3
    1e08:	0025093e 	eoreq	r0, r5, lr, lsr r9
    1e0c:	0e140000 	cdpeq	0, 1, cr0, cr4, cr0, {0}
    1e10:	000006f0 	strdeq	r0, [r0], -r0	; <UNPREDICTABLE>
    1e14:	25093f06 	strcs	r3, [r9, #-3846]	; 0xfffff0fa
    1e18:	18000000 	stmdane	r0, {}	; <UNPREDICTABLE>
    1e1c:	0005050e 	andeq	r0, r5, lr, lsl #10
    1e20:	09400600 	stmdbeq	r0, {r9, sl}^
    1e24:	00000025 	andeq	r0, r0, r5, lsr #32
    1e28:	074f0e1c 	smlaldeq	r0, pc, ip, lr	; <UNPREDICTABLE>
    1e2c:	41060000 	mrsmi	r0, (UNDEF: 6)
    1e30:	00002509 	andeq	r2, r0, r9, lsl #10
    1e34:	12002000 	andne	r2, r0, #0, 0
    1e38:	000001c0 	andeq	r0, r0, r0, asr #3
    1e3c:	4a060108 	bmi	182264 <__bss_end__+0x178a64>
    1e40:	00027908 	andeq	r7, r2, r8, lsl #18
    1e44:	028d0e00 	addeq	r0, sp, #0, 28
    1e48:	4b060000 	blmi	181e50 <__bss_end__+0x178650>
    1e4c:	0002790a 	andeq	r7, r2, sl, lsl #18
    1e50:	000e0000 	andeq	r0, lr, r0
    1e54:	06000000 	streq	r0, [r0], -r0
    1e58:	0279094c 	rsbseq	r0, r9, #76, 18	; 0x130000
    1e5c:	13800000 	orrne	r0, r0, #0, 0
    1e60:	00000623 	andeq	r0, r0, r3, lsr #12
    1e64:	350a4e06 	strcc	r4, [sl, #-3590]	; 0xfffff1fa
    1e68:	00000001 	andeq	r0, r0, r1
    1e6c:	02001301 	andeq	r1, r0, #67108864	; 0x4000000
    1e70:	51060000 	mrspl	r0, (UNDEF: 6)
    1e74:	0001350a 	andeq	r3, r1, sl, lsl #10
    1e78:	00010400 	andeq	r0, r1, r0, lsl #8
    1e7c:	0000770b 	andeq	r7, r0, fp, lsl #14
    1e80:	00028900 	andeq	r8, r2, r0, lsl #18
    1e84:	002c0c00 	eoreq	r0, ip, r0, lsl #24
    1e88:	001f0000 	andseq	r0, pc, r0
    1e8c:	00046d12 	andeq	r6, r4, r2, lsl sp
    1e90:	06019000 	streq	r9, [r1], -r0
    1e94:	02cc085d 	sbceq	r0, ip, #6094848	; 0x5d0000
    1e98:	440e0000 	strmi	r0, [lr], #-0
    1e9c:	06000005 	streq	r0, [r0], -r5
    1ea0:	02cc125e 	sbceq	r1, ip, #-536870907	; 0xe0000005
    1ea4:	0e000000 	cdpeq	0, 0, cr0, cr0, cr0, {0}
    1ea8:	00000557 	andeq	r0, r0, r7, asr r5
    1eac:	25065f06 	strcs	r5, [r6, #-3846]	; 0xfffff0fa
    1eb0:	04000000 	streq	r0, [r0], #-0
    1eb4:	0002950e 	andeq	r9, r2, lr, lsl #10
    1eb8:	09610600 	stmdbeq	r1!, {r9, sl}^
    1ebc:	000002d2 	ldrdeq	r0, [r0], -r2
    1ec0:	01c00e08 	biceq	r0, r0, r8, lsl #28
    1ec4:	62060000 	andvs	r0, r6, #0, 0
    1ec8:	0002341e 	andeq	r3, r2, lr, lsl r4
    1ecc:	06008800 	streq	r8, [r0], -r0, lsl #16
    1ed0:	00028904 	andeq	r8, r2, r4, lsl #18
    1ed4:	02e20b00 	rsceq	r0, r2, #0, 22
    1ed8:	02e20000 	rsceq	r0, r2, #0, 0
    1edc:	2c0c0000 	stccs	0, cr0, [ip], {-0}
    1ee0:	1f000000 	svcne	0x00000000
    1ee4:	e8040600 	stmda	r4, {r9, sl}
    1ee8:	14000002 	strne	r0, [r0], #-2
    1eec:	00050f10 	andeq	r0, r5, r0, lsl pc
    1ef0:	75060800 	strvc	r0, [r6, #-2048]	; 0xfffff800
    1ef4:	00031108 	andeq	r1, r3, r8, lsl #2
    1ef8:	01920e00 	orrseq	r0, r2, r0, lsl #28
    1efc:	76060000 	strvc	r0, [r6], -r0
    1f00:	00031111 	andeq	r1, r3, r1, lsl r1
    1f04:	0c0e0000 	stceq	0, cr0, [lr], {-0}
    1f08:	06000000 	streq	r0, [r0], -r0
    1f0c:	00250677 	eoreq	r0, r5, r7, ror r6
    1f10:	00040000 	andeq	r0, r4, r0
    1f14:	004f0406 	subeq	r0, pc, r6, lsl #8
    1f18:	2e100000 	cdpcs	0, 1, cr0, cr0, cr0, {0}
    1f1c:	68000005 	stmdavs	r0, {r0, r2}
    1f20:	5a08b506 	bpl	22f340 <__bss_end__+0x225b40>
    1f24:	11000004 	tstne	r0, r4
    1f28:	0600705f 			; <UNDEFINED> instruction: 0x0600705f
    1f2c:	031112b6 	tsteq	r1, #1610612747	; 0x6000000b
    1f30:	11000000 	mrsne	r0, (UNDEF: 0)
    1f34:	0600725f 			; <UNDEFINED> instruction: 0x0600725f
    1f38:	002507b7 	strhteq	r0, [r5], -r7
    1f3c:	11040000 	mrsne	r0, (UNDEF: 4)
    1f40:	0600775f 			; <UNDEFINED> instruction: 0x0600775f
    1f44:	002507b8 	strhteq	r0, [r5], -r8
    1f48:	0e080000 	cdpeq	0, 0, cr0, cr8, cr0, {0}
    1f4c:	000001f9 	strdeq	r0, [r0], -r9
    1f50:	3a09b906 	bcc	270370 <__bss_end__+0x266b70>
    1f54:	0c000000 	stceq	0, cr0, [r0], {-0}
    1f58:	00030d0e 	andeq	r0, r3, lr, lsl #26
    1f5c:	09ba0600 	ldmibeq	sl!, {r9, sl}
    1f60:	0000003a 	andeq	r0, r0, sl, lsr r0
    1f64:	625f110e 	subsvs	r1, pc, #-2147483645	; 0x80000003
    1f68:	bb060066 	bllt	182108 <__bss_end__+0x178908>
    1f6c:	0002e911 	andeq	lr, r2, r1, lsl r9
    1f70:	3b0e1000 	blcc	385f78 <__bss_end__+0x37c778>
    1f74:	06000001 	streq	r0, [r0], -r1
    1f78:	002507bc 	strhteq	r0, [r5], -ip
    1f7c:	0e180000 	cdpeq	0, 1, cr0, cr8, cr0, {0}
    1f80:	000001e9 	andeq	r0, r0, r9, ror #3
    1f84:	770ac306 	strvc	ip, [sl, -r6, lsl #6]
    1f88:	1c000000 	stcne	0, cr0, [r0], {-0}
    1f8c:	000ed10e 	andeq	sp, lr, lr, lsl #2
    1f90:	1dc50600 	stclne	6, cr0, [r5]
    1f94:	000005cc 	andeq	r0, r0, ip, asr #11
    1f98:	0eb10e20 	cdpeq	14, 11, cr0, cr1, cr0, {1}
    1f9c:	c7060000 	strgt	r0, [r6, -r0]
    1fa0:	0005f61d 	andeq	pc, r5, sp, lsl r6	; <UNPREDICTABLE>
    1fa4:	b40e2400 	strlt	r2, [lr], #-1024	; 0xfffffc00
    1fa8:	06000005 	streq	r0, [r0], -r5
    1fac:	061a0dca 	ldreq	r0, [sl], -sl, asr #27
    1fb0:	0e280000 	cdpeq	0, 2, cr0, cr8, cr0, {0}
    1fb4:	00000769 	andeq	r0, r0, r9, ror #14
    1fb8:	3409cb06 	strcc	ip, [r9], #-2822	; 0xfffff4fa
    1fbc:	2c000006 	stccs	0, cr0, [r0], {6}
    1fc0:	62755f11 	rsbsvs	r5, r5, #68	; 0x44
    1fc4:	11ce0600 	bicne	r0, lr, r0, lsl #12
    1fc8:	000002e9 	andeq	r0, r0, r9, ror #5
    1fcc:	755f1130 	ldrbvc	r1, [pc, #-304]	; 1ea4 <__code_start__-0x615c>
    1fd0:	cf060070 	svcgt	0x00060070
    1fd4:	00031112 	andeq	r1, r3, r2, lsl r1
    1fd8:	5f113800 	svcpl	0x00113800
    1fdc:	06007275 			; <UNDEFINED> instruction: 0x06007275
    1fe0:	002507d0 	ldrdeq	r0, [r5], -r0	; <UNPREDICTABLE>
    1fe4:	0e3c0000 	cdpeq	0, 3, cr0, cr12, cr0, {0}
    1fe8:	0000018c 	andeq	r0, r0, ip, lsl #3
    1fec:	3a11d306 	bcc	476c0c <__bss_end__+0x46d40c>
    1ff0:	40000006 	andmi	r0, r0, r6
    1ff4:	0007320e 	andeq	r3, r7, lr, lsl #4
    1ff8:	11d40600 	bicsne	r0, r4, r0, lsl #12
    1ffc:	0000064a 	andeq	r0, r0, sl, asr #12
    2000:	6c5f1143 	ldfvse	f1, [pc], {67}	; 0x43
    2004:	d7060062 	strle	r0, [r6, -r2, rrx]
    2008:	0002e911 	andeq	lr, r2, r1, lsl r9
    200c:	170e4400 	strne	r4, [lr, -r0, lsl #8]
    2010:	06000002 	streq	r0, [r0], -r2
    2014:	002507da 	ldrdeq	r0, [r5], -sl	; <UNPREDICTABLE>
    2018:	0e4c0000 	cdpeq	0, 4, cr0, cr12, cr0, {0}
    201c:	0000024f 	andeq	r0, r0, pc, asr #4
    2020:	900adb06 	andls	sp, sl, r6, lsl #22
    2024:	50000000 	andpl	r0, r0, r0
    2028:	000e340e 	andeq	r3, lr, lr, lsl #8
    202c:	12de0600 	sbcsne	r0, lr, #0, 12
    2030:	00000478 	andeq	r0, r0, r8, ror r4
    2034:	05a50e54 	streq	r0, [r5, #3668]!	; 0xe54
    2038:	e2060000 	and	r0, r6, #0, 0
    203c:	0001170c 	andeq	r1, r1, ip, lsl #14
    2040:	360e5800 	strcc	r5, [lr], -r0, lsl #16
    2044:	06000005 	streq	r0, [r0], -r5
    2048:	010b0ee4 	smlatteq	fp, r4, lr, r0
    204c:	0e5c0000 	cdpeq	0, 5, cr0, cr12, cr0, {0}
    2050:	000003cf 	andeq	r0, r0, pc, asr #7
    2054:	2509e506 	strcs	lr, [r9, #-1286]	; 0xfffffafa
    2058:	64000000 	strvs	r0, [r0], #-0
    205c:	00251500 	eoreq	r1, r5, r0, lsl #10
    2060:	04780000 	ldrbteq	r0, [r8], #-0
    2064:	78160000 	ldmdavc	r6, {}	; <UNPREDICTABLE>
    2068:	16000004 	strne	r0, [r0], -r4
    206c:	00000077 	andeq	r0, r0, r7, ror r0
    2070:	00012316 	andeq	r2, r1, r6, lsl r3
    2074:	00251600 	eoreq	r1, r5, r0, lsl #12
    2078:	06000000 	streq	r0, [r0], -r0
    207c:	00048304 	andeq	r8, r4, r4, lsl #6
    2080:	04780f00 	ldrbteq	r0, [r8], #-3840	; 0xfffff100
    2084:	8f170000 	svchi	0x00170000
    2088:	28000005 	stmdacs	r0, {r0, r2}
    208c:	02600604 	rsbeq	r0, r0, #4, 12	; 0x400000
    2090:	0005cc08 	andeq	ip, r5, r8, lsl #24
    2094:	04f41800 	ldrbteq	r1, [r4], #2048	; 0x800
    2098:	62060000 	andvs	r0, r6, #0, 0
    209c:	00250702 	eoreq	r0, r5, r2, lsl #14
    20a0:	18000000 	stmdane	r0, {}	; <UNPREDICTABLE>
    20a4:	00000208 	andeq	r0, r0, r8, lsl #4
    20a8:	0b026706 	bleq	9bcc8 <__bss_end__+0x924c8>
    20ac:	000006a6 	andeq	r0, r0, r6, lsr #13
    20b0:	02fd1804 	rscseq	r1, sp, #4, 16	; 0x40000
    20b4:	67060000 	strvs	r0, [r6, -r0]
    20b8:	06a61402 	strteq	r1, [r6], r2, lsl #8
    20bc:	18080000 	stmdane	r8, {}	; <UNPREDICTABLE>
    20c0:	000002b4 			; <UNDEFINED> instruction: 0x000002b4
    20c4:	1e026706 	cdpne	7, 0, cr6, cr2, cr6, {0}
    20c8:	000006a6 	andeq	r0, r0, r6, lsr #13
    20cc:	05e2180c 	strbeq	r1, [r2, #2060]!	; 0x80c
    20d0:	69060000 	stmdbvs	r6, {}	; <UNPREDICTABLE>
    20d4:	00250802 	eoreq	r0, r5, r2, lsl #16
    20d8:	18100000 	ldmdane	r0, {}	; <UNPREDICTABLE>
    20dc:	000005f6 	strdeq	r0, [r0], -r6
    20e0:	08026a06 	stmdaeq	r2, {r1, r2, r9, fp, sp, lr}
    20e4:	000008a6 	andeq	r0, r0, r6, lsr #17
    20e8:	056e1814 	strbeq	r1, [lr, #-2068]!	; 0xfffff7ec
    20ec:	6d060000 	stcvs	0, cr0, [r6, #-0]
    20f0:	00250702 	eoreq	r0, r5, r2, lsl #14
    20f4:	18300000 	ldmdane	r0!, {}	; <UNPREDICTABLE>
    20f8:	0000055c 	andeq	r0, r0, ip, asr r5
    20fc:	16026e06 	strne	r6, [r2], -r6, lsl #28
    2100:	000008bb 			; <UNDEFINED> instruction: 0x000008bb
    2104:	04811834 	streq	r1, [r1], #2100	; 0x834
    2108:	70060000 	andvc	r0, r6, r0
    210c:	00250702 	eoreq	r0, r5, r2, lsl #14
    2110:	18380000 	ldmdane	r8!, {}	; <UNPREDICTABLE>
    2114:	00000564 	andeq	r0, r0, r4, ror #10
    2118:	0a027206 	beq	9e938 <__bss_end__+0x95138>
    211c:	000008cc 	andeq	r0, r0, ip, asr #17
    2120:	039c183c 	orrseq	r1, ip, #60, 16	; 0x3c0000
    2124:	75060000 	strvc	r0, [r6, #-0]
    2128:	019b1302 	orrseq	r1, fp, r2, lsl #6
    212c:	18400000 	stmdane	r0, {}^	; <UNPREDICTABLE>
    2130:	000002d3 	ldrdeq	r0, [r0], -r3
    2134:	07027606 	streq	r7, [r2, -r6, lsl #12]
    2138:	00000025 	andeq	r0, r0, r5, lsr #32
    213c:	07831844 	streq	r1, [r3, r4, asr #16]
    2140:	77060000 	strvc	r0, [r6, -r0]
    2144:	019b1302 	orrseq	r1, fp, r2, lsl #6
    2148:	18480000 	stmdane	r8, {}^	; <UNPREDICTABLE>
    214c:	000004a0 	andeq	r0, r0, r0, lsr #9
    2150:	14027806 	strne	r7, [r2], #-2054	; 0xfffff7fa
    2154:	000008d2 	ldrdeq	r0, [r0], -r2
    2158:	0305184c 	movweq	r1, #22604	; 0x584c
    215c:	7b060000 	blvc	182164 <__bss_end__+0x178964>
    2160:	00250702 	eoreq	r0, r5, r2, lsl #14
    2164:	18500000 	ldmdane	r0, {}^	; <UNPREDICTABLE>
    2168:	00000247 	andeq	r0, r0, r7, asr #4
    216c:	09027c06 	stmdbeq	r2, {r1, r2, sl, fp, ip, sp, lr}
    2170:	00000123 	andeq	r0, r0, r3, lsr #2
    2174:	04ed1854 	strbteq	r1, [sp], #2132	; 0x854
    2178:	9f060000 	svcls	0x00060000
    217c:	08810702 	stmeq	r1, {r1, r8, r9, sl}
    2180:	19580000 	ldmdbne	r8, {}^	; <UNPREDICTABLE>
    2184:	0000046d 	andeq	r0, r0, sp, ror #8
    2188:	1302a306 	movwne	sl, #8966	; 0x2306
    218c:	000002cc 	andeq	r0, r0, ip, asr #5
    2190:	6e190148 	mufvsem	f0, f1, #0.0
    2194:	06000003 	streq	r0, [r0], -r3
    2198:	891202a4 	ldmdbhi	r2, {r2, r5, r7, r9}
    219c:	4c000002 	stcmi	0, cr0, [r0], {2}
    21a0:	071f1901 	ldreq	r1, [pc, -r1, lsl #18]
    21a4:	a8060000 	stmdage	r6, {}	; <UNPREDICTABLE>
    21a8:	08e30c02 	stmiaeq	r3!, {r1, sl, fp}^
    21ac:	02dc0000 	sbcseq	r0, ip, #0, 0
    21b0:	0001f119 	andeq	pc, r1, r9, lsl r1	; <UNPREDICTABLE>
    21b4:	02ad0600 	adceq	r0, sp, #0, 12
    21b8:	00066710 	andeq	r6, r6, r0, lsl r7
    21bc:	1902e000 	stmdbne	r2, {sp, lr, pc}
    21c0:	000001bb 			; <UNDEFINED> instruction: 0x000001bb
    21c4:	0a02af06 	beq	adde4 <__bss_end__+0xa45e4>
    21c8:	000008ef 	andeq	r0, r0, pc, ror #17
    21cc:	060002ec 	streq	r0, [r0], -ip, ror #5
    21d0:	00045a04 	andeq	r5, r4, r4, lsl #20
    21d4:	00251500 	eoreq	r1, r5, r0, lsl #10
    21d8:	05f00000 	ldrbeq	r0, [r0, #0]!
    21dc:	78160000 	ldmdavc	r6, {}	; <UNPREDICTABLE>
    21e0:	16000004 	strne	r0, [r0], -r4
    21e4:	00000077 	andeq	r0, r0, r7, ror r0
    21e8:	0005f016 	andeq	pc, r5, r6, lsl r0	; <UNPREDICTABLE>
    21ec:	00251600 	eoreq	r1, r5, r0, lsl #12
    21f0:	06000000 	streq	r0, [r0], -r0
    21f4:	00013004 	andeq	r3, r1, r4
    21f8:	d2040600 	andle	r0, r4, #0, 12
    21fc:	15000005 	strne	r0, [r0, #-5]
    2200:	0000009c 	muleq	r0, ip, r0
    2204:	0000061a 	andeq	r0, r0, sl, lsl r6
    2208:	00047816 	andeq	r7, r4, r6, lsl r8
    220c:	00771600 	rsbseq	r1, r7, r0, lsl #12
    2210:	9c160000 	ldcls	0, cr0, [r6], {-0}
    2214:	16000000 	strne	r0, [r0], -r0
    2218:	00000025 	andeq	r0, r0, r5, lsr #32
    221c:	fc040600 	stc2	6, cr0, [r4], {-0}
    2220:	15000005 	strne	r0, [r0, #-5]
    2224:	00000025 	andeq	r0, r0, r5, lsr #32
    2228:	00000634 	andeq	r0, r0, r4, lsr r6
    222c:	00047816 	andeq	r7, r4, r6, lsl r8
    2230:	00771600 	rsbseq	r1, r7, r0, lsl #12
    2234:	06000000 	streq	r0, [r0], -r0
    2238:	00062004 	andeq	r2, r6, r4
    223c:	004f0b00 	subeq	r0, pc, r0, lsl #22
    2240:	064a0000 	strbeq	r0, [sl], -r0
    2244:	2c0c0000 	stccs	0, cr0, [ip], {-0}
    2248:	02000000 	andeq	r0, r0, #0, 0
    224c:	004f0b00 	subeq	r0, pc, r0, lsl #22
    2250:	065a0000 	ldrbeq	r0, [sl], -r0
    2254:	2c0c0000 	stccs	0, cr0, [ip], {-0}
    2258:	00000000 	andeq	r0, r0, r0
    225c:	051c0800 	ldreq	r0, [ip, #-2048]	; 0xfffff800
    2260:	1f060000 	svcne	0x00060000
    2264:	03171a01 	tsteq	r7, #4096	; 0x1000
    2268:	fa1a0000 	blx	682270 <__bss_end__+0x678a70>
    226c:	0c000006 	stceq	0, cr0, [r0], {6}
    2270:	08012306 	stmdaeq	r1, {r1, r2, r8, r9, sp}
    2274:	000006a0 	andeq	r0, r0, r0, lsr #13
    2278:	00054418 	andeq	r4, r5, r8, lsl r4
    227c:	01250600 			; <UNDEFINED> instruction: 0x01250600
    2280:	0006a011 	andeq	sl, r6, r1, lsl r0
    2284:	41180000 	tstmi	r8, r0
    2288:	06000003 	streq	r0, [r0], -r3
    228c:	25070126 	strcs	r0, [r7, #-294]	; 0xfffffeda
    2290:	04000000 	streq	r0, [r0], #-0
    2294:	00051618 	andeq	r1, r5, r8, lsl r6
    2298:	01270600 			; <UNDEFINED> instruction: 0x01270600
    229c:	0006a60b 	andeq	sl, r6, fp, lsl #12
    22a0:	06000800 	streq	r0, [r0], -r0, lsl #16
    22a4:	00066704 	andeq	r6, r6, r4, lsl #14
    22a8:	5a040600 	bpl	103ab0 <__bss_end__+0xfa2b0>
    22ac:	1a000006 	bne	22cc <__code_start__-0x5d34>
    22b0:	00000019 	andeq	r0, r0, r9, lsl r0
    22b4:	013f060e 	teqeq	pc, lr, lsl #12
    22b8:	0006e508 	andeq	lr, r6, r8, lsl #10
    22bc:	05961800 	ldreq	r1, [r6, #2048]	; 0x800
    22c0:	40060000 	andmi	r0, r6, r0
    22c4:	06e51201 	strbteq	r1, [r5], r1, lsl #4
    22c8:	18000000 	stmdane	r0, {}	; <UNPREDICTABLE>
    22cc:	00000601 	andeq	r0, r0, r1, lsl #12
    22d0:	12014106 	andne	r4, r1, #-2147483647	; 0x80000001
    22d4:	000006e5 	andeq	r0, r0, r5, ror #13
    22d8:	06411806 	strbeq	r1, [r1], -r6, lsl #16
    22dc:	42060000 	andmi	r0, r6, #0, 0
    22e0:	00561201 	subseq	r1, r6, r1, lsl #4
    22e4:	000c0000 	andeq	r0, ip, r0
    22e8:	0000560b 	andeq	r5, r0, fp, lsl #12
    22ec:	0006f500 	andeq	pc, r6, r0, lsl #10
    22f0:	002c0c00 	eoreq	r0, ip, r0, lsl #24
    22f4:	00020000 	andeq	r0, r2, r0
    22f8:	8006d01b 	andhi	sp, r6, fp, lsl r0
    22fc:	080a0702 	stmdaeq	sl, {r1, r8, r9, sl}
    2300:	cf180000 	svcgt	0x00180000
    2304:	06000006 	streq	r0, [r0], -r6
    2308:	2c180282 	lfmcs	f0, 4, [r8], {130}	; 0x82
    230c:	00000000 	andeq	r0, r0, r0
    2310:	00060e18 	andeq	r0, r6, r8, lsl lr
    2314:	02830600 	addeq	r0, r3, #0, 12
    2318:	00012312 	andeq	r2, r1, r2, lsl r3
    231c:	83180400 	tsthi	r8, #0, 8
    2320:	06000003 	streq	r0, [r0], -r3
    2324:	0a100284 	beq	402d3c <__bss_end__+0x3f953c>
    2328:	08000008 	stmdaeq	r0, {r3}
    232c:	00075a18 	andeq	r5, r7, r8, lsl sl
    2330:	02850600 	addeq	r0, r5, #0, 12
    2334:	0001b117 	andeq	fp, r1, r7, lsl r1
    2338:	c4182400 	ldrgt	r2, [r8], #-1024	; 0xfffffc00
    233c:	06000002 	streq	r0, [r0], -r2
    2340:	250f0286 	strcs	r0, [pc, #-646]	; 20c2 <__code_start__-0x5f3e>
    2344:	48000000 	stmdami	r0, {}	; <UNPREDICTABLE>
    2348:	00053f18 	andeq	r3, r5, r8, lsl pc
    234c:	02870600 	addeq	r0, r7, #0, 12
    2350:	0000702c 	andeq	r7, r0, ip, lsr #32
    2354:	70185000 	andsvc	r5, r8, r0
    2358:	06000007 	streq	r0, [r0], -r7
    235c:	ac1a0288 	lfmge	f0, 4, [sl], {136}	; 0x88
    2360:	58000006 	stmdapl	r0, {r1, r2}
    2364:	00054a18 	andeq	r4, r5, r8, lsl sl
    2368:	02890600 	addeq	r0, r9, #0, 12
    236c:	00010b16 	andeq	r0, r1, r6, lsl fp
    2370:	75186800 	ldrvc	r6, [r8, #-2048]	; 0xfffff800
    2374:	06000007 	streq	r0, [r0], -r7
    2378:	0b16028a 	bleq	582da8 <__bss_end__+0x5795a8>
    237c:	70000001 	andvc	r0, r0, r1
    2380:	0004bc18 	andeq	fp, r4, r8, lsl ip
    2384:	028b0600 	addeq	r0, fp, #0, 12
    2388:	00010b16 	andeq	r0, r1, r6, lsl fp
    238c:	15187800 	ldrne	r7, [r8, #-2048]	; 0xfffff800
    2390:	06000007 	streq	r0, [r0], -r7
    2394:	1a10028c 	bne	402dcc <__bss_end__+0x3f95cc>
    2398:	80000008 	andhi	r0, r0, r8
    239c:	00037718 	andeq	r7, r3, r8, lsl r7
    23a0:	028d0600 	addeq	r0, sp, #0, 12
    23a4:	00082a10 	andeq	r2, r8, r0, lsl sl
    23a8:	8c188800 	ldchi	8, cr8, [r8], {-0}
    23ac:	06000006 	streq	r0, [r0], -r6
    23b0:	250f028e 	strcs	r0, [pc, #-654]	; 212a <__code_start__-0x5ed6>
    23b4:	a0000000 	andge	r0, r0, r0
    23b8:	00027f18 	andeq	r7, r2, r8, lsl pc
    23bc:	028f0600 	addeq	r0, pc, #0, 12
    23c0:	00010b16 	andeq	r0, r1, r6, lsl fp
    23c4:	5e18a400 	cfmulspl	mvf10, mvf8, mvf0
    23c8:	06000001 	streq	r0, [r0], -r1
    23cc:	0b160290 	bleq	582e14 <__bss_end__+0x579614>
    23d0:	ac000001 	stcge	0, cr0, [r0], {1}
    23d4:	00026e18 	andeq	r6, r2, r8, lsl lr
    23d8:	02910600 	addseq	r0, r1, #0, 12
    23dc:	00010b16 	andeq	r0, r1, r6, lsl fp
    23e0:	f918b400 			; <UNDEFINED> instruction: 0xf918b400
    23e4:	06000000 	streq	r0, [r0], -r0
    23e8:	0b160292 	bleq	582e38 <__bss_end__+0x579638>
    23ec:	bc000001 	stclt	0, cr0, [r0], {1}
    23f0:	00010818 	andeq	r0, r1, r8, lsl r8
    23f4:	02930600 	addseq	r0, r3, #0, 12
    23f8:	00010b16 	andeq	r0, r1, r6, lsl fp
    23fc:	f218c400 	vshl.s16	d12, d0, d8
    2400:	06000004 	streq	r0, [r0], -r4
    2404:	25080294 	strcs	r0, [r8, #-660]	; 0xfffffd6c
    2408:	cc000000 	stcgt	0, cr0, [r0], {-0}
    240c:	01290b00 			; <UNDEFINED> instruction: 0x01290b00
    2410:	081a0000 	ldmdaeq	sl, {}	; <UNPREDICTABLE>
    2414:	2c0c0000 	stccs	0, cr0, [ip], {-0}
    2418:	19000000 	stmdbne	r0, {}	; <UNPREDICTABLE>
    241c:	01290b00 			; <UNDEFINED> instruction: 0x01290b00
    2420:	082a0000 	stmdaeq	sl!, {}	; <UNPREDICTABLE>
    2424:	2c0c0000 	stccs	0, cr0, [ip], {-0}
    2428:	07000000 	streq	r0, [r0, -r0]
    242c:	01290b00 			; <UNDEFINED> instruction: 0x01290b00
    2430:	083a0000 	ldmdaeq	sl!, {}	; <UNPREDICTABLE>
    2434:	2c0c0000 	stccs	0, cr0, [ip], {-0}
    2438:	17000000 	strne	r0, [r0, -r0]
    243c:	06f01b00 	ldrbteq	r1, [r0], r0, lsl #22
    2440:	61070299 			; <UNDEFINED> instruction: 0x61070299
    2444:	18000008 	stmdane	r0, {r3}
    2448:	0000042f 	andeq	r0, r0, pc, lsr #8
    244c:	1b029c06 	blne	a946c <__bss_end__+0x9fc6c>
    2450:	00000861 	andeq	r0, r0, r1, ror #16
    2454:	070c1800 	streq	r1, [ip, -r0, lsl #16]
    2458:	9d060000 	stcls	0, cr0, [r6, #-0]
    245c:	08711802 	ldmdaeq	r1!, {r1, fp, ip}^
    2460:	00780000 	rsbseq	r0, r8, r0
    2464:	0003110b 	andeq	r1, r3, fp, lsl #2
    2468:	00087100 	andeq	r7, r8, r0, lsl #2
    246c:	002c0c00 	eoreq	r0, ip, r0, lsl #24
    2470:	001d0000 	andseq	r0, sp, r0
    2474:	00002c0b 	andeq	r2, r0, fp, lsl #24
    2478:	00088100 	andeq	r8, r8, r0, lsl #2
    247c:	002c0c00 	eoreq	r0, ip, r0, lsl #24
    2480:	001d0000 	andseq	r0, sp, r0
    2484:	7e06f01c 	mcrvc	0, 0, pc, cr6, cr12, {0}	; <UNPREDICTABLE>
    2488:	08a60302 	stmiaeq	r6!, {r1, r8, r9}
    248c:	8f1d0000 	svchi	0x001d0000
    2490:	06000005 	streq	r0, [r0], -r5
    2494:	f50b0295 			; <UNDEFINED> instruction: 0xf50b0295
    2498:	1d000006 	stcne	0, cr0, [r0, #-24]	; 0xffffffe8
    249c:	00000738 	andeq	r0, r0, r8, lsr r7
    24a0:	0b029e06 	bleq	a9cc0 <__bss_end__+0xa04c0>
    24a4:	0000083a 	andeq	r0, r0, sl, lsr r8
    24a8:	01290b00 			; <UNDEFINED> instruction: 0x01290b00
    24ac:	08b60000 	ldmeq	r6!, {}	; <UNPREDICTABLE>
    24b0:	2c0c0000 	stccs	0, cr0, [ip], {-0}
    24b4:	18000000 	stmdane	r0, {}	; <UNPREDICTABLE>
    24b8:	01440700 	cmpeq	r4, r0, lsl #14
    24bc:	04060000 	streq	r0, [r6], #-0
    24c0:	000008b6 			; <UNDEFINED> instruction: 0x000008b6
    24c4:	0008cc1e 	andeq	ip, r8, lr, lsl ip
    24c8:	04781600 	ldrbteq	r1, [r8], #-1536	; 0xfffffa00
    24cc:	06000000 	streq	r0, [r0], -r0
    24d0:	0008c104 	andeq	ip, r8, r4, lsl #2
    24d4:	9b040600 	blls	103cdc <__bss_end__+0xfa4dc>
    24d8:	1e000001 	cdpne	0, 0, cr0, cr0, cr1, {0}
    24dc:	000008e3 	andeq	r0, r0, r3, ror #17
    24e0:	00002516 	andeq	r2, r0, r6, lsl r5
    24e4:	04060000 	streq	r0, [r6], #-0
    24e8:	000008e9 	andeq	r0, r0, r9, ror #17
    24ec:	08d80406 	ldmeq	r8, {r1, r2, sl}^
    24f0:	5a0b0000 	bpl	2c24f8 <__bss_end__+0x2b8cf8>
    24f4:	ff000006 			; <UNDEFINED> instruction: 0xff000006
    24f8:	0c000008 	stceq	0, cr0, [r0], {8}
    24fc:	0000002c 	andeq	r0, r0, ip, lsr #32
    2500:	a01f0002 	andsge	r0, pc, r2
    2504:	06000006 	streq	r0, [r0], -r6
    2508:	7817032e 	ldmdavc	r7, {r1, r2, r3, r5, r8, r9}
    250c:	1f000004 	svcne	0x00000004
    2510:	00000699 	muleq	r0, r9, r6
    2514:	1d032f06 	stcne	15, cr2, [r3, #-24]	; 0xffffffe8
    2518:	0000047e 	andeq	r0, r0, lr, ror r4
    251c:	1e07040d 	cdpne	4, 0, cr0, cr7, cr13, {0}
    2520:	00098309 	andeq	r8, r9, r9, lsl #6
    2524:	091a2000 	ldmdbeq	sl, {sp}
    2528:	21070000 	mrscs	r0, (UNDEF: 7)
    252c:	00005d0f 	andeq	r5, r0, pc, lsl #26
    2530:	1e010400 	cfcpysne	mvf0, mvf1
    2534:	09102000 	ldmdbeq	r0, {sp}
    2538:	22070000 	andcs	r0, r7, #0, 0
    253c:	00005d0f 	andeq	r5, r0, pc, lsl #26
    2540:	1c020400 	cfstrsne	mvf0, [r2], {-0}
    2544:	08c12000 	stmiaeq	r1, {sp}^
    2548:	27070000 	strcs	r0, [r7, -r0]
    254c:	00005d0f 	andeq	r5, r0, pc, lsl #26
    2550:	1a010400 	bne	43558 <__bss_end__+0x39d58>
    2554:	088d2000 	stmeq	sp, {sp}
    2558:	29070000 	stmdbcs	r7, {}	; <UNPREDICTABLE>
    255c:	00005d0f 	andeq	r5, r0, pc, lsl #26
    2560:	18010400 	stmdane	r1, {sl}
    2564:	08b12000 	ldmeq	r1!, {sp}
    2568:	2b070000 	blcs	1c2570 <__bss_end__+0x1b8d70>
    256c:	00005d0f 	andeq	r5, r0, pc, lsl #26
    2570:	16010400 	strne	r0, [r1], -r0, lsl #8
    2574:	09082000 	stmdbeq	r8, {sp}
    2578:	2d070000 	stccs	0, cr0, [r7, #-0]
    257c:	00005d0f 	andeq	r5, r0, pc, lsl #26
    2580:	09070400 	stmdbeq	r7, {sl}
    2584:	f3040000 	vhadd.u8	d0, d4, d0
    2588:	07000008 	streq	r0, [r0, -r8]
    258c:	0919032f 	ldmdbeq	r9, {r0, r1, r2, r3, r5, r8, r9}
    2590:	07210000 	streq	r0, [r1, -r0]!
    2594:	00002c04 	andeq	r2, r0, r4, lsl #24
    2598:	0e330700 	cdpeq	7, 3, cr0, cr3, cr0, {0}
    259c:	000009f8 	strdeq	r0, [r0], -r8
    25a0:	00022f22 	andeq	r2, r2, r2, lsr #30
    25a4:	00b40000 	adcseq	r0, r4, r0
    25a8:	02202220 	eoreq	r2, r0, #32, 4
    25ac:	b4000000 	strlt	r0, [r0], #-0
    25b0:	ac222000 	stcge	0, cr2, [r2], #-0
    25b4:	04000006 	streq	r0, [r0], #-6
    25b8:	222000b4 	eorcs	r0, r0, #180, 0	; 0xb4
    25bc:	00000313 	andeq	r0, r0, r3, lsl r3
    25c0:	2000b408 	andcs	fp, r0, r8, lsl #8
    25c4:	0006bc22 	andeq	fp, r6, r2, lsr #24
    25c8:	00b40c00 	adcseq	r0, r4, r0, lsl #24
    25cc:	00e82220 	rsceq	r2, r8, r0, lsr #4
    25d0:	b4100000 	ldrlt	r0, [r0], #-0
    25d4:	dd222000 	stcle	0, cr2, [r2, #-0]
    25d8:	14000002 	strne	r0, [r0], #-2
    25dc:	222000b4 	eorcs	r0, r0, #180, 0	; 0xb4
    25e0:	00000436 	andeq	r0, r0, r6, lsr r4
    25e4:	2000b418 	andcs	fp, r0, r8, lsl r4
    25e8:	00062c22 	andeq	r2, r6, r2, lsr #24
    25ec:	00b41c00 	adcseq	r1, r4, r0, lsl #24
    25f0:	07ac2220 	streq	r2, [ip, r0, lsr #4]!
    25f4:	b4200000 	strtlt	r0, [r0], #-0
    25f8:	21002000 	mrscs	r2, (UNDEF: 0)
    25fc:	002c0407 	eoreq	r0, ip, r7, lsl #8
    2600:	14080000 	strne	r0, [r8], #-0
    2604:	000a6a06 	andeq	r6, sl, r6, lsl #20
    2608:	023e2200 	eorseq	r2, lr, #0, 4
    260c:	b2000000 	andlt	r0, r0, #0, 0
    2610:	1d222000 	stcne	0, cr2, [r2, #-0]
    2614:	00000004 	andeq	r0, r0, r4
    2618:	222000b2 	eorcs	r0, r0, #178, 0	; 0xb2
    261c:	00000325 	andeq	r0, r0, r5, lsr #6
    2620:	2000b204 	andcs	fp, r0, r4, lsl #4
    2624:	00033322 	andeq	r3, r3, r2, lsr #6
    2628:	00b20800 	adcseq	r0, r2, r0, lsl #16
    262c:	07002220 	streq	r2, [r0, -r0, lsr #4]
    2630:	b20c0000 	andlt	r0, ip, #0, 0
    2634:	b2222000 	eorlt	r2, r2, #0, 0
    2638:	10000003 	andne	r0, r0, r3
    263c:	222000b2 	eorcs	r0, r0, #178, 0	; 0xb2
    2640:	000003f3 	strdeq	r0, [r0], -r3
    2644:	2000b214 	andcs	fp, r0, r4, lsl r2
    2648:	0004aa22 	andeq	sl, r4, r2, lsr #20
    264c:	00b21800 	adcseq	r1, r2, r0, lsl #16
    2650:	040e2220 	streq	r2, [lr], #-544	; 0xfffffde0
    2654:	b21c0000 	andslt	r0, ip, #0, 0
    2658:	4f222000 	svcmi	0x00222000
    265c:	20000001 	andcs	r0, r0, r1
    2660:	222000b2 	eorcs	r0, r0, #178, 0	; 0xb2
    2664:	00000348 	andeq	r0, r0, r8, asr #6
    2668:	2000b224 	andcs	fp, r0, r4, lsr #4
    266c:	08df2300 	ldmeq	pc, {r8, r9, sp}^	; <UNPREDICTABLE>
    2670:	3f010000 	svccc	0x00010000
    2674:	0084440d 	addeq	r4, r4, sp, lsl #8
    2678:	00001c00 	andeq	r1, r0, r0, lsl #24
    267c:	f69c0100 			; <UNDEFINED> instruction: 0xf69c0100
    2680:	2400000c 	strcs	r0, [r0], #-12
    2684:	0000081f 	andeq	r0, r0, pc, lsl r8
    2688:	00000d06 	andeq	r0, r0, r6, lsl #26
    268c:	94c00305 	strbls	r0, [r0], #773	; 0x305
    2690:	4c250000 	stcmi	0, cr0, [r5], #-0
    2694:	00000084 	andeq	r0, r0, r4, lsl #1
    2698:	ef000000 	svc	0x00000000
    269c:	2600000a 	strcs	r0, [r0], -sl
    26a0:	0400755f 	streq	r7, [r0], #-1375	; 0xfffffaa1
    26a4:	bd054301 	stclt	3, cr4, [r5, #-4]
    26a8:	2700000a 	strcs	r0, [r0, -sl]
    26ac:	43010073 	movwmi	r0, #4211	; 0x1073
    26b0:	00098305 	andeq	r8, r9, r5, lsl #6
    26b4:	00752700 	rsbseq	r2, r5, r0, lsl #14
    26b8:	2c054301 	stccs	3, cr4, [r5], {1}
    26bc:	00000000 	andeq	r0, r0, r0
    26c0:	01007828 	tsteq	r0, r8, lsr #16
    26c4:	0a9c0543 	beq	fe703bd8 <__bss_end__+0xfe6fa3d8>
    26c8:	65290000 	strvs	r0, [r9, #-0]!
    26cc:	01007078 	tsteq	r0, r8, ror r0
    26d0:	002c0543 	eoreq	r0, ip, r3, asr #10
    26d4:	2a020000 	bcs	826dc <__bss_end__+0x78edc>
    26d8:	0000089b 	muleq	r0, fp, r8
    26dc:	2c054301 	stccs	3, cr4, [r5], {1}
    26e0:	1f000000 	svcne	0x00000000
    26e4:	0008a92a 	andeq	sl, r8, sl, lsr #18
    26e8:	05430100 	strbeq	r0, [r3, #-256]	; 0xffffff00
    26ec:	0000002c 	andeq	r0, r0, ip, lsr #32
    26f0:	4c250001 	stcmi	0, cr0, [r5], #-4
    26f4:	00000084 	andeq	r0, r0, r4, lsl #1
    26f8:	58000000 	stmdapl	r0, {}	; <UNPREDICTABLE>
    26fc:	2600000b 	strcs	r0, [r0], -fp
    2700:	0400755f 	streq	r7, [r0], #-1375	; 0xfffffaa1
    2704:	1d054401 	cfstrsne	mvf4, [r5, #-4]
    2708:	2700000b 	strcs	r0, [r0, -fp]
    270c:	44010073 	strmi	r0, [r1], #-115	; 0xffffff8d
    2710:	00098305 	andeq	r8, r9, r5, lsl #6
    2714:	00752700 	rsbseq	r2, r5, r0, lsl #14
    2718:	2c054401 	cfstrscs	mvf4, [r5], {1}
    271c:	00000000 	andeq	r0, r0, r0
    2720:	0100782b 	tsteq	r0, fp, lsr #16
    2724:	0afc0544 	beq	fff03c3c <__bss_end__+0xffefa43c>
    2728:	53010000 	movwpl	r0, #4096	; 0x1000
    272c:	7078652c 	rsbsvc	r6, r8, ip, lsr #10
    2730:	05440100 	strbeq	r0, [r4, #-256]	; 0xffffff00
    2734:	0000002c 	andeq	r0, r0, ip, lsr #32
    2738:	0000026a 	andeq	r0, r0, sl, ror #4
    273c:	00000266 	andeq	r0, r0, r6, ror #4
    2740:	00089b2a 	andeq	r9, r8, sl, lsr #22
    2744:	05440100 	strbeq	r0, [r4, #-256]	; 0xffffff00
    2748:	0000002c 	andeq	r0, r0, ip, lsr #32
    274c:	08a92a1e 	stmiaeq	r9!, {r1, r2, r3, r4, r9, fp, sp}
    2750:	44010000 	strmi	r0, [r1], #-0
    2754:	00002c05 	andeq	r2, r0, r5, lsl #24
    2758:	25000300 	strcs	r0, [r0, #-768]	; 0xfffffd00
    275c:	0000844c 	andeq	r8, r0, ip, asr #8
    2760:	00000000 	andeq	r0, r0, r0
    2764:	00000bb8 			; <UNDEFINED> instruction: 0x00000bb8
    2768:	00755f26 	rsbseq	r5, r5, r6, lsr #30
    276c:	05450104 	strbeq	r0, [r5, #-260]	; 0xfffffefc
    2770:	00000b86 	andeq	r0, r0, r6, lsl #23
    2774:	01007327 	tsteq	r0, r7, lsr #6
    2778:	09830545 	stmibeq	r3, {r0, r2, r6, r8, sl}
    277c:	75270000 	strvc	r0, [r7, #-0]!
    2780:	05450100 	strbeq	r0, [r5, #-256]	; 0xffffff00
    2784:	0000002c 	andeq	r0, r0, ip, lsr #32
    2788:	00782800 	rsbseq	r2, r8, r0, lsl #16
    278c:	65054501 	strvs	r4, [r5, #-1281]	; 0xfffffaff
    2790:	2900000b 	stmdbcs	r0, {r0, r1, r3}
    2794:	00707865 	rsbseq	r7, r0, r5, ror #16
    2798:	2c054501 	cfstr32cs	mvfx4, [r5], {1}
    279c:	20000000 	andcs	r0, r0, r0
    27a0:	00089b2a 	andeq	r9, r8, sl, lsr #22
    27a4:	05450100 	strbeq	r0, [r5, #-256]	; 0xffffff00
    27a8:	0000002c 	andeq	r0, r0, ip, lsr #32
    27ac:	08a92a1f 	stmiaeq	r9!, {r0, r1, r2, r3, r4, r9, fp, sp}
    27b0:	45010000 	strmi	r0, [r1, #-0]
    27b4:	00002c05 	andeq	r2, r0, r5, lsl #24
    27b8:	25000100 	strcs	r0, [r0, #-256]	; 0xffffff00
    27bc:	0000844c 	andeq	r8, r0, ip, asr #8
    27c0:	00000000 	andeq	r0, r0, r0
    27c4:	00000c18 	andeq	r0, r0, r8, lsl ip
    27c8:	00755f26 	rsbseq	r5, r5, r6, lsr #30
    27cc:	05460104 	strbeq	r0, [r6, #-260]	; 0xfffffefc
    27d0:	00000be6 	andeq	r0, r0, r6, ror #23
    27d4:	01007327 	tsteq	r0, r7, lsr #6
    27d8:	09830546 	stmibeq	r3, {r1, r2, r6, r8, sl}
    27dc:	75270000 	strvc	r0, [r7, #-0]!
    27e0:	05460100 	strbeq	r0, [r6, #-256]	; 0xffffff00
    27e4:	0000002c 	andeq	r0, r0, ip, lsr #32
    27e8:	00782800 	rsbseq	r2, r8, r0, lsl #16
    27ec:	c5054601 	strgt	r4, [r5, #-1537]	; 0xfffff9ff
    27f0:	2900000b 	stmdbcs	r0, {r0, r1, r3}
    27f4:	00707865 	rsbseq	r7, r0, r5, ror #16
    27f8:	2c054601 	stccs	6, cr4, [r5], {1}
    27fc:	80000000 	andhi	r0, r0, r0
    2800:	00089b2a 	andeq	r9, r8, sl, lsr #22
    2804:	05460100 	strbeq	r0, [r6, #-256]	; 0xffffff00
    2808:	0000002c 	andeq	r0, r0, ip, lsr #32
    280c:	08a92a1f 	stmiaeq	r9!, {r0, r1, r2, r3, r4, r9, fp, sp}
    2810:	46010000 	strmi	r0, [r1], -r0
    2814:	00002c05 	andeq	r2, r0, r5, lsl #24
    2818:	25000100 	strcs	r0, [r0, #-256]	; 0xffffff00
    281c:	0000844c 	andeq	r8, r0, ip, asr #8
    2820:	00000000 	andeq	r0, r0, r0
    2824:	00000c79 	andeq	r0, r0, r9, ror ip
    2828:	00755f26 	rsbseq	r5, r5, r6, lsr #30
    282c:	05470104 	strbeq	r0, [r7, #-260]	; 0xfffffefc
    2830:	00000c46 	andeq	r0, r0, r6, asr #24
    2834:	01007327 	tsteq	r0, r7, lsr #6
    2838:	09830547 	stmibeq	r3, {r0, r1, r2, r6, r8, sl}
    283c:	75270000 	strvc	r0, [r7, #-0]!
    2840:	05470100 	strbeq	r0, [r7, #-256]	; 0xffffff00
    2844:	0000002c 	andeq	r0, r0, ip, lsr #32
    2848:	00782800 	rsbseq	r2, r8, r0, lsl #16
    284c:	25054701 	strcs	r4, [r5, #-1793]	; 0xfffff8ff
    2850:	2d00000c 	stccs	0, cr0, [r0, #-48]	; 0xffffffd0
    2854:	00707865 	rsbseq	r7, r0, r5, ror #16
    2858:	2c054701 	stccs	7, cr4, [r5], {1}
    285c:	00000000 	andeq	r0, r0, r0
    2860:	089b2a02 	ldmeq	fp, {r1, r9, fp, sp}
    2864:	47010000 	strmi	r0, [r1, -r0]
    2868:	00002c05 	andeq	r2, r0, r5, lsl #24
    286c:	a92a1f00 	stmdbge	sl!, {r8, r9, sl, fp, ip}
    2870:	01000008 	tsteq	r0, r8
    2874:	002c0547 	eoreq	r0, ip, r7, asr #10
    2878:	00010000 	andeq	r0, r1, r0
    287c:	00844c25 	addeq	r4, r4, r5, lsr #24
    2880:	00000000 	andeq	r0, r0, r0
    2884:	000ce200 	andeq	lr, ip, r0, lsl #4
    2888:	755f2600 	ldrbvc	r2, [pc, #-1536]	; 2290 <__code_start__-0x5d70>
    288c:	48010400 	stmdami	r1, {sl}
    2890:	000ca705 	andeq	sl, ip, r5, lsl #14
    2894:	00732700 	rsbseq	r2, r3, r0, lsl #14
    2898:	83054801 	movwhi	r4, #22529	; 0x5801
    289c:	27000009 	strcs	r0, [r0, -r9]
    28a0:	48010075 	stmdami	r1, {r0, r2, r4, r5, r6}
    28a4:	00002c05 	andeq	r2, r0, r5, lsl #24
    28a8:	782b0000 	stmdavc	fp!, {}	; <UNPREDICTABLE>
    28ac:	05480100 	strbeq	r0, [r8, #-256]	; 0xffffff00
    28b0:	00000c86 	andeq	r0, r0, r6, lsl #25
    28b4:	652c5301 	strvs	r5, [ip, #-769]!	; 0xfffffcff
    28b8:	01007078 	tsteq	r0, r8, ror r0
    28bc:	002c0548 	eoreq	r0, ip, r8, asr #10
    28c0:	028e0000 	addeq	r0, lr, #0, 0
    28c4:	028a0000 	addeq	r0, sl, #0, 0
    28c8:	9b2a0000 	blls	a828d0 <__bss_end__+0xa790d0>
    28cc:	01000008 	tsteq	r0, r8
    28d0:	002c0548 	eoreq	r0, ip, r8, asr #10
    28d4:	2a190000 	bcs	6428dc <__bss_end__+0x6390dc>
    28d8:	000008a9 	andeq	r0, r0, r9, lsr #17
    28dc:	2c054801 	stccs	8, cr4, [r5], {1}
    28e0:	7f000000 	svcvc	0x00000000
    28e4:	84542e00 	ldrbhi	r2, [r4], #-3584	; 0xfffff200
    28e8:	0d910000 	ldceq	0, cr0, [r1]
    28ec:	012f0000 			; <UNDEFINED> instruction: 0x012f0000
    28f0:	a8030550 	stmdage	r3, {r4, r6, r8, sl}
    28f4:	00000094 	muleq	r0, r4, r0
    28f8:	01300b00 	teqeq	r0, r0, lsl #22
    28fc:	0d060000 	stceq	0, cr0, [r6, #-0]
    2900:	2c0c0000 	stccs	0, cr0, [ip], {-0}
    2904:	13000000 	movwne	r0, #0
    2908:	0cf60f00 	ldcleq	15, cr0, [r6]
    290c:	ce300000 	cdpgt	0, 3, cr0, cr0, cr0, {0}
    2910:	01000001 	tsteq	r0, r1
    2914:	84600611 	strbthi	r0, [r0], #-1553	; 0xfffff9ef
    2918:	00400000 	subeq	r0, r0, r0
    291c:	9c010000 	stcls	0, cr0, [r1], {-0}
    2920:	00000d91 	muleq	r0, r1, sp
    2924:	0008a131 	andeq	sl, r8, r1, lsr r1
    2928:	24110100 	ldrcs	r0, [r1], #-256	; 0xffffff00
    292c:	0000002c 	andeq	r0, r0, ip, lsr #32
    2930:	000002b7 			; <UNDEFINED> instruction: 0x000002b7
    2934:	000002b3 			; <UNDEFINED> instruction: 0x000002b3
    2938:	00846c32 	addeq	r6, r4, r2, lsr ip
    293c:	000a6a00 	andeq	r6, sl, r0, lsl #20
    2940:	84783300 	ldrbthi	r3, [r8], #-768	; 0xfffffd00
    2944:	0d9d0000 	ldceq	0, cr0, [sp]
    2948:	0d5a0000 	ldcleq	0, cr0, [sl, #-0]
    294c:	012f0000 			; <UNDEFINED> instruction: 0x012f0000
    2950:	180c0550 	stmdane	ip, {r4, r6, r8, sl}
    2954:	2f2000b2 	svccs	0x002000b2
    2958:	31015101 	tstcc	r1, r1, lsl #2
    295c:	84843300 	strhi	r3, [r4], #768	; 0x300
    2960:	0d9d0000 	ldceq	0, cr0, [sp]
    2964:	0d770000 	ldcleq	0, cr0, [r7, #-0]
    2968:	012f0000 			; <UNDEFINED> instruction: 0x012f0000
    296c:	000c0550 	andeq	r0, ip, r0, asr r5
    2970:	2f2000b4 	svccs	0x002000b4
    2974:	74025101 	strvc	r5, [r2], #-257	; 0xfffffeff
    2978:	902e0000 	eorls	r0, lr, r0
    297c:	9d000084 	stcls	0, cr0, [r0, #-528]	; 0xfffffdf0
    2980:	2f00000d 	svccs	0x0000000d
    2984:	0c055001 	stceq	0, cr5, [r5], {1}
    2988:	2000b408 	andcs	fp, r0, r8, lsl #8
    298c:	0251012f 	subseq	r0, r1, #-1073741813	; 0xc000000b
    2990:	0000aa08 	andeq	sl, r0, r8, lsl #20
    2994:	000bec34 	andeq	lr, fp, r4, lsr ip
    2998:	000bec00 	andeq	lr, fp, r0, lsl #24
    299c:	05250900 	streq	r0, [r5, #-2304]!	; 0xfffff700
    29a0:	0001e334 	andeq	lr, r1, r4, lsr r3
    29a4:	0001e300 	andeq	lr, r1, r0, lsl #6
    29a8:	06810900 	streq	r0, [r1], r0, lsl #18
    29ac:	00091100 	andeq	r1, r9, r0, lsl #2
    29b0:	83000400 	movwhi	r0, #1024	; 0x400
    29b4:	04000008 	streq	r0, [r0], #-8
    29b8:	0009c001 	andeq	ip, r9, r1
    29bc:	0a840c00 	beq	fe1059c4 <__bss_end__+0xfe0fc1c4>
    29c0:	096f0000 	stmdbeq	pc!, {}^	; <UNPREDICTABLE>
    29c4:	85700000 	ldrbhi	r0, [r0, #-0]!
    29c8:	03f40000 	mvnseq	r0, #0, 0
    29cc:	073d0000 	ldreq	r0, [sp, -r0]!
    29d0:	04020000 	streq	r0, [r2], #-0
    29d4:	746e6905 	strbtvc	r6, [lr], #-2309	; 0xfffff6fb
    29d8:	07040300 	streq	r0, [r4, -r0, lsl #6]
    29dc:	00000123 	andeq	r0, r0, r3, lsr #2
    29e0:	e1060103 	tst	r6, r3, lsl #2
    29e4:	03000004 	movweq	r0, #4
    29e8:	04fb0502 	ldrbteq	r0, [fp], #1282	; 0x502
    29ec:	04030000 	streq	r0, [r3], #-0
    29f0:	00018305 	andeq	r8, r1, r5, lsl #6
    29f4:	05080300 	streq	r0, [r8, #-768]	; 0xfffffd00
    29f8:	0000017e 	andeq	r0, r0, lr, ror r1
    29fc:	df080103 	svcle	0x00080103
    2a00:	03000004 	movweq	r0, #4
    2a04:	035b0702 	cmpeq	fp, #524288	; 0x80000
    2a08:	ab040000 	blge	102a10 <__bss_end__+0xf9210>
    2a0c:	05000005 	streq	r0, [r0, #-5]
    2a10:	00691934 	rsbeq	r1, r9, r4, lsr r9
    2a14:	04030000 	streq	r0, [r3], #-0
    2a18:	00011e07 	andeq	r1, r1, r7, lsl #28
    2a1c:	07080300 	streq	r0, [r8, -r0, lsl #6]
    2a20:	00000119 	andeq	r0, r0, r9, lsl r1
    2a24:	04060405 	streq	r0, [r6], #-1029	; 0xfffffbfb
    2a28:	0000007f 	andeq	r0, r0, pc, ror r0
    2a2c:	e8080103 	stmda	r8, {r0, r1, r8}
    2a30:	07000004 	streq	r0, [r0, -r4]
    2a34:	0000007f 	andeq	r0, r0, pc, ror r0
    2a38:	6b040803 	blvs	104a4c <__bss_end__+0xfb24c>
    2a3c:	0800000a 	stmdaeq	r0, {r1, r3}
    2a40:	002c0407 	eoreq	r0, ip, r7, lsl #8
    2a44:	1f010000 	svcne	0x00010000
    2a48:	0000aa06 	andeq	sl, r0, r6, lsl #20
    2a4c:	0abd0900 	beq	fef44e54 <__bss_end__+0xfef3b654>
    2a50:	00000000 	andeq	r0, r0, r0
    2a54:	0a000020 	beq	2adc <__code_start__-0x5524>
    2a58:	0000005d 	andeq	r0, r0, sp, asr r0
    2a5c:	000000b5 	strheq	r0, [r0], -r5
    2a60:	d00c000b 	andle	r0, ip, fp
    2a64:	02000004 	andeq	r0, r0, #4, 0
    2a68:	00aa120f 	adceq	r1, sl, pc, lsl #4
    2a6c:	7f0d0000 	svcvc	0x000d0000
    2a70:	0100000a 	tsteq	r0, sl
    2a74:	00790e24 	rsbseq	r0, r9, r4, lsr #28
    2a78:	03050000 	movweq	r0, #20480	; 0x5000
    2a7c:	000097d8 	ldrdeq	r9, [r0], -r8
    2a80:	000ace0d 	andeq	ip, sl, sp, lsl #28
    2a84:	0e250100 	sufeqs	f0, f5, f0
    2a88:	00000079 	andeq	r0, r0, r9, ror r0
    2a8c:	97dc0305 	ldrbls	r0, [ip, r5, lsl #6]
    2a90:	5f0d0000 	svcpl	0x000d0000
    2a94:	01000009 	tsteq	r0, r9
    2a98:	00790e26 	rsbseq	r0, r9, r6, lsr #28
    2a9c:	03050000 	movweq	r0, #20480	; 0x5000
    2aa0:	000097e0 	andeq	r9, r0, r0, ror #15
    2aa4:	00092c0e 	andeq	r2, r9, lr, lsl #24
    2aa8:	067f0100 	ldrbteq	r0, [pc], -r0, lsl #2
    2aac:	00008904 	andeq	r8, r0, r4, lsl #18
    2ab0:	00000060 	andeq	r0, r0, r0, rrx
    2ab4:	016f9c01 	cmneq	pc, r1, lsl #24
    2ab8:	700f0000 	andvc	r0, pc, r0
    2abc:	167f0100 	ldrbtne	r0, [pc], -r0, lsl #2
    2ac0:	00000077 	andeq	r0, r0, r7, ror r0
    2ac4:	000002db 	ldrdeq	r0, [r0], -fp
    2ac8:	000002d5 	ldrdeq	r0, [r0], -r5
    2acc:	00081f10 	andeq	r1, r8, r0, lsl pc
    2ad0:	00017f00 	andeq	r7, r1, r0, lsl #30
    2ad4:	14030500 	strne	r0, [r3], #-1280	; 0xfffffb00
    2ad8:	11000097 	swpne	r0, r7, [r0]	; <UNPREDICTABLE>
    2adc:	00008950 	andeq	r8, r0, r0, asr r9
    2ae0:	000008f0 	strdeq	r0, [r0], -r0	; <UNPREDICTABLE>
    2ae4:	00000165 	andeq	r0, r0, r5, ror #2
    2ae8:	05500112 	ldrbeq	r0, [r0, #-274]	; 0xfffffeee
    2aec:	00968c03 	addseq	r8, r6, r3, lsl #24
    2af0:	51011200 	mrspl	r1, R9_usr
    2af4:	94d40305 	ldrbls	r0, [r4], #773	; 0x305
    2af8:	01120000 	tsteq	r2, r0
    2afc:	14030552 	strne	r0, [r3], #-1362	; 0xfffffaae
    2b00:	12000097 	andne	r0, r0, #151, 0	; 0x97
    2b04:	08025301 	stmdaeq	r2, {r0, r8, r9, ip, lr}
    2b08:	7d021281 	sfmvc	f1, 4, [r2, #-516]	; 0xfffffdfc
    2b0c:	01f30300 	mvnseq	r0, r0, lsl #6
    2b10:	54130050 	ldrpl	r0, [r3], #-80	; 0xffffffb0
    2b14:	fc000089 	stc2	0, cr0, [r0], {137}	; 0x89
    2b18:	00000008 	andeq	r0, r0, r8
    2b1c:	0000860a 	andeq	r8, r0, sl, lsl #12
    2b20:	00017f00 	andeq	r7, r1, r0, lsl #30
    2b24:	002c1400 	eoreq	r1, ip, r0, lsl #8
    2b28:	00090000 	andeq	r0, r9, r0
    2b2c:	00016f07 	andeq	r6, r1, r7, lsl #30
    2b30:	094d1500 	stmdbeq	sp, {r8, sl, ip}^
    2b34:	7c010000 	stcvc	0, cr0, [r1], {-0}
    2b38:	0088f006 	addeq	pc, r8, r6
    2b3c:	00001400 	andeq	r1, r0, r0, lsl #8
    2b40:	169c0100 	ldrne	r0, [ip], r0, lsl #2
    2b44:	00000936 	andeq	r0, r0, r6, lsr r9
    2b48:	77076801 	strvc	r6, [r7, -r1, lsl #16]
    2b4c:	cc000000 	stcgt	0, cr0, [r0], {-0}
    2b50:	24000087 	strcs	r0, [r0], #-135	; 0xffffff79
    2b54:	01000001 	tsteq	r0, r1
    2b58:	0004169c 	muleq	r4, ip, r6
    2b5c:	09a71700 	stmibeq	r7!, {r8, r9, sl, ip}
    2b60:	68010000 	stmdavs	r1, {}	; <UNPREDICTABLE>
    2b64:	00002c20 	andeq	r2, r0, r0, lsr #24
    2b68:	00031c00 	andeq	r1, r3, r0, lsl #24
    2b6c:	00030800 	andeq	r0, r3, r0, lsl #16
    2b70:	09ae1700 	stmibeq	lr!, {r8, r9, sl, ip}
    2b74:	68010000 	stmdavs	r1, {}	; <UNPREDICTABLE>
    2b78:	00002c31 	andeq	r2, r0, r1, lsr ip
    2b7c:	0003b500 	andeq	fp, r3, r0, lsl #10
    2b80:	0003a100 	andeq	sl, r3, r0, lsl #2
    2b84:	081f1000 	ldmdaeq	pc, {ip}	; <UNPREDICTABLE>
    2b88:	04260000 	strteq	r0, [r6], #-0
    2b8c:	03050000 	movweq	r0, #20480	; 0x5000
    2b90:	000096fc 	strdeq	r9, [r0], -ip
    2b94:	01006818 	tsteq	r0, r8, lsl r8
    2b98:	002c0e70 	eoreq	r0, ip, r0, ror lr
    2b9c:	046f0000 	strbteq	r0, [pc], #-0	; 2ba4 <__code_start__-0x545c>
    2ba0:	045f0000 	ldrbeq	r0, [pc], #-0	; 2ba8 <__code_start__-0x5458>
    2ba4:	88190000 	ldmdahi	r9, {}	; <UNPREDICTABLE>
    2ba8:	dc000008 	stcle	0, cr0, [r0], {8}
    2bac:	03000087 	movweq	r0, #135	; 0x87
    2bb0:	000087dc 	ldrdeq	r8, [r0], -ip
    2bb4:	00000004 	andeq	r0, r0, r4
    2bb8:	20056a01 	andcs	r6, r5, r1, lsl #20
    2bbc:	1a000002 	bne	2bcc <__code_start__-0x5434>
    2bc0:	00000899 	muleq	r0, r9, r8
    2bc4:	0000052a 	andeq	r0, r0, sl, lsr #10
    2bc8:	00000528 	andeq	r0, r0, r8, lsr #10
    2bcc:	08ca1900 	stmiaeq	sl, {r8, fp, ip}^
    2bd0:	87e80000 	strbhi	r0, [r8, r0]!
    2bd4:	e8020000 	stmda	r2, {}	; <UNPREDICTABLE>
    2bd8:	08000087 	stmdaeq	r0, {r0, r1, r2, r7}
    2bdc:	01000000 	mrseq	r0, (UNDEF: 0)
    2be0:	0254116b 	subseq	r1, r4, #-1073741798	; 0xc000001a
    2be4:	e51a0000 	ldr	r0, [sl, #-0]
    2be8:	3f000008 	svccc	0x00000008
    2bec:	3d000005 	stccc	0, cr0, [r0, #-20]	; 0xffffffec
    2bf0:	1a000005 	bne	2c0c <__code_start__-0x53f4>
    2bf4:	000008db 	ldrdeq	r0, [r0], -fp
    2bf8:	00000555 	andeq	r0, r0, r5, asr r5
    2bfc:	00000553 	andeq	r0, r0, r3, asr r5
    2c00:	08531b00 	ldmdaeq	r3, {r8, r9, fp, ip}^
    2c04:	87f80000 	ldrbhi	r0, [r8, r0]!
    2c08:	18010000 	stmdane	r1, {}	; <UNPREDICTABLE>
    2c0c:	01000000 	mrseq	r0, (UNDEF: 0)
    2c10:	02f20971 	rscseq	r0, r2, #1851392	; 0x1c4000
    2c14:	6e1a0000 	cdpvs	0, 1, cr0, cr10, cr0, {0}
    2c18:	6e000008 	cdpvs	0, 0, cr0, cr0, cr8, {0}
    2c1c:	68000005 	stmdavs	r0, {r0, r2}
    2c20:	1a000005 	bne	2c3c <__code_start__-0x53c4>
    2c24:	00000864 	andeq	r0, r0, r4, ror #16
    2c28:	000005b5 			; <UNDEFINED> instruction: 0x000005b5
    2c2c:	000005ad 	andeq	r0, r0, sp, lsr #11
    2c30:	0000181c 	andeq	r1, r0, ip, lsl r8
    2c34:	08881900 	stmeq	r8, {r8, fp, ip}
    2c38:	87f80000 	ldrbhi	r0, [r8, r0]!
    2c3c:	f8040000 			; <UNDEFINED> instruction: 0xf8040000
    2c40:	04000087 	streq	r0, [r0], #-135	; 0xffffff79
    2c44:	01000000 	mrseq	r0, (UNDEF: 0)
    2c48:	02af0511 	adceq	r0, pc, #71303168	; 0x4400000
    2c4c:	991a0000 	ldmdbls	sl, {}	; <UNPREDICTABLE>
    2c50:	f3000008 	vhadd.u8	d0, d0, d8
    2c54:	f1000005 	cps	#5
    2c58:	00000005 	andeq	r0, r0, r5
    2c5c:	00889411 	addeq	r9, r8, r1, lsl r4
    2c60:	0008f000 	andeq	pc, r8, r0
    2c64:	0002e700 	andeq	lr, r2, r0, lsl #14
    2c68:	50011200 	andpl	r1, r1, r0, lsl #4
    2c6c:	95140305 	ldrls	r0, [r4, #-773]	; 0xfffffcfb
    2c70:	01120000 	tsteq	r2, r0
    2c74:	d4030551 	strle	r0, [r3], #-1361	; 0xfffffaaf
    2c78:	12000094 	andne	r0, r0, #148, 0	; 0x94
    2c7c:	03055201 	movweq	r5, #20993	; 0x5201
    2c80:	0000970c 	andeq	r9, r0, ip, lsl #14
    2c84:	01530112 	cmpeq	r3, r2, lsl r1
    2c88:	7d021241 	sfmvc	f1, 4, [r2, #-260]	; 0xfffffefc
    2c8c:	58030500 	stmdapl	r3, {r8, sl}
    2c90:	00000096 	muleq	r0, r6, r0
    2c94:	00889813 	addeq	r9, r8, r3, lsl r8
    2c98:	0008fc00 	andeq	pc, r8, r0, lsl #24
    2c9c:	19000000 	stmdbne	r0, {}	; <UNPREDICTABLE>
    2ca0:	000008a4 	andeq	r0, r0, r4, lsr #17
    2ca4:	00008810 	andeq	r8, r0, r0, lsl r8
    2ca8:	00881003 	addeq	r1, r8, r3
    2cac:	00000400 	andeq	r0, r0, r0, lsl #8
    2cb0:	05720100 	ldrbeq	r0, [r2, #-256]!	; 0xffffff00
    2cb4:	00000326 	andeq	r0, r0, r6, lsr #6
    2cb8:	0008bf1a 	andeq	fp, r8, sl, lsl pc
    2cbc:	00060800 	andeq	r0, r6, r0, lsl #16
    2cc0:	00060600 	andeq	r0, r6, r0, lsl #12
    2cc4:	08b51a00 	ldmeq	r5!, {r9, fp, ip}
    2cc8:	061d0000 	ldreq	r0, [sp], -r0
    2ccc:	061b0000 	ldreq	r0, [fp], -r0
    2cd0:	11000000 	mrsne	r0, (UNDEF: 0)
    2cd4:	00008828 	andeq	r8, r0, r8, lsr #16
    2cd8:	0000042b 	andeq	r0, r0, fp, lsr #8
    2cdc:	0000033b 	andeq	r0, r0, fp, lsr r3
    2ce0:	03500112 	cmpeq	r0, #-2147483644	; 0x80000004
    2ce4:	005001f3 	ldrsheq	r0, [r0], #-19	; 0xffffffed
    2ce8:	00884c11 	addeq	r4, r8, r1, lsl ip
    2cec:	0008f000 	andeq	pc, r8, r0
    2cf0:	00037400 	andeq	r7, r3, r0, lsl #8
    2cf4:	50011200 	andpl	r1, r1, r0, lsl #4
    2cf8:	95140305 	ldrls	r0, [r4, #-773]	; 0xfffffcfb
    2cfc:	01120000 	tsteq	r2, r0
    2d00:	d4030551 	strle	r0, [r3], #-1361	; 0xfffffaaf
    2d04:	12000094 	andne	r0, r0, #148, 0	; 0x94
    2d08:	03055201 	movweq	r5, #20993	; 0x5201
    2d0c:	000096fc 	strdeq	r9, [r0], -ip
    2d10:	02530112 	subseq	r0, r3, #-2147483644	; 0x80000004
    2d14:	02126908 	andseq	r6, r2, #8, 18	; 0x20000
    2d18:	0305007d 	movweq	r0, #20605	; 0x507d
    2d1c:	00009540 	andeq	r9, r0, r0, asr #10
    2d20:	88501300 	ldmdahi	r0, {r8, r9, ip}^
    2d24:	08fc0000 	ldmeq	ip!, {}^	; <UNPREDICTABLE>
    2d28:	74110000 	ldrvc	r0, [r1], #-0
    2d2c:	f0000088 			; <UNDEFINED> instruction: 0xf0000088
    2d30:	c0000008 	andgt	r0, r0, r8
    2d34:	12000003 	andne	r0, r0, #3, 0
    2d38:	03055001 	movweq	r5, #20481	; 0x5001
    2d3c:	00009604 	andeq	r9, r0, r4, lsl #12
    2d40:	05510112 	ldrbeq	r0, [r1, #-274]	; 0xfffffeee
    2d44:	0094d403 	addseq	sp, r4, r3, lsl #8
    2d48:	52011200 	andpl	r1, r1, #0, 4
    2d4c:	96fc0305 	ldrbtls	r0, [ip], r5, lsl #6
    2d50:	01120000 	tsteq	r2, r0
    2d54:	6a080253 	bvs	2036a8 <__bss_end__+0x1f9ea8>
    2d58:	007d0212 	rsbseq	r0, sp, r2, lsl r2
    2d5c:	96440305 	strbls	r0, [r4], -r5, lsl #6
    2d60:	02120000 	andseq	r0, r2, #0, 0
    2d64:	0305047d 	movweq	r0, #21629	; 0x547d
    2d68:	0000962c 	andeq	r9, r0, ip, lsr #12
    2d6c:	88781300 	ldmdahi	r8!, {r8, r9, ip}^
    2d70:	08fc0000 	ldmeq	ip!, {}^	; <UNPREDICTABLE>
    2d74:	bc110000 	ldclt	0, cr0, [r1], {-0}
    2d78:	f0000088 			; <UNDEFINED> instruction: 0xf0000088
    2d7c:	0c000008 	stceq	0, cr0, [r0], {8}
    2d80:	12000004 	andne	r0, r0, #4, 0
    2d84:	03055001 	movweq	r5, #20481	; 0x5001
    2d88:	00009604 	andeq	r9, r0, r4, lsl #12
    2d8c:	05510112 	ldrbeq	r0, [r1, #-274]	; 0xfffffeee
    2d90:	0094d403 	addseq	sp, r4, r3, lsl #8
    2d94:	52011200 	andpl	r1, r1, #0, 4
    2d98:	96fc0305 	ldrbtls	r0, [ip], r5, lsl #6
    2d9c:	01120000 	tsteq	r2, r0
    2da0:	72080253 	andvc	r0, r8, #805306373	; 0x30000005
    2da4:	007d0212 	rsbseq	r0, sp, r2, lsl r2
    2da8:	96700305 	ldrbtls	r0, [r0], -r5, lsl #6
    2dac:	02120000 	andseq	r0, r2, #0, 0
    2db0:	0305047d 	movweq	r0, #21629	; 0x547d
    2db4:	00009664 	andeq	r9, r0, r4, ror #12
    2db8:	88c01300 	stmiahi	r0, {r8, r9, ip}^
    2dbc:	08fc0000 	ldmeq	ip!, {}^	; <UNPREDICTABLE>
    2dc0:	0a000000 	beq	2dc8 <__code_start__-0x5238>
    2dc4:	00000086 	andeq	r0, r0, r6, lsl #1
    2dc8:	00000426 	andeq	r0, r0, r6, lsr #8
    2dcc:	00002c14 	andeq	r2, r0, r4, lsl ip
    2dd0:	07000f00 	streq	r0, [r0, -r0, lsl #30]
    2dd4:	00000416 	andeq	r0, r0, r6, lsl r4
    2dd8:	00020f16 	andeq	r0, r2, r6, lsl pc
    2ddc:	075d0100 	ldrbeq	r0, [sp, -r0, lsl #2]
    2de0:	00000077 	andeq	r0, r0, r7, ror r0
    2de4:	00008768 	andeq	r8, r0, r8, ror #14
    2de8:	00000064 	andeq	r0, r0, r4, rrx
    2dec:	04f29c01 	ldrbteq	r9, [r2], #3073	; 0xc01
    2df0:	a7170000 	ldrge	r0, [r7, -r0]
    2df4:	01000009 	tsteq	r0, r9
    2df8:	002c185d 	eoreq	r1, ip, sp, asr r8
    2dfc:	06380000 	ldrteq	r0, [r8], -r0
    2e00:	06300000 	ldrteq	r0, [r0], -r0
    2e04:	1f100000 	svcne	0x00100000
    2e08:	02000008 	andeq	r0, r0, #8, 0
    2e0c:	05000005 	streq	r0, [r0, #-5]
    2e10:	0096f403 	addseq	pc, r6, r3, lsl #8
    2e14:	0a5e1d00 	beq	178a21c <__bss_end__+0x1780a1c>
    2e18:	5f010000 	svcpl	0x00010000
    2e1c:	0000770b 	andeq	r7, r0, fp, lsl #14
    2e20:	00067000 	andeq	r7, r6, r0
    2e24:	00066c00 	andeq	r6, r6, r0, lsl #24
    2e28:	87801100 	strhi	r1, [r0, r0, lsl #2]
    2e2c:	05070000 	streq	r0, [r7, #-0]
    2e30:	04900000 	ldreq	r0, [r0], #0
    2e34:	01120000 	tsteq	r2, r0
    2e38:	00740250 	rsbseq	r0, r4, r0, asr r2
    2e3c:	87901100 	ldrhi	r1, [r0, r0, lsl #2]
    2e40:	09080000 	stmdbeq	r8, {}	; <UNPREDICTABLE>
    2e44:	04af0000 	strteq	r0, [pc], #0	; 2e4c <__code_start__-0x51b4>
    2e48:	01120000 	tsteq	r2, r0
    2e4c:	00750250 	rsbseq	r0, r5, r0, asr r2
    2e50:	01510112 	cmpeq	r1, r2, lsl r1
    2e54:	52011230 	andpl	r1, r1, #48, 4
    2e58:	00007402 	andeq	r7, r0, r2, lsl #8
    2e5c:	0087b811 	addeq	fp, r7, r1, lsl r8
    2e60:	0008f000 	andeq	pc, r8, r0
    2e64:	0004e800 	andeq	lr, r4, r0, lsl #16
    2e68:	50011200 	andpl	r1, r1, r0, lsl #4
    2e6c:	95140305 	ldrls	r0, [r4, #-773]	; 0xfffffcfb
    2e70:	01120000 	tsteq	r2, r0
    2e74:	d4030551 	strle	r0, [r3], #-1361	; 0xfffffaaf
    2e78:	12000094 	andne	r0, r0, #148, 0	; 0x94
    2e7c:	03055201 	movweq	r5, #20993	; 0x5201
    2e80:	000096f4 	strdeq	r9, [r0], -r4
    2e84:	02530112 	subseq	r0, r3, #-2147483644	; 0x80000004
    2e88:	02125e08 	andseq	r5, r2, #8, 28	; 0x80
    2e8c:	0305007d 	movweq	r0, #20605	; 0x507d
    2e90:	00009540 	andeq	r9, r0, r0, asr #10
    2e94:	87bc1300 	ldrhi	r1, [ip, r0, lsl #6]!
    2e98:	08fc0000 	ldmeq	ip!, {}^	; <UNPREDICTABLE>
    2e9c:	0a000000 	beq	2ea4 <__code_start__-0x515c>
    2ea0:	00000086 	andeq	r0, r0, r6, lsl #1
    2ea4:	00000502 	andeq	r0, r0, r2, lsl #10
    2ea8:	00002c14 	andeq	r2, r0, r4, lsl ip
    2eac:	07000700 	streq	r0, [r0, -r0, lsl #14]
    2eb0:	000004f2 	strdeq	r0, [r0], -r2
    2eb4:	000aa516 	andeq	sl, sl, r6, lsl r5
    2eb8:	07500100 	ldrbeq	r0, [r0, -r0, lsl #2]
    2ebc:	00000077 	andeq	r0, r0, r7, ror r0
    2ec0:	000086d0 	ldrdeq	r8, [r0], -r0
    2ec4:	00000098 	muleq	r0, r8, r0
    2ec8:	06159c01 	ldreq	r9, [r5], -r1, lsl #24
    2ecc:	a7170000 	ldrge	r0, [r7, -r0]
    2ed0:	01000009 	tsteq	r0, r9
    2ed4:	002c2050 	eoreq	r2, ip, r0, asr r0
    2ed8:	069e0000 	ldreq	r0, [lr], r0
    2edc:	068e0000 	streq	r0, [lr], r0
    2ee0:	1f100000 	svcne	0x00100000
    2ee4:	26000008 	strcs	r0, [r0], -r8
    2ee8:	05000004 	streq	r0, [r0, #-4]
    2eec:	0096e403 	addseq	lr, r6, r3, lsl #8
    2ef0:	0a5e1d00 	beq	178a2f8 <__bss_end__+0x1780af8>
    2ef4:	54010000 	strpl	r0, [r1], #-0
    2ef8:	0000770b 	andeq	r7, r0, fp, lsl #14
    2efc:	00071000 	andeq	r1, r7, r0
    2f00:	00070c00 	andeq	r0, r7, r0, lsl #24
    2f04:	08531b00 	ldmdaeq	r3, {r8, r9, fp, ip}^
    2f08:	86e00000 	strbthi	r0, [r0], r0
    2f0c:	00020000 	andeq	r0, r2, r0
    2f10:	01000000 	mrseq	r0, (UNDEF: 0)
    2f14:	058d0e52 	streq	r0, [sp, #3666]	; 0xe52
    2f18:	6e1a0000 	cdpvs	0, 1, cr0, cr10, cr0, {0}
    2f1c:	30000008 	andcc	r0, r0, r8
    2f20:	2e000007 	cdpcs	0, 0, cr0, cr0, cr7, {0}
    2f24:	1a000007 	bne	2f48 <__code_start__-0x50b8>
    2f28:	00000864 	andeq	r0, r0, r4, ror #16
    2f2c:	00000748 	andeq	r0, r0, r8, asr #14
    2f30:	00000744 	andeq	r0, r0, r4, asr #14
    2f34:	0000001e 	andeq	r0, r0, lr, lsl r0
    2f38:	28110000 	ldmdacs	r1, {}	; <UNPREDICTABLE>
    2f3c:	f0000087 			; <UNDEFINED> instruction: 0xf0000087
    2f40:	c6000008 	strgt	r0, [r0], -r8
    2f44:	12000005 	andne	r0, r0, #5, 0
    2f48:	03055001 	movweq	r5, #20481	; 0x5001
    2f4c:	00009514 	andeq	r9, r0, r4, lsl r5
    2f50:	05510112 	ldrbeq	r0, [r1, #-274]	; 0xfffffeee
    2f54:	0094d403 	addseq	sp, r4, r3, lsl #8
    2f58:	52011200 	andpl	r1, r1, #0, 4
    2f5c:	96e40305 	strbtls	r0, [r4], r5, lsl #6
    2f60:	01120000 	tsteq	r2, r0
    2f64:	51080253 	tstpl	r8, r3, asr r2
    2f68:	007d0212 	rsbseq	r0, sp, r2, lsl r2
    2f6c:	95400305 	strbls	r0, [r0, #-773]	; 0xfffffcfb
    2f70:	13000000 	movwne	r0, #0
    2f74:	0000872c 	andeq	r8, r0, ip, lsr #14
    2f78:	000008fc 	strdeq	r0, [r0], -ip
    2f7c:	00874c11 	addeq	r4, r7, r1, lsl ip
    2f80:	0008f000 	andeq	pc, r8, r0
    2f84:	00060b00 	andeq	r0, r6, r0, lsl #22
    2f88:	50011200 	andpl	r1, r1, r0, lsl #4
    2f8c:	95bc0305 	ldrls	r0, [ip, #773]!	; 0x305
    2f90:	01120000 	tsteq	r2, r0
    2f94:	d4030551 	strle	r0, [r3], #-1361	; 0xfffffaaf
    2f98:	12000094 	andne	r0, r0, #148, 0	; 0x94
    2f9c:	03055201 	movweq	r5, #20993	; 0x5201
    2fa0:	000096e4 	andeq	r9, r0, r4, ror #13
    2fa4:	02530112 	subseq	r0, r3, #-2147483644	; 0x80000004
    2fa8:	02125708 	andseq	r5, r2, #8, 14	; 0x200000
    2fac:	f308007d 	vqadd.u8	q0, q4, <illegal reg q14.5>
    2fb0:	07235001 	streq	r5, [r3, -r1]!
    2fb4:	001af809 	andseq	pc, sl, r9, lsl #16
    2fb8:	00875013 	addeq	r5, r7, r3, lsl r0
    2fbc:	0008fc00 	andeq	pc, r8, r0, lsl #24
    2fc0:	720e0000 	andvc	r0, lr, #0, 0
    2fc4:	0100000a 	tsteq	r0, sl
    2fc8:	86780642 	ldrbthi	r0, [r8], -r2, asr #12
    2fcc:	00580000 	subseq	r0, r8, r0
    2fd0:	9c010000 	stcls	0, cr0, [r1], {-0}
    2fd4:	000006b9 			; <UNDEFINED> instruction: 0x000006b9
    2fd8:	0009680d 	andeq	r6, r9, sp, lsl #16
    2fdc:	10430100 	subne	r0, r3, r0, lsl #2
    2fe0:	00000025 	andeq	r0, r0, r5, lsr #32
    2fe4:	97fc0305 	ldrbls	r0, [ip, r5, lsl #6]!
    2fe8:	1f100000 	svcne	0x00100000
    2fec:	c9000008 	stmdbgt	r0, {r3}
    2ff0:	05000006 	streq	r0, [r0, #-6]
    2ff4:	0096d403 	addseq	sp, r6, r3, lsl #8
    2ff8:	04070800 	streq	r0, [r7], #-2048	; 0xfffff800
    2ffc:	0000002c 	andeq	r0, r0, ip, lsr #32
    3000:	640a4801 	strvs	r4, [sl], #-2049	; 0xfffff7ff
    3004:	09000006 	stmdbeq	r0, {r1, r2}
    3008:	00000a9f 	muleq	r0, pc, sl	; <UNPREDICTABLE>
    300c:	00100000 	andseq	r0, r0, r0
    3010:	86a41100 	strthi	r1, [r4], r0, lsl #2
    3014:	06ce0000 	strbeq	r0, [lr], r0
    3018:	06800000 	streq	r0, [r0], r0
    301c:	01120000 	tsteq	r2, r0
    3020:	40400350 	submi	r0, r0, r0, asr r3
    3024:	51011224 	tstpl	r1, r4, lsr #4
    3028:	24474003 	strbcs	r4, [r7], #-3
    302c:	86bc1100 	ldrthi	r1, [ip], r0, lsl #2
    3030:	08f00000 	ldmeq	r0!, {}^	; <UNPREDICTABLE>
    3034:	06af0000 	strteq	r0, [pc], r0
    3038:	01120000 	tsteq	r2, r0
    303c:	8c030550 	cfstr32hi	mvfx0, [r3], {80}	; 0x50
    3040:	12000095 	andne	r0, r0, #149, 0	; 0x95
    3044:	03055101 	movweq	r5, #20737	; 0x5101
    3048:	000094d4 	ldrdeq	r9, [r0], -r4
    304c:	05520112 	ldrbeq	r0, [r2, #-274]	; 0xfffffeee
    3050:	0096d403 	addseq	sp, r6, r3, lsl #8
    3054:	53011200 	movwpl	r1, #4608	; 0x1200
    3058:	00460802 	subeq	r0, r6, r2, lsl #16
    305c:	0086c013 	addeq	ip, r6, r3, lsl r0
    3060:	0008fc00 	andeq	pc, r8, r0, lsl #24
    3064:	860a0000 	strhi	r0, [sl], -r0
    3068:	c9000000 	stmdbgt	r0, {}	; <UNPREDICTABLE>
    306c:	14000006 	strne	r0, [r0], #-6
    3070:	0000002c 	andeq	r0, r0, ip, lsr #32
    3074:	b907000c 	stmdblt	r7, {r2, r3}
    3078:	0e000006 	cdpeq	0, 0, cr0, cr0, cr6, {0}
    307c:	00000257 	andeq	r0, r0, r7, asr r2
    3080:	a0062e01 	andge	r2, r6, r1, lsl #28
    3084:	d8000085 	stmdale	r0, {r0, r2, r7}
    3088:	01000000 	mrseq	r0, (UNDEF: 0)
    308c:	0007fc9c 	muleq	r7, ip, ip
    3090:	0a5d1700 	beq	1748c98 <__bss_end__+0x173f498>
    3094:	2e010000 	cdpcs	0, 0, cr0, cr1, cr0, {0}
    3098:	00007723 	andeq	r7, r0, r3, lsr #14
    309c:	00077a00 	andeq	r7, r7, r0, lsl #20
    30a0:	00076800 	andeq	r6, r7, r0, lsl #16
    30a4:	09a31700 	stmibeq	r3!, {r8, r9, sl, ip}
    30a8:	2e010000 	cdpcs	0, 0, cr0, cr1, cr0, {0}
    30ac:	00002c33 	andeq	r2, r0, r3, lsr ip
    30b0:	0007ff00 	andeq	pc, r7, r0, lsl #30
    30b4:	0007f300 	andeq	pc, r7, r0, lsl #6
    30b8:	09680d00 	stmdbeq	r8!, {r8, sl, fp}^
    30bc:	2f010000 	svccs	0x00010000
    30c0:	00002510 	andeq	r2, r0, r0, lsl r5
    30c4:	f8030500 			; <UNDEFINED> instruction: 0xf8030500
    30c8:	10000097 	mulne	r0, r7, r0
    30cc:	0000081f 	andeq	r0, r0, pc, lsl r8
    30d0:	0000080c 	andeq	r0, r0, ip, lsl #16
    30d4:	96bc0305 	ldrtls	r0, [ip], r5, lsl #6
    30d8:	5e1d0000 	cdppl	0, 1, cr0, cr13, cr0, {0}
    30dc:	0100000a 	tsteq	r0, sl
    30e0:	00790b34 	rsbseq	r0, r9, r4, lsr fp
    30e4:	08600000 	stmdaeq	r0!, {}^	; <UNPREDICTABLE>
    30e8:	08520000 	ldmdaeq	r2, {}^	; <UNPREDICTABLE>
    30ec:	0c110000 	ldceq	0, cr0, [r1], {-0}
    30f0:	f0000086 			; <UNDEFINED> instruction: 0xf0000086
    30f4:	70000008 	andvc	r0, r0, r8
    30f8:	12000007 	andne	r0, r0, #7, 0
    30fc:	03055001 	movweq	r5, #20481	; 0x5001
    3100:	000094e0 	andeq	r9, r0, r0, ror #9
    3104:	05510112 	ldrbeq	r0, [r1, #-274]	; 0xfffffeee
    3108:	0094d403 	addseq	sp, r4, r3, lsl #8
    310c:	52011200 	andpl	r1, r1, #0, 4
    3110:	96bc0305 	ldrtls	r0, [ip], r5, lsl #6
    3114:	01120000 	tsteq	r2, r0
    3118:	31080253 	tstcc	r8, r3, asr r2
    311c:	86101300 	ldrhi	r1, [r0], -r0, lsl #6
    3120:	08fc0000 	ldmeq	ip!, {}^	; <UNPREDICTABLE>
    3124:	2c110000 	ldccs	0, cr0, [r1], {-0}
    3128:	f0000086 			; <UNDEFINED> instruction: 0xf0000086
    312c:	b2000008 	andlt	r0, r0, #8, 0
    3130:	12000007 	andne	r0, r0, #7, 0
    3134:	03055001 	movweq	r5, #20481	; 0x5001
    3138:	00009514 	andeq	r9, r0, r4, lsl r5
    313c:	05510112 	ldrbeq	r0, [r1, #-274]	; 0xfffffeee
    3140:	0094d403 	addseq	sp, r4, r3, lsl #8
    3144:	52011200 	andpl	r1, r1, #0, 4
    3148:	96bc0305 	ldrtls	r0, [ip], r5, lsl #6
    314c:	01120000 	tsteq	r2, r0
    3150:	36080253 			; <UNDEFINED> instruction: 0x36080253
    3154:	007d0212 	rsbseq	r0, sp, r2, lsl r2
    3158:	953c0305 	ldrls	r0, [ip, #-773]!	; 0xfffffcfb
    315c:	13000000 	movwne	r0, #0
    3160:	00008630 	andeq	r8, r0, r0, lsr r6
    3164:	000008fc 	strdeq	r0, [r0], -ip
    3168:	00865411 	addeq	r5, r6, r1, lsl r4
    316c:	0008f000 	andeq	pc, r8, r0
    3170:	0007f200 	andeq	pc, r7, r0, lsl #4
    3174:	50011200 	andpl	r1, r1, r0, lsl #4
    3178:	95480305 	strbls	r0, [r8, #-773]	; 0xfffffcfb
    317c:	01120000 	tsteq	r2, r0
    3180:	d4030551 	strle	r0, [r3], #-1361	; 0xfffffaaf
    3184:	12000094 	andne	r0, r0, #148, 0	; 0x94
    3188:	03055201 	movweq	r5, #20993	; 0x5201
    318c:	000096bc 			; <UNDEFINED> instruction: 0x000096bc
    3190:	02530112 	subseq	r0, r3, #-2147483644	; 0x80000004
    3194:	02123a08 	andseq	r3, r2, #8, 20	; 0x8000
    3198:	f303007d 	vqadd.u8	q0, <illegal reg q1.5>, <illegal reg q14.5>
    319c:	13005001 	movwne	r5, #1
    31a0:	00008658 	andeq	r8, r0, r8, asr r6
    31a4:	000008fc 	strdeq	r0, [r0], -ip
    31a8:	00860a00 	addeq	r0, r6, r0, lsl #20
    31ac:	080c0000 	stmdaeq	ip, {}	; <UNPREDICTABLE>
    31b0:	2c140000 	ldccs	0, cr0, [r4], {-0}
    31b4:	16000000 	strne	r0, [r0], -r0
    31b8:	07fc0700 	ldrbeq	r0, [ip, r0, lsl #14]!
    31bc:	8e1f0000 	cdphi	0, 1, cr0, cr15, cr0, {0}
    31c0:	0100000a 	tsteq	r0, sl
    31c4:	0077072b 	rsbseq	r0, r7, fp, lsr #14
    31c8:	85900000 	ldrhi	r0, [r0]
    31cc:	00100000 	andseq	r0, r0, r0
    31d0:	9c010000 	stcls	0, cr0, [r1], {-0}
    31d4:	000ac61f 	andeq	ip, sl, pc, lsl r6
    31d8:	072a0100 	streq	r0, [sl, -r0, lsl #2]!
    31dc:	00000077 	andeq	r0, r0, r7, ror r0
    31e0:	00008580 	andeq	r8, r0, r0, lsl #11
    31e4:	00000010 	andeq	r0, r0, r0, lsl r0
    31e8:	571f9c01 	ldrpl	r9, [pc, -r1, lsl #24]
    31ec:	01000009 	tsteq	r0, r9
    31f0:	00770729 	rsbseq	r0, r7, r9, lsr #14
    31f4:	85700000 	ldrbhi	r0, [r0, #-0]!
    31f8:	00100000 	andseq	r0, r0, r0
    31fc:	9c010000 	stcls	0, cr0, [r1], {-0}
    3200:	000a6320 	andeq	r6, sl, r0, lsr #6
    3204:	18100100 	ldmdane	r0, {r8}
    3208:	0000002c 	andeq	r0, r0, ip, lsr #32
    320c:	00088803 	andeq	r8, r8, r3, lsl #16
    3210:	00782100 	rsbseq	r2, r8, r0, lsl #2
    3214:	2c291001 	stccs	0, cr1, [r9], #-4
    3218:	21000000 	mrscs	r0, (UNDEF: 0)
    321c:	1001006e 	andne	r0, r1, lr, rrx
    3220:	00002c35 	andeq	r2, r0, r5, lsr ip
    3224:	081f1000 	ldmdaeq	pc, {ip}	; <UNPREDICTABLE>
    3228:	05020000 	streq	r0, [r2, #-0]
    322c:	03050000 	movweq	r0, #20480	; 0x5000
    3230:	0000970c 	andeq	r9, r0, ip, lsl #14
    3234:	09b82000 	ldmibeq	r8!, {sp}
    3238:	0d010000 	stceq	0, cr0, [r1, #-0]
    323c:	00002c18 	andeq	r2, r0, r8, lsl ip
    3240:	08a40300 	stmiaeq	r4!, {r8, r9}
    3244:	78210000 	stmdavc	r1!, {}	; <UNPREDICTABLE>
    3248:	290d0100 	stmdbcs	sp, {r8}
    324c:	0000002c 	andeq	r0, r0, ip, lsr #32
    3250:	0ad92000 	beq	ff64b258 <__bss_end__+0xff641a58>
    3254:	07010000 	streq	r0, [r1, -r0]
    3258:	00002c18 	andeq	r2, r0, r8, lsl ip
    325c:	08ca0300 	stmiaeq	sl, {r8, r9}^
    3260:	78210000 	stmdavc	r1!, {}	; <UNPREDICTABLE>
    3264:	2c070100 	stfcss	f0, [r7], {-0}
    3268:	0000002c 	andeq	r0, r0, ip, lsr #32
    326c:	01006e21 	tsteq	r0, r1, lsr #28
    3270:	002c3807 	eoreq	r3, ip, r7, lsl #16
    3274:	20000000 	andcs	r0, r0, r0
    3278:	00000ab5 			; <UNDEFINED> instruction: 0x00000ab5
    327c:	5d180401 	cfldrspl	mvf0, [r8, #-4]
    3280:	03000000 	movweq	r0, #0
    3284:	000008f0 	strdeq	r0, [r0], -r0	; <UNPREDICTABLE>
    3288:	01007821 	tsteq	r0, r1, lsr #16
    328c:	005d2904 	subseq	r2, sp, r4, lsl #18
    3290:	79210000 	stmdbvc	r1!, {}	; <UNPREDICTABLE>
    3294:	35040100 	strcc	r0, [r4, #-256]	; 0xffffff00
    3298:	0000005d 	andeq	r0, r0, sp, asr r0
    329c:	0bec2200 	bleq	ffb0baa4 <__bss_end__+0xffb022a4>
    32a0:	0bec0000 	bleq	ffb032a8 <__bss_end__+0xffaf9aa8>
    32a4:	25030000 	strcs	r0, [r3, #-0]
    32a8:	03e62205 	mvneq	r2, #1342177280	; 0x50000000
    32ac:	03e60000 	mvneq	r0, #0, 0
    32b0:	60030000 	andvs	r0, r3, r0
    32b4:	09462206 	stmdbeq	r6, {r1, r2, r9, sp}^
    32b8:	09460000 	stmdbeq	r6, {}^	; <UNPREDICTABLE>
    32bc:	21040000 	mrscs	r0, (UNDEF: 4)
    32c0:	01e00009 	mvneq	r0, r9
    32c4:	00040000 	andeq	r0, r4, r0
    32c8:	00000a9a 	muleq	r0, sl, sl
    32cc:	0b270104 	bleq	9c36e4 <__bss_end__+0x9b9ee4>
    32d0:	170c0000 	strne	r0, [ip, -r0]
    32d4:	ed00000b 	stc	0, cr0, [r0, #-44]	; 0xffffffd4
    32d8:	6400000a 	strvs	r0, [r0], #-10
    32dc:	cc000089 	stcgt	0, cr0, [r0], {137}	; 0x89
    32e0:	3b000000 	blcc	32e8 <__code_start__-0x4d18>
    32e4:	0200000b 	andeq	r0, r0, #11, 0
    32e8:	6e690504 	cdpvs	5, 6, cr0, cr9, cr4, {0}
    32ec:	12030074 	andne	r0, r3, #116, 0	; 0x74
    32f0:	02000000 	andeq	r0, r0, #0, 0
    32f4:	003817d1 	ldrsbteq	r1, [r8], -r1
    32f8:	04040000 	streq	r0, [r4], #-0
    32fc:	00012307 	andeq	r2, r1, r7, lsl #6
    3300:	06010400 	streq	r0, [r1], -r0, lsl #8
    3304:	000004e1 	andeq	r0, r0, r1, ror #9
    3308:	fb050204 	blx	143b22 <__bss_end__+0x13a322>
    330c:	04000004 	streq	r0, [r0], #-4
    3310:	01830504 	orreq	r0, r3, r4, lsl #10
    3314:	08040000 	stmdaeq	r4, {}	; <UNPREDICTABLE>
    3318:	00017e05 	andeq	r7, r1, r5, lsl #28
    331c:	08010400 	stmdaeq	r1, {sl}
    3320:	000004df 	ldrdeq	r0, [r0], -pc	; <UNPREDICTABLE>
    3324:	5b070204 	blpl	1c3b3c <__bss_end__+0x1ba33c>
    3328:	03000003 	movweq	r0, #3
    332c:	000005ab 	andeq	r0, r0, fp, lsr #11
    3330:	75193403 	ldrvc	r3, [r9, #-1027]	; 0xfffffbfd
    3334:	04000000 	streq	r0, [r0], #-0
    3338:	011e0704 	tsteq	lr, r4, lsl #14
    333c:	e4030000 	str	r0, [r3], #-0
    3340:	0300000a 	movweq	r0, #10
    3344:	00881937 	addeq	r1, r8, r7, lsr r9
    3348:	08040000 	stmdaeq	r4, {}	; <UNPREDICTABLE>
    334c:	00011907 	andeq	r1, r1, r7, lsl #18
    3350:	06040500 	streq	r0, [r4], -r0, lsl #10
    3354:	00000946 	andeq	r0, r0, r6, asr #18
    3358:	8f070701 	svchi	0x00070701
    335c:	64000000 	strvs	r0, [r0], #-0
    3360:	cc000089 	stcgt	0, cr0, [r0], {137}	; 0x89
    3364:	01000000 	mrseq	r0, (UNDEF: 0)
    3368:	0001989c 	muleq	r1, ip, r8
    336c:	73640700 	cmnvc	r4, #0, 14
    3370:	07010074 	smlsdxeq	r1, r4, r0, r0
    3374:	00008f14 	andeq	r8, r0, r4, lsl pc
    3378:	0008cc00 	andeq	ip, r8, r0, lsl #24
    337c:	0008c000 	andeq	ip, r8, r0
    3380:	00630700 	rsbeq	r0, r3, r0, lsl #14
    3384:	251d0701 	ldrcs	r0, [sp, #-1793]	; 0xfffff8ff
    3388:	25000000 	strcs	r0, [r0, #-0]
    338c:	1f000009 	svcne	0x00000009
    3390:	07000009 	streq	r0, [r0, -r9]
    3394:	0701006e 	streq	r0, [r1, -lr, rrx]
    3398:	00002c27 	andeq	r2, r0, r7, lsr #24
    339c:	00096b00 	andeq	r6, r9, r0, lsl #22
    33a0:	00095100 	andeq	r5, r9, r0, lsl #2
    33a4:	081f0800 	ldmdaeq	pc, {fp}	; <UNPREDICTABLE>
    33a8:	01a80000 			; <UNDEFINED> instruction: 0x01a80000
    33ac:	03050000 	movweq	r0, #20480	; 0x5000
    33b0:	00009730 	andeq	r9, r0, r0, lsr r7
    33b4:	01007009 	tsteq	r0, r9
    33b8:	01b90b1b 			; <UNDEFINED> instruction: 0x01b90b1b
    33bc:	0a130000 	beq	4c33c4 <__bss_end__+0x4b9bc4>
    33c0:	0a0b0000 	beq	2c33c8 <__bss_end__+0x2b9bc8>
    33c4:	65090000 	strvs	r0, [r9, #-0]
    33c8:	151b0100 	ldrne	r0, [fp, #-256]	; 0xffffff00
    33cc:	000001b9 			; <UNDEFINED> instruction: 0x000001b9
    33d0:	00000a4d 	andeq	r0, r0, sp, asr #20
    33d4:	00000a49 	andeq	r0, r0, r9, asr #20
    33d8:	0089c40a 	addeq	ip, r9, sl, lsl #8
    33dc:	00002800 	andeq	r2, r0, r0, lsl #16
    33e0:	00013600 	andeq	r3, r1, r0, lsl #12
    33e4:	00700900 	rsbseq	r0, r0, r0, lsl #18
    33e8:	bf170c01 	svclt	0x00170c01
    33ec:	71000001 	tstvc	r0, r1
    33f0:	6b00000a 	blvs	3420 <__code_start__-0x4be0>
    33f4:	0000000a 	andeq	r0, r0, sl
    33f8:	0089ec0a 	addeq	lr, r9, sl, lsl #24
    33fc:	00002000 	andeq	r2, r0, r0
    3400:	00015600 	andeq	r5, r1, r0, lsl #12
    3404:	00700900 	rsbseq	r0, r0, r0, lsl #18
    3408:	c5171301 	ldrgt	r1, [r7, #-769]	; 0xfffffcff
    340c:	a2000001 	andge	r0, r0, #1, 0
    3410:	9c00000a 	stcls	0, cr0, [r0], {10}
    3414:	0000000a 	andeq	r0, r0, sl
    3418:	0089c00b 	addeq	ip, r9, fp
    341c:	0001cb00 	andeq	ip, r1, r0, lsl #22
    3420:	00018e00 	andeq	r8, r1, r0, lsl #28
    3424:	50010c00 	andpl	r0, r1, r0, lsl #24
    3428:	95140305 	ldrls	r0, [r4, #-773]	; 0xfffffcfb
    342c:	010c0000 	mrseq	r0, (UNDEF: 12)
    3430:	20030551 	andcs	r0, r3, r1, asr r5
    3434:	0c000097 	stceq	0, cr0, [r0], {151}	; 0x97
    3438:	03055201 	movweq	r5, #20993	; 0x5201
    343c:	00009730 	andeq	r9, r0, r0, lsr r7
    3440:	0153010c 	cmpeq	r3, ip, lsl #2
    3444:	7d020c38 	stcvc	12, cr0, [r2, #-224]	; 0xffffff20
    3448:	04030500 	streq	r0, [r3], #-1280	; 0xfffffb00
    344c:	00000093 	muleq	r0, r3, r0
    3450:	0089c40d 	addeq	ip, r9, sp, lsl #8
    3454:	0001d700 	andeq	sp, r1, r0, lsl #14
    3458:	b40e0000 	strlt	r0, [lr], #-0
    345c:	a8000001 	stmdage	r0, {r0}
    3460:	0f000001 	svceq	0x00000001
    3464:	00000038 	andeq	r0, r0, r8, lsr r0
    3468:	98100006 	ldmdals	r0, {r1, r2}
    346c:	04000001 	streq	r0, [r0], #-1
    3470:	04e80801 	strbteq	r0, [r8], #2049	; 0x801
    3474:	ad100000 	ldcge	0, cr0, [r0, #-0]
    3478:	11000001 	tstne	r0, r1
    347c:	0001ad04 	andeq	sl, r1, r4, lsl #26
    3480:	7c041100 	stfvcs	f1, [r4], {-0}
    3484:	11000000 	mrsne	r0, (UNDEF: 0)
    3488:	00006904 	andeq	r6, r0, r4, lsl #18
    348c:	0bec1200 	bleq	ffb07c94 <__bss_end__+0xffafe494>
    3490:	0bec0000 	bleq	ffb03498 <__bss_end__+0xffaf9c98>
    3494:	24040000 	strcs	r0, [r4], #-0
    3498:	03e61205 	mvneq	r1, #1342177280	; 0x50000000
    349c:	03e60000 	mvneq	r0, #0, 0
    34a0:	5f040000 	svcpl	0x00040000
    34a4:	038e0006 	orreq	r0, lr, #6, 0
    34a8:	00040000 	andeq	r0, r4, r0
    34ac:	00000b91 	muleq	r0, r1, fp
    34b0:	0b270104 	bleq	9c38c8 <__bss_end__+0x9ba0c8>
    34b4:	010c0000 	mrseq	r0, (UNDEF: 12)
    34b8:	ed00000c 	stc	0, cr0, [r0, #-48]	; 0xffffffd0
    34bc:	3000000a 	andcc	r0, r0, sl
    34c0:	e800008a 	stmda	r0, {r1, r3, r7}
    34c4:	f7000002 			; <UNDEFINED> instruction: 0xf7000002
    34c8:	0200000c 	andeq	r0, r0, #12, 0
    34cc:	6e690504 	cdpvs	5, 6, cr0, cr9, cr4, {0}
    34d0:	04030074 	streq	r0, [r3], #-116	; 0xffffff8c
    34d4:	00012307 	andeq	r2, r1, r7, lsl #6
    34d8:	06010300 	streq	r0, [r1], -r0, lsl #6
    34dc:	000004e1 	andeq	r0, r0, r1, ror #9
    34e0:	fb050203 	blx	143cf6 <__bss_end__+0x13a4f6>
    34e4:	03000004 	movweq	r0, #4
    34e8:	01830504 	orreq	r0, r3, r4, lsl #10
    34ec:	08030000 	stmdaeq	r3, {}	; <UNPREDICTABLE>
    34f0:	00017e05 	andeq	r7, r1, r5, lsl #28
    34f4:	08010300 	stmdaeq	r1, {r8, r9}
    34f8:	000004df 	ldrdeq	r0, [r0], -pc	; <UNPREDICTABLE>
    34fc:	5b070203 	blpl	1c3d10 <__bss_end__+0x1ba510>
    3500:	04000003 	streq	r0, [r0], #-3
    3504:	000005ab 	andeq	r0, r0, fp, lsr #11
    3508:	69193402 	ldmdbvs	r9, {r1, sl, ip, sp}
    350c:	03000000 	movweq	r0, #0
    3510:	011e0704 	tsteq	lr, r4, lsl #14
    3514:	08030000 	stmdaeq	r3, {}	; <UNPREDICTABLE>
    3518:	00011907 	andeq	r1, r1, r7, lsl #18
    351c:	0bdc0400 	bleq	ff704524 <__bss_end__+0xff6fad24>
    3520:	28030000 	stmdacs	r3, {}	; <UNPREDICTABLE>
    3524:	0000831b 	andeq	r8, r0, fp, lsl r3
    3528:	0c110500 	cfldr32eq	mvfx0, [r1], {-0}
    352c:	05040000 	streq	r0, [r4, #-0]
    3530:	00009a00 	andeq	r9, r0, r0, lsl #20
    3534:	0bf30600 	bleq	ffcc4d3c <__bss_end__+0xffcbb53c>
    3538:	009a0000 	addseq	r0, sl, r0
    353c:	00000000 	andeq	r0, r0, r0
    3540:	13040407 	movwne	r0, #17415	; 0x4407
    3544:	0300000c 	movweq	r0, #12
    3548:	00771863 	rsbseq	r1, r7, r3, ror #16
    354c:	ec080000 	stc	0, cr0, [r8], {-0}
    3550:	0100000b 	tsteq	r0, fp
    3554:	00250550 	eoreq	r0, r5, r0, asr r5
    3558:	8a300000 	bhi	c03560 <__bss_end__+0xbf9d60>
    355c:	002c0000 	eoreq	r0, ip, r0
    3560:	9c010000 	stcls	0, cr0, [r1], {-0}
    3564:	0000010d 	andeq	r0, r0, sp, lsl #2
    3568:	746d6609 	strbtvc	r6, [sp], #-1545	; 0xfffff9f7
    356c:	18500100 	ldmdane	r0, {r8}^
    3570:	0000010d 	andeq	r0, r0, sp, lsl #2
    3574:	0a709102 	beq	1c27984 <__bss_end__+0x1c1e184>
    3578:	0001c90b 	andeq	ip, r1, fp, lsl #18
    357c:	0d510100 	ldfeqe	f0, [r1, #-0]
    3580:	0000009c 	muleq	r0, ip, r0
    3584:	0c649102 	stfeqp	f1, [r4], #-8
    3588:	00746572 	rsbseq	r6, r4, r2, ror r5
    358c:	25095301 	strcs	r5, [r9, #-769]	; 0xfffffcff
    3590:	cf000000 	svcgt	0x00000000
    3594:	cd00000a 	stcgt	0, cr0, [r0, #-40]	; 0xffffffd8
    3598:	0d00000a 	stceq	0, cr0, [r0, #-40]	; 0xffffffd8
    359c:	00008a4c 	andeq	r8, r0, ip, asr #20
    35a0:	0000011f 	andeq	r0, r0, pc, lsl r1
    35a4:	0350010e 	cmpeq	r0, #-2147483645	; 0x80000003
    35a8:	0e064891 	mcreq	8, 0, r4, cr6, cr1, {4}
    35ac:	91025101 	tstls	r2, r1, lsl #2
    35b0:	0f00004c 	svceq	0x0000004c
    35b4:	00011a04 	andeq	r1, r1, r4, lsl #20
    35b8:	08010300 	stmdaeq	r1, {r8, r9}
    35bc:	000004e8 	andeq	r0, r0, r8, ror #9
    35c0:	00011310 	andeq	r1, r1, r0, lsl r3
    35c4:	0beb0800 	bleq	ffac55cc <__bss_end__+0xffabbdcc>
    35c8:	24010000 	strcs	r0, [r1], #-0
    35cc:	00002505 	andeq	r2, r0, r5, lsl #10
    35d0:	008b6000 	addeq	r6, fp, r0
    35d4:	0001b800 	andeq	fp, r1, r0, lsl #16
    35d8:	849c0100 	ldrhi	r0, [ip], #256	; 0x100
    35dc:	11000002 	tstne	r0, r2
    35e0:	00746d66 	rsbseq	r6, r4, r6, ror #26
    35e4:	0d192401 	cfldrseq	mvf2, [r9, #-4]
    35e8:	ee000001 	cdp	0, 0, cr0, cr0, cr1, {0}
    35ec:	e200000a 	and	r0, r0, #10, 0
    35f0:	0900000a 	stmdbeq	r0, {r1, r3}
    35f4:	01007061 	tsteq	r0, r1, rrx
    35f8:	009c2624 	addseq	r2, ip, r4, lsr #12
    35fc:	91020000 	mrsls	r0, (UNDEF: 2)
    3600:	081f126c 	ldmdaeq	pc, {r2, r3, r5, r6, r9, ip}	; <UNPREDICTABLE>
    3604:	02940000 	addseq	r0, r4, #0, 0
    3608:	03050000 	movweq	r0, #20480	; 0x5000
    360c:	000097c4 	andeq	r9, r0, r4, asr #15
    3610:	00003013 	andeq	r3, r0, r3, lsl r0
    3614:	00027a00 	andeq	r7, r2, r0, lsl #20
    3618:	00751400 	rsbseq	r1, r5, r0, lsl #8
    361c:	5d162b01 	vldrpl	d2, [r6, #-4]
    3620:	0c000000 	stceq	0, cr0, [r0], {-0}
    3624:	2c010076 	stccs	0, cr0, [r1], {118}	; 0x76
    3628:	00002511 	andeq	r2, r0, r1, lsl r5
    362c:	000b3c00 	andeq	r3, fp, r0, lsl #24
    3630:	000b3800 	andeq	r3, fp, r0, lsl #16
    3634:	00730c00 	rsbseq	r0, r3, r0, lsl #24
    3638:	99132d01 	ldmdbls	r3, {r0, r8, sl, fp, sp}
    363c:	5c000002 	stcpl	0, cr0, [r0], {2}
    3640:	5a00000b 	bpl	3674 <__code_start__-0x498c>
    3644:	1500000b 	strne	r0, [r0, #-11]
    3648:	00008c20 	andeq	r8, r0, r0, lsr #24
    364c:	0000029f 	muleq	r0, pc, r2	; <UNPREDICTABLE>
    3650:	000001b4 			; <UNDEFINED> instruction: 0x000001b4
    3654:	0150010e 	cmpeq	r0, lr, lsl #2
    3658:	3c150032 	ldccc	0, cr0, [r5], {50}	; 0x32
    365c:	9f00008c 	svcls	0x0000008c
    3660:	c7000002 	strgt	r0, [r0, -r2]
    3664:	0e000001 	cdpeq	0, 0, cr0, cr0, cr1, {0}
    3668:	3a015001 	bcc	57674 <__bss_end__+0x4de74>
    366c:	8c541600 	mrrchi	6, 0, r1, r4, cr0
    3670:	03790000 	cmneq	r9, #0, 0
    3674:	60150000 	andsvs	r0, r5, r0
    3678:	7900008c 	stmdbvc	r0, {r2, r3, r7}
    367c:	e4000003 	str	r0, [r0], #-3
    3680:	0e000001 	cdpeq	0, 0, cr0, cr0, cr1, {0}
    3684:	08025001 	stmdaeq	r2, {r0, ip, lr}
    3688:	68150030 	ldmdavs	r5, {r4, r5}
    368c:	7900008c 	stmdbvc	r0, {r2, r3, r7}
    3690:	f8000003 			; <UNDEFINED> instruction: 0xf8000003
    3694:	0e000001 	cdpeq	0, 0, cr0, cr0, cr1, {0}
    3698:	08025001 	stmdaeq	r2, {r0, ip, lr}
    369c:	80150078 	andshi	r0, r5, r8, ror r0
    36a0:	9f00008c 	svcls	0x0000008c
    36a4:	0b000002 	bleq	36b4 <__code_start__-0x494c>
    36a8:	0e000002 	cdpeq	0, 0, cr0, cr0, cr2, {0}
    36ac:	40015001 	andmi	r5, r1, r1
    36b0:	8ca81500 	cfstr32hi	mvfx1, [r8]
    36b4:	029f0000 	addseq	r0, pc, #0, 0
    36b8:	02240000 	eoreq	r0, r4, #0, 0
    36bc:	010e0000 	mrseq	r0, (UNDEF: 14)
    36c0:	0e3a0150 	mrceq	1, 1, r0, cr10, cr0, {2}
    36c4:	74025101 	strvc	r5, [r2], #-257	; 0xfffffeff
    36c8:	b4150000 	ldrlt	r0, [r5], #-0
    36cc:	7900008c 	stmdbvc	r0, {r2, r3, r7}
    36d0:	38000003 	stmdacc	r0, {r0, r1}
    36d4:	0e000002 	cdpeq	0, 0, cr0, cr0, cr2, {0}
    36d8:	08025001 	stmdaeq	r2, {r0, ip, lr}
    36dc:	d416002d 	ldrle	r0, [r6], #-45	; 0xffffffd3
    36e0:	7900008c 	stmdbvc	r0, {r2, r3, r7}
    36e4:	15000003 	strne	r0, [r0, #-3]
    36e8:	00008d00 	andeq	r8, r0, r0, lsl #26
    36ec:	000000a8 	andeq	r0, r0, r8, lsr #1
    36f0:	00000270 	andeq	r0, r0, r0, ror r2
    36f4:	0550010e 	ldrbeq	r0, [r0, #-270]	; 0xfffffef2
    36f8:	00979003 	addseq	r9, r7, r3
    36fc:	51010e00 	tstpl	r1, r0, lsl #28
    3700:	97380305 	ldrls	r0, [r8, -r5, lsl #6]!
    3704:	010e0000 	mrseq	r0, (UNDEF: 14)
    3708:	c4030552 	strgt	r0, [r3], #-1362	; 0xfffffaae
    370c:	0e000097 	mcreq	0, 0, r0, cr0, cr7, {4}
    3710:	08025301 	stmdaeq	r2, {r0, r8, r9, ip, lr}
    3714:	04160049 	ldreq	r0, [r6], #-73	; 0xffffffb7
    3718:	8500008d 	strhi	r0, [r0, #-141]	; 0xffffff73
    371c:	00000003 	andeq	r0, r0, r3
    3720:	008b7816 	addeq	r7, fp, r6, lsl r8
    3724:	00037900 	andeq	r7, r3, r0, lsl #18
    3728:	1a170000 	bne	5c3730 <__bss_end__+0x5b9f30>
    372c:	94000001 	strls	r0, [r0], #-1
    3730:	18000002 	stmdane	r0, {r1}
    3734:	0000002c 	andeq	r0, r0, ip, lsr #32
    3738:	84100007 	ldrhi	r0, [r0], #-7
    373c:	0f000002 	svceq	0x00000002
    3740:	00011304 	andeq	r1, r1, r4, lsl #6
    3744:	0bf81900 	bleq	ffe09b4c <__bss_end__+0xffe0034c>
    3748:	05010000 	streq	r0, [r1, #-0]
    374c:	008a5c0d 	addeq	r5, sl, sp, lsl #24
    3750:	00010400 	andeq	r0, r1, r0, lsl #8
    3754:	549c0100 	ldrpl	r0, [ip], #256	; 0x100
    3758:	1a000003 	bne	376c <__code_start__-0x4894>
    375c:	00000193 	muleq	r0, r3, r1
    3760:	2c1f0501 	cfldr32cs	mvfx0, [pc], {1}
    3764:	81000000 	mrshi	r0, (UNDEF: 0)
    3768:	6f00000b 	svcvs	0x0000000b
    376c:	1100000b 	tstne	r0, fp
    3770:	05010075 	streq	r0, [r1, #-117]	; 0xffffff8b
    3774:	00005d2e 	andeq	r5, r0, lr, lsr #26
    3778:	000c0500 	andeq	r0, ip, r0, lsl #10
    377c:	000bf900 	andeq	pc, fp, r0, lsl #18
    3780:	756e1b00 	strbvc	r1, [lr, #-2816]!	; 0xfffff500
    3784:	0601006d 	streq	r0, [r1], -sp, rrx
    3788:	0003540a 	andeq	r5, r3, sl, lsl #8
    378c:	54910200 	ldrpl	r0, [r1], #512	; 0x200
    3790:	0100700c 	tsteq	r0, ip
    3794:	02991406 	addseq	r1, r9, #100663296	; 0x6000000
    3798:	0c6a0000 	stcleq	0, cr0, [sl], #-0
    379c:	0c520000 	mraeq	r0, r2, acc0
    37a0:	1f120000 	svcne	0x00120000
    37a4:	74000008 	strvc	r0, [r0], #-8
    37a8:	05000003 	streq	r0, [r0, #-3]
    37ac:	0097b803 	addseq	fp, r7, r3, lsl #16
    37b0:	8a941500 	bhi	fe508bb8 <__bss_end__+0xfe4ff3b8>
    37b4:	00a80000 	adceq	r0, r8, r0
    37b8:	03410000 	movteq	r0, #4096	; 0x1000
    37bc:	010e0000 	mrseq	r0, (UNDEF: 14)
    37c0:	48030550 	stmdami	r3, {r4, r6, r8, sl}
    37c4:	0e000097 	mcreq	0, 0, r0, cr0, cr7, {4}
    37c8:	03055101 	movweq	r5, #20737	; 0x5101
    37cc:	00009738 	andeq	r9, r0, r8, lsr r7
    37d0:	0552010e 	ldrbeq	r0, [r2, #-270]	; 0xfffffef2
    37d4:	0097b803 	addseq	fp, r7, r3, lsl #16
    37d8:	53010e00 	movwpl	r0, #7680	; 0x1e00
    37dc:	020e4901 	andeq	r4, lr, #16384	; 0x4000
    37e0:	f303007d 	vqadd.u8	q0, <illegal reg q1.5>, <illegal reg q14.5>
    37e4:	16005001 	strne	r5, [r0], -r1
    37e8:	00008a98 	muleq	r0, r8, sl
    37ec:	00000385 	andeq	r0, r0, r5, lsl #7
    37f0:	008b3016 	addeq	r3, fp, r6, lsl r0
    37f4:	00037900 	andeq	r7, r3, r0, lsl #18
    37f8:	13170000 	tstne	r7, #0, 0
    37fc:	64000001 	strvs	r0, [r0], #-1
    3800:	18000003 	stmdane	r0, {r0, r1}
    3804:	0000002c 	andeq	r0, r0, ip, lsr #32
    3808:	1a170020 	bne	5c3890 <__bss_end__+0x5ba090>
    380c:	74000001 	strvc	r0, [r0], #-1
    3810:	18000003 	stmdane	r0, {r0, r1}
    3814:	0000002c 	andeq	r0, r0, ip, lsr #32
    3818:	64100008 	ldrvs	r0, [r0], #-8
    381c:	1c000003 	stcne	0, cr0, [r0], {3}
    3820:	00000c1b 	andeq	r0, r0, fp, lsl ip
    3824:	00000c1b 	andeq	r0, r0, fp, lsl ip
    3828:	1c051e04 	stcne	14, cr1, [r5], {4}
    382c:	000003e6 	andeq	r0, r0, r6, ror #7
    3830:	000003e6 	andeq	r0, r0, r6, ror #7
    3834:	00065f04 	andeq	r5, r6, r4, lsl #30
    3838:	000000b1 	strheq	r0, [r0], -r1
    383c:	0d220004 	stceq	0, cr0, [r2, #-16]!
    3840:	01040000 	mrseq	r0, (UNDEF: 4)
    3844:	00000b27 	andeq	r0, r0, r7, lsr #22
    3848:	000c270c 	andeq	r2, ip, ip, lsl #14
    384c:	000aed00 	andeq	lr, sl, r0, lsl #26
    3850:	008d1800 	addeq	r1, sp, r0, lsl #16
    3854:	00001400 	andeq	r1, r0, r0, lsl #8
    3858:	000fca00 	andeq	ip, pc, r0, lsl #20
    385c:	05040200 	streq	r0, [r4, #-512]	; 0xfffffe00
    3860:	00746e69 	rsbseq	r6, r4, r9, ror #28
    3864:	23070403 	movwcs	r0, #29699	; 0x7403
    3868:	03000001 	movweq	r0, #1
    386c:	04e10601 	strbteq	r0, [r1], #1537	; 0x601
    3870:	02030000 	andeq	r0, r3, #0, 0
    3874:	0004fb05 	andeq	pc, r4, r5, lsl #22
    3878:	05040300 	streq	r0, [r4, #-768]	; 0xfffffd00
    387c:	00000183 	andeq	r0, r0, r3, lsl #3
    3880:	7e050803 	cdpvc	8, 0, cr0, cr5, cr3, {0}
    3884:	03000001 	movweq	r0, #1
    3888:	04df0801 	ldrbeq	r0, [pc], #2049	; 3890 <__code_start__-0x4770>
    388c:	02030000 	andeq	r0, r3, #0, 0
    3890:	00035b07 	andeq	r5, r3, r7, lsl #22
    3894:	07040300 	streq	r0, [r4, -r0, lsl #6]
    3898:	0000011e 	andeq	r0, r0, lr, lsl r1
    389c:	19070803 	stmdbne	r7, {r0, r1, fp}
    38a0:	04000001 	streq	r0, [r0], #-1
    38a4:	00000c1b 	andeq	r0, r0, fp, lsl ip
    38a8:	25050301 	strcs	r0, [r5, #-769]	; 0xfffffcff
    38ac:	18000000 	stmdane	r0, {}	; <UNPREDICTABLE>
    38b0:	1400008d 	strne	r0, [r0], #-141	; 0xffffff73
    38b4:	01000000 	mrseq	r0, (UNDEF: 0)
    38b8:	0000a89c 	muleq	r0, ip, r8
    38bc:	00630500 	rsbeq	r0, r3, r0, lsl #10
    38c0:	25150301 	ldrcs	r0, [r5, #-769]	; 0xfffffcff
    38c4:	08000000 	stmdaeq	r0, {}	; <UNPREDICTABLE>
    38c8:	0400000d 	streq	r0, [r0], #-13
    38cc:	0600000d 	streq	r0, [r0], -sp
    38d0:	00008d24 	andeq	r8, r0, r4, lsr #26
    38d4:	000000a8 	andeq	r0, r0, r8, lsr #1
    38d8:	02500107 	subseq	r0, r0, #-1073741823	; 0xc0000001
    38dc:	00000074 	andeq	r0, r0, r4, ror r0
    38e0:	000c3808 	andeq	r3, ip, r8, lsl #16
    38e4:	000c3800 	andeq	r3, ip, r0, lsl #16
    38e8:	06350200 	ldrteq	r0, [r5], -r0, lsl #4
    38ec:	0000eb00 	andeq	lr, r0, r0, lsl #22
    38f0:	a8000400 	stmdage	r0, {sl}
    38f4:	0400000d 	streq	r0, [r0], #-13
    38f8:	000b2701 	andeq	r2, fp, r1, lsl #14
    38fc:	0c560c00 	mrrceq	12, 0, r0, r6, cr0
    3900:	0aed0000 	beq	ffb43908 <__bss_end__+0xffb3a108>
    3904:	8d2c0000 	stchi	0, cr0, [ip, #-0]
    3908:	00200000 	eoreq	r0, r0, r0
    390c:	10520000 	subsne	r0, r2, r0
    3910:	04020000 	streq	r0, [r2], #-0
    3914:	746e6905 	strbtvc	r6, [lr], #-2309	; 0xfffff6fb
    3918:	07040300 	streq	r0, [r4, -r0, lsl #6]
    391c:	00000123 	andeq	r0, r0, r3, lsr #2
    3920:	e1060103 	tst	r6, r3, lsl #2
    3924:	03000004 	movweq	r0, #4
    3928:	04fb0502 	ldrbteq	r0, [fp], #1282	; 0x502
    392c:	04030000 	streq	r0, [r3], #-0
    3930:	00018305 	andeq	r8, r1, r5, lsl #6
    3934:	05080300 	streq	r0, [r8, #-768]	; 0xfffffd00
    3938:	0000017e 	andeq	r0, r0, lr, ror r1
    393c:	df080103 	svcle	0x00080103
    3940:	03000004 	movweq	r0, #4
    3944:	035b0702 	cmpeq	fp, #524288	; 0x80000
    3948:	04030000 	streq	r0, [r3], #-0
    394c:	00011e07 	andeq	r1, r1, r7, lsl #28
    3950:	07080300 	streq	r0, [r8, -r0, lsl #6]
    3954:	00000119 	andeq	r0, r0, r9, lsl r1
    3958:	0003e604 	andeq	lr, r3, r4, lsl #12
    395c:	06040100 	streq	r0, [r4], -r0, lsl #2
    3960:	00008d2c 	andeq	r8, r0, ip, lsr #26
    3964:	00000020 	andeq	r0, r0, r0, lsr #32
    3968:	00be9c01 	adcseq	r9, lr, r1, lsl #24
    396c:	38050000 	stmdacc	r5, {}	; <UNPREDICTABLE>
    3970:	be00008d 	cdplt	0, 0, cr0, cr0, cr13, {4}
    3974:	98000000 	stmdals	r0, {}	; <UNPREDICTABLE>
    3978:	06000000 	streq	r0, [r0], -r0
    397c:	03055001 	movweq	r5, #20481	; 0x5001
    3980:	000097cc 	andeq	r9, r0, ip, asr #15
    3984:	8d3c0700 	ldchi	7, cr0, [ip, #-0]
    3988:	00ca0000 	sbceq	r0, sl, r0
    398c:	44050000 	strmi	r0, [r5], #-0
    3990:	d600008d 	strle	r0, [r0], -sp, lsl #1
    3994:	b4000000 	strlt	r0, [r0], #-0
    3998:	06000000 	streq	r0, [r0], -r0
    399c:	3a015001 	bcc	579a8 <__bss_end__+0x4e1a8>
    39a0:	8d480700 	stclhi	7, cr0, [r8, #-0]
    39a4:	00e20000 	rsceq	r0, r2, r0
    39a8:	08000000 	stmdaeq	r0, {}	; <UNPREDICTABLE>
    39ac:	00000c71 	andeq	r0, r0, r1, ror ip
    39b0:	00000c71 	andeq	r0, r0, r1, ror ip
    39b4:	08052102 	stmdaeq	r5, {r1, r8, sp}
    39b8:	00000c76 	andeq	r0, r0, r6, ror ip
    39bc:	00000c76 	andeq	r0, r0, r6, ror ip
    39c0:	08064002 	stmdaeq	r6, {r1, lr}
    39c4:	00000c4d 	andeq	r0, r0, sp, asr #24
    39c8:	00000c4d 	andeq	r0, r0, sp, asr #24
    39cc:	08064d02 	stmdaeq	r6, {r1, r8, sl, fp, lr}
    39d0:	00000c42 	andeq	r0, r0, r2, asr #24
    39d4:	00000c42 	andeq	r0, r0, r2, asr #24
    39d8:	00065c02 	andeq	r5, r6, r2, lsl #24
    39dc:	0000011e 	andeq	r0, r0, lr, lsl r1
    39e0:	0e280004 	cdpeq	0, 2, cr0, cr8, cr4, {0}
    39e4:	01040000 	mrseq	r0, (UNDEF: 4)
    39e8:	00000b27 	andeq	r0, r0, r7, lsr #22
    39ec:	000c9e0c 	andeq	r9, ip, ip, lsl #28
    39f0:	000aed00 	andeq	lr, sl, r0, lsl #26
    39f4:	008d4c00 	addeq	r4, sp, r0, lsl #24
    39f8:	00003800 	andeq	r3, r0, r0, lsl #16
    39fc:	0010dd00 	andseq	sp, r0, r0, lsl #26
    3a00:	05040200 	streq	r0, [r4, #-512]	; 0xfffffe00
    3a04:	00746e69 	rsbseq	r6, r4, r9, ror #28
    3a08:	23070403 	movwcs	r0, #29699	; 0x7403
    3a0c:	03000001 	movweq	r0, #1
    3a10:	04e10601 	strbteq	r0, [r1], #1537	; 0x601
    3a14:	02030000 	andeq	r0, r3, #0, 0
    3a18:	0004fb05 	andeq	pc, r4, r5, lsl #22
    3a1c:	05040300 	streq	r0, [r4, #-768]	; 0xfffffd00
    3a20:	00000183 	andeq	r0, r0, r3, lsl #3
    3a24:	7e050803 	cdpvc	8, 0, cr0, cr5, cr3, {0}
    3a28:	03000001 	movweq	r0, #1
    3a2c:	04df0801 	ldrbeq	r0, [pc], #2049	; 3a34 <__code_start__-0x45cc>
    3a30:	02030000 	andeq	r0, r3, #0, 0
    3a34:	00035b07 	andeq	r5, r3, r7, lsl #22
    3a38:	07040300 	streq	r0, [r4, -r0, lsl #6]
    3a3c:	0000011e 	andeq	r0, r0, lr, lsl r1
    3a40:	19070803 	stmdbne	r7, {r0, r1, fp}
    3a44:	04000001 	streq	r0, [r0], #-1
    3a48:	00000c84 	andeq	r0, r0, r4, lsl #25
    3a4c:	4c060401 	cfstrsmi	mvf0, [r6], {1}
    3a50:	3800008d 	stmdacc	r0, {r0, r2, r3, r7}
    3a54:	01000000 	mrseq	r0, (UNDEF: 0)
    3a58:	0000f79c 	muleq	r0, ip, r7
    3a5c:	044d0500 	strbeq	r0, [sp], #-1280	; 0xfffffb00
    3a60:	05010000 	streq	r0, [r1, #-0]
    3a64:	00002510 	andeq	r2, r0, r0, lsl r5
    3a68:	04750500 	ldrbteq	r0, [r5], #-1280	; 0xfffffb00
    3a6c:	05010000 	streq	r0, [r1, #-0]
    3a70:	0000251f 	andeq	r2, r0, pc, lsl r5
    3a74:	00e00600 	rsceq	r0, r0, r0, lsl #12
    3a78:	06010000 	streq	r0, [r1], -r0
    3a7c:	73620707 	cmnvc	r2, #1835008	; 0x1c0000
    3a80:	09010073 	stmdbeq	r1, {r0, r1, r4, r5, r6}
    3a84:	0000f70a 	andeq	pc, r0, sl, lsl #14
    3a88:	000d2c00 	andeq	r2, sp, r0, lsl #24
    3a8c:	000d2600 	andeq	r2, sp, r0, lsl #12
    3a90:	0c8c0800 	stceq	8, cr0, [ip], {0}
    3a94:	0a010000 	beq	43a9c <__bss_end__+0x3a29c>
    3a98:	0000f70a 	andeq	pc, r0, sl, lsl #14
    3a9c:	8d6c0900 			; <UNDEFINED> instruction: 0x8d6c0900
    3aa0:	00080000 	andeq	r0, r8, r0
    3aa4:	00db0000 	sbcseq	r0, fp, r0
    3aa8:	690a0000 	stmdbvs	sl, {}	; <UNPREDICTABLE>
    3aac:	1301006e 	movwne	r0, #4206	; 0x106e
    3ab0:	00002c05 	andeq	r2, r0, r5, lsl #24
    3ab4:	0b000100 	bleq	3ebc <__code_start__-0x4144>
    3ab8:	00008d6c 	andeq	r8, r0, ip, ror #26
    3abc:	000000fd 	strdeq	r0, [r0], -sp
    3ac0:	008d780b 	addeq	r7, sp, fp, lsl #16
    3ac4:	00010900 	andeq	r0, r1, r0, lsl #18
    3ac8:	8d7c0b00 	vldmdbhi	ip!, {d16-d15}
    3acc:	01150000 	tsteq	r5, r0
    3ad0:	0c000000 	stceq	0, cr0, [r0], {-0}
    3ad4:	00002504 	andeq	r2, r0, r4, lsl #10
    3ad8:	0c940d00 	ldceq	13, cr0, [r4], {0}
    3adc:	0c940000 	ldceq	0, cr0, [r4], {0}
    3ae0:	2e020000 	cdpcs	0, 0, cr0, cr2, cr0, {0}
    3ae4:	00e00d06 	rsceq	r0, r0, r6, lsl #26
    3ae8:	00e00000 	rsceq	r0, r0, r0
    3aec:	97020000 	strls	r0, [r2, -r0]
    3af0:	03e60d06 	mvneq	r0, #384	; 0x180
    3af4:	03e60000 	mvneq	r0, #0, 0
    3af8:	5f020000 	svcpl	0x00020000
    3afc:	01cc0006 	biceq	r0, ip, r6
    3b00:	00040000 	andeq	r0, r4, r0
    3b04:	00000ef8 	strdeq	r0, [r0], -r8
    3b08:	0b270104 	bleq	9c3f20 <__bss_end__+0x9ba720>
    3b0c:	ca0c0000 	bgt	303b14 <__bss_end__+0x2fa314>
    3b10:	ed00000c 	stc	0, cr0, [r0, #-48]	; 0xffffffd0
    3b14:	4800000a 	stmdami	r0, {r1, r3}
    3b18:	00000000 	andeq	r0, r0, r0
    3b1c:	81000000 	mrshi	r0, (UNDEF: 0)
    3b20:	02000011 	andeq	r0, r0, #17, 0
    3b24:	6e690504 	cdpvs	5, 6, cr0, cr9, cr4, {0}
    3b28:	25030074 	strcs	r0, [r3, #-116]	; 0xffffff8c
    3b2c:	04000000 	streq	r0, [r0], #-0
    3b30:	01230704 			; <UNDEFINED> instruction: 0x01230704
    3b34:	01040000 	mrseq	r0, (UNDEF: 4)
    3b38:	0004e106 	andeq	lr, r4, r6, lsl #2
    3b3c:	05020400 	streq	r0, [r2, #-1024]	; 0xfffffc00
    3b40:	000004fb 	strdeq	r0, [r0], -fp
    3b44:	83050404 	movwhi	r0, #21508	; 0x5404
    3b48:	04000001 	streq	r0, [r0], #-1
    3b4c:	017e0508 	cmneq	lr, r8, lsl #10
    3b50:	01040000 	mrseq	r0, (UNDEF: 4)
    3b54:	0004df08 	andeq	sp, r4, r8, lsl #30
    3b58:	07020400 	streq	r0, [r2, -r0, lsl #8]
    3b5c:	0000035b 	andeq	r0, r0, fp, asr r3
    3b60:	1e070404 	cdpne	4, 0, cr0, cr7, cr4, {0}
    3b64:	04000001 	streq	r0, [r0], #-1
    3b68:	01190708 	tsteq	r9, r8, lsl #14
    3b6c:	ee050000 	cdp	0, 0, cr0, cr5, cr0, {0}
    3b70:	0100000c 	tsteq	r0, ip
    3b74:	0031110d 	eorseq	r1, r1, sp, lsl #2
    3b78:	42060000 	andmi	r0, r6, #0, 0
    3b7c:	0100000c 	tsteq	r0, ip
    3b80:	8dc8061f 	stclhi	6, cr0, [r8, #124]	; 0x7c
    3b84:	00500000 	subseq	r0, r0, r0
    3b88:	9c010000 	stcls	0, cr0, [r1], {-0}
    3b8c:	00000151 	andeq	r0, r0, r1, asr r1
    3b90:	000d1207 	andeq	r1, sp, r7, lsl #4
    3b94:	0f2a0100 	svceq	0x002a0100
    3b98:	0000002c 	andeq	r0, r0, ip, lsr #32
    3b9c:	00000d59 	andeq	r0, r0, r9, asr sp
    3ba0:	00000d57 	andeq	r0, r0, r7, asr sp
    3ba4:	000cb307 	andeq	fp, ip, r7, lsl #6
    3ba8:	0f2b0100 	svceq	0x002b0100
    3bac:	0000002c 	andeq	r0, r0, ip, lsr #32
    3bb0:	00000d73 	andeq	r0, r0, r3, ror sp
    3bb4:	00000d71 	andeq	r0, r0, r1, ror sp
    3bb8:	000cdf07 	andeq	sp, ip, r7, lsl #30
    3bbc:	0f2c0100 	svceq	0x002c0100
    3bc0:	0000002c 	andeq	r0, r0, ip, lsr #32
    3bc4:	00000d8d 	andeq	r0, r0, sp, lsl #27
    3bc8:	00000d8b 	andeq	r0, r0, fp, lsl #27
    3bcc:	000cf907 	andeq	pc, ip, r7, lsl #18
    3bd0:	0f2d0100 	svceq	0x002d0100
    3bd4:	0000002c 	andeq	r0, r0, ip, lsr #32
    3bd8:	00000da6 	andeq	r0, r0, r6, lsr #27
    3bdc:	00000da4 	andeq	r0, r0, r4, lsr #27
    3be0:	008dd008 	addeq	sp, sp, r8
    3be4:	00017c00 	andeq	r7, r1, r0, lsl #24
    3be8:	8ddc0800 	ldclhi	8, cr0, [ip]
    3bec:	01ab0000 			; <UNDEFINED> instruction: 0x01ab0000
    3bf0:	e4090000 	str	r0, [r9], #-0
    3bf4:	b700008d 	strlt	r0, [r0, -sp, lsl #1]
    3bf8:	07000001 	streq	r0, [r0, -r1]
    3bfc:	0a000001 	beq	3c08 <__code_start__-0x43f8>
    3c00:	3a015001 	bcc	57c0c <__bss_end__+0x4e40c>
    3c04:	8df00900 			; <UNDEFINED> instruction: 0x8df00900
    3c08:	01c30000 	biceq	r0, r3, r0
    3c0c:	01270000 			; <UNDEFINED> instruction: 0x01270000
    3c10:	010a0000 	mrseq	r0, (UNDEF: 10)
    3c14:	240c0550 	strcs	r0, [ip], #-1360	; 0xfffffab0
    3c18:	0a201000 	beq	807c20 <__bss_end__+0x7fe420>
    3c1c:	0c055101 	stfeqs	f5, [r5], {1}
    3c20:	5a000001 	bpl	3c2c <__code_start__-0x43d4>
    3c24:	8dfc0900 			; <UNDEFINED> instruction: 0x8dfc0900
    3c28:	01c30000 	biceq	r0, r3, r0
    3c2c:	01470000 	mrseq	r0, (UNDEF: 71)
    3c30:	010a0000 	mrseq	r0, (UNDEF: 10)
    3c34:	1c0c0550 	cfstr32ne	mvfx0, [ip], {80}	; 0x50
    3c38:	0a201000 	beq	807c40 <__bss_end__+0x7fe440>
    3c3c:	0c055101 	stfeqs	f5, [r5], {1}
    3c40:	5a000020 	bpl	3cc8 <__code_start__-0x4338>
    3c44:	8e040800 	cdphi	8, 0, cr0, cr4, cr0, {0}
    3c48:	01510000 	cmpeq	r1, r0
    3c4c:	0b000000 	bleq	3c54 <__code_start__-0x43ac>
    3c50:	00000cbb 			; <UNDEFINED> instruction: 0x00000cbb
    3c54:	b4061701 	strlt	r1, [r6], #-1793	; 0xfffff8ff
    3c58:	1400008d 	strne	r0, [r0], #-141	; 0xffffff73
    3c5c:	01000000 	mrseq	r0, (UNDEF: 0)
    3c60:	00017c9c 	muleq	r1, ip, ip
    3c64:	0d1a0700 	ldceq	7, cr0, [sl, #-0]
    3c68:	18010000 	stmdane	r1, {}	; <UNPREDICTABLE>
    3c6c:	0000310e 	andeq	r3, r0, lr, lsl #2
    3c70:	000dc100 	andeq	ip, sp, r0, lsl #2
    3c74:	000dbb00 	andeq	fp, sp, r0, lsl #22
    3c78:	eb0c0000 	bl	303c80 <__bss_end__+0x2fa480>
    3c7c:	0100000c 	tsteq	r0, ip
    3c80:	0025050e 	eoreq	r0, r5, lr, lsl #10
    3c84:	8d9c0000 	ldchi	0, cr0, [ip]
    3c88:	00180000 	andseq	r0, r8, r0
    3c8c:	9c010000 	stcls	0, cr0, [r1], {-0}
    3c90:	000001ab 	andeq	r0, r0, fp, lsr #3
    3c94:	000d1a07 	andeq	r1, sp, r7, lsl #20
    3c98:	0e0f0100 	adfeqe	f0, f7, f0
    3c9c:	00000031 	andeq	r0, r0, r1, lsr r0
    3ca0:	00000def 	andeq	r0, r0, pc, ror #27
    3ca4:	00000deb 	andeq	r0, r0, fp, ror #27
    3ca8:	0c760d00 	ldcleq	13, cr0, [r6], #-0
    3cac:	0c760000 	ldcleq	0, cr0, [r6], #-0
    3cb0:	40020000 	andmi	r0, r2, r0
    3cb4:	0c4d0d06 	mcrreq	13, 0, r0, sp, cr6
    3cb8:	0c4d0000 	mareq	acc0, r0, sp
    3cbc:	4d020000 	stcmi	0, cr0, [r2, #-0]
    3cc0:	01e30d06 	mvneq	r0, r6, lsl #26
    3cc4:	01e30000 	mvneq	r0, r0
    3cc8:	74020000 	strvc	r0, [r2], #-0
    3ccc:	01f90006 	mvnseq	r0, r6
    3cd0:	00040000 	andeq	r0, r4, r0
    3cd4:	00000fdc 	ldrdeq	r0, [r0], -ip
    3cd8:	0b270104 	bleq	9c40f0 <__bss_end__+0x9ba8f0>
    3cdc:	290c0000 	stmdbcs	ip, {}	; <UNPREDICTABLE>
    3ce0:	ed00000d 	stc	0, cr0, [r0, #-52]	; 0xffffffcc
    3ce4:	1800000a 	stmdane	r0, {r1, r3}
    3ce8:	8400008e 	strhi	r0, [r0], #-142	; 0xffffff72
    3cec:	59000000 	stmdbpl	r0, {}	; <UNPREDICTABLE>
    3cf0:	02000012 	andeq	r0, r0, #18, 0
    3cf4:	6e690504 	cdpvs	5, 6, cr0, cr9, cr4, {0}
    3cf8:	04030074 	streq	r0, [r3], #-116	; 0xffffff8c
    3cfc:	00012307 	andeq	r2, r1, r7, lsl #6
    3d00:	06010300 	streq	r0, [r1], -r0, lsl #6
    3d04:	000004e1 	andeq	r0, r0, r1, ror #9
    3d08:	fb050203 	blx	14451e <__bss_end__+0x13ad1e>
    3d0c:	03000004 	movweq	r0, #4
    3d10:	01830504 	orreq	r0, r3, r4, lsl #10
    3d14:	08030000 	stmdaeq	r3, {}	; <UNPREDICTABLE>
    3d18:	00017e05 	andeq	r7, r1, r5, lsl #28
    3d1c:	08010300 	stmdaeq	r1, {r8, r9}
    3d20:	000004df 	ldrdeq	r0, [r0], -pc	; <UNPREDICTABLE>
    3d24:	5b070203 	blpl	1c4538 <__bss_end__+0x1bad38>
    3d28:	03000003 	movweq	r0, #3
    3d2c:	011e0704 	tsteq	lr, r4, lsl #14
    3d30:	08030000 	stmdaeq	r3, {}	; <UNPREDICTABLE>
    3d34:	00011907 	andeq	r1, r1, r7, lsl #18
    3d38:	0d1f0400 	cfldrseq	mvf0, [pc, #-0]	; 3d40 <__code_start__-0x42c0>
    3d3c:	1e010000 	cdpne	0, 0, cr0, cr1, cr0, {0}
    3d40:	008e8406 	addeq	r8, lr, r6, lsl #8
    3d44:	00001800 	andeq	r1, r0, r0, lsl #16
    3d48:	b59c0100 	ldrlt	r0, [ip, #256]	; 0x100
    3d4c:	05000000 	streq	r0, [r0, #-0]
    3d50:	00636573 	rsbeq	r6, r3, r3, ror r5
    3d54:	2c191e01 	ldccs	14, cr1, [r9], {1}
    3d58:	12000000 	andne	r0, r0, #0, 0
    3d5c:	0e00000e 	cdpeq	0, 0, cr0, cr0, cr14, {0}
    3d60:	0600000e 	streq	r0, [r0], -lr
    3d64:	00008e98 	muleq	r0, r8, lr
    3d68:	000000b5 	strheq	r0, [r0], -r5
    3d6c:	11500107 	cmpne	r0, r7, lsl #2
    3d70:	355001f3 	ldrbcc	r0, [r0, #-499]	; 0xfffffe0d
    3d74:	5001f324 	andpl	pc, r1, r4, lsr #6
    3d78:	f324321c 	vqsub.u32	d3, d4, d12
    3d7c:	33225001 			; <UNDEFINED> instruction: 0x33225001
    3d80:	04000024 	streq	r0, [r0], #-36	; 0xffffffdc
    3d84:	00000c4d 	andeq	r0, r0, sp, asr #24
    3d88:	6c061b01 			; <UNDEFINED> instruction: 0x6c061b01
    3d8c:	1800008e 	stmdane	r0, {r1, r2, r3, r7}
    3d90:	01000000 	mrseq	r0, (UNDEF: 0)
    3d94:	0000fe9c 	muleq	r0, ip, lr
    3d98:	736d0500 	cmnvc	sp, #0, 10
    3d9c:	181b0100 	ldmdane	fp, {r8}
    3da0:	0000002c 	andeq	r0, r0, ip, lsr #32
    3da4:	00000e37 	andeq	r0, r0, r7, lsr lr
    3da8:	00000e33 	andeq	r0, r0, r3, lsr lr
    3dac:	008e8006 	addeq	r8, lr, r6
    3db0:	0000fe00 	andeq	pc, r0, r0, lsl #28
    3db4:	50010700 	andpl	r0, r1, r0, lsl #14
    3db8:	5001f311 	andpl	pc, r1, r1, lsl r3	; <UNPREDICTABLE>
    3dbc:	01f32435 	mvnseq	r2, r5, lsr r4
    3dc0:	24321c50 	ldrtcs	r1, [r2], #-3152	; 0xfffff3b0
    3dc4:	225001f3 	subscs	r0, r0, #-1073741764	; 0xc000003c
    3dc8:	00002433 	andeq	r2, r0, r3, lsr r4
    3dcc:	000d3d04 	andeq	r3, sp, r4, lsl #26
    3dd0:	06120100 	ldreq	r0, [r2], -r0, lsl #2
    3dd4:	00008e48 	andeq	r8, r0, r8, asr #28
    3dd8:	00000024 	andeq	r0, r0, r4, lsr #32
    3ddc:	016e9c01 	cmneq	lr, r1, lsl #24
    3de0:	75050000 	strvc	r0, [r5, #-0]
    3de4:	12010073 	andne	r0, r1, #115, 0	; 0x73
    3de8:	00002c18 	andeq	r2, r0, r8, lsl ip
    3dec:	000e5c00 	andeq	r5, lr, r0, lsl #24
    3df0:	000e5800 	andeq	r5, lr, r0, lsl #16
    3df4:	62720800 	rsbsvs	r0, r2, #0, 16
    3df8:	0e130100 	mufeqs	f0, f3, f0
    3dfc:	0000002c 	andeq	r0, r0, ip, lsr #32
    3e00:	00000e7c 	andeq	r0, r0, ip, ror lr
    3e04:	00000e7a 	andeq	r0, r0, sl, ror lr
    3e08:	008e5809 	addeq	r5, lr, r9, lsl #16
    3e0c:	00001400 	andeq	r1, r0, r0, lsl #8
    3e10:	00016400 	andeq	r6, r1, r0, lsl #8
    3e14:	61720800 	cmnvs	r2, r0, lsl #16
    3e18:	12150100 	andsne	r0, r5, #0
    3e1c:	0000002c 	andeq	r0, r0, ip, lsr #32
    3e20:	00000e91 	muleq	r0, r1, lr
    3e24:	00000e8f 	andeq	r0, r0, pc, lsl #29
    3e28:	008e5c0a 	addeq	r5, lr, sl, lsl #24
    3e2c:	00016e00 	andeq	r6, r1, r0, lsl #28
    3e30:	540a0000 	strpl	r0, [sl], #-0
    3e34:	6e00008e 	cdpvs	0, 0, cr0, cr0, cr14, {4}
    3e38:	00000001 	andeq	r0, r0, r1
    3e3c:	0006dc0b 	andeq	sp, r6, fp, lsl #24
    3e40:	0a090100 	beq	244248 <__bss_end__+0x23aa48>
    3e44:	0000002c 	andeq	r0, r0, ip, lsr #32
    3e48:	00008e2c 	andeq	r8, r0, ip, lsr #28
    3e4c:	0000001c 	andeq	r0, r0, ip, lsl r0
    3e50:	01b69c01 			; <UNDEFINED> instruction: 0x01b69c01
    3e54:	75080000 	strvc	r0, [r8, #-0]
    3e58:	0e0d0100 	adfeqe	f0, f5, f0
    3e5c:	0000002c 	andeq	r0, r0, ip, lsr #32
    3e60:	00000ea8 	andeq	r0, r0, r8, lsr #29
    3e64:	00000ea4 	andeq	r0, r0, r4, lsr #29
    3e68:	008e340a 	addeq	r3, lr, sl, lsl #8
    3e6c:	0001e400 	andeq	lr, r1, r0, lsl #8
    3e70:	8e380a00 	vaddhi.f32	s0, s16, s0
    3e74:	01b60000 			; <UNDEFINED> instruction: 0x01b60000
    3e78:	400a0000 	andmi	r0, sl, r0
    3e7c:	e400008e 	str	r0, [r0], #-142	; 0xffffff72
    3e80:	00000001 	andeq	r0, r0, r1
    3e84:	000d460b 	andeq	r4, sp, fp, lsl #12
    3e88:	0a040100 	beq	104290 <__bss_end__+0xfaa90>
    3e8c:	0000002c 	andeq	r0, r0, ip, lsr #32
    3e90:	00008e18 	andeq	r8, r0, r8, lsl lr
    3e94:	00000014 	andeq	r0, r0, r4, lsl r0
    3e98:	01e49c01 	mvneq	r9, r1, lsl #24
    3e9c:	24060000 	strcs	r0, [r6], #-0
    3ea0:	f000008e 			; <UNDEFINED> instruction: 0xf000008e
    3ea4:	07000001 	streq	r0, [r0, -r1]
    3ea8:	0c055001 	stceq	0, cr5, [r5], {1}
    3eac:	20003004 	andcs	r3, r0, r4
    3eb0:	900c0000 	andls	r0, ip, r0
    3eb4:	90000003 	andls	r0, r0, r3
    3eb8:	02000003 	andeq	r0, r0, #3, 0
    3ebc:	470c066d 	strmi	r0, [ip, -sp, ror #12]
    3ec0:	47000004 	strmi	r0, [r0, -r4]
    3ec4:	02000004 	andeq	r0, r0, #4, 0
    3ec8:	cd000a78 	vstrgt	s0, [r0, #-480]	; 0xfffffe20
    3ecc:	04000005 	streq	r0, [r0], #-5
    3ed0:	0010a800 	andseq	sl, r0, r0, lsl #16
    3ed4:	c0010400 	andgt	r0, r1, r0, lsl #8
    3ed8:	0c000009 	stceq	0, cr0, [r0], {9}
    3edc:	00000d92 	muleq	r0, r2, sp
    3ee0:	0000096f 	andeq	r0, r0, pc, ror #18
    3ee4:	00008e9c 	muleq	r0, ip, lr
    3ee8:	000001f0 	strdeq	r0, [r0], -r0	; <UNPREDICTABLE>
    3eec:	00001339 	andeq	r1, r0, r9, lsr r3
    3ef0:	69050402 	stmdbvs	r5, {r1, sl}
    3ef4:	0300746e 	movweq	r7, #1134	; 0x46e
    3ef8:	01230704 			; <UNDEFINED> instruction: 0x01230704
    3efc:	2c040000 	stccs	0, cr0, [r4], {-0}
    3f00:	03000000 	movweq	r0, #0
    3f04:	04e10601 	strbteq	r0, [r1], #1537	; 0x601
    3f08:	02030000 	andeq	r0, r3, #0, 0
    3f0c:	0004fb05 	andeq	pc, r4, r5, lsl #22
    3f10:	05040300 	streq	r0, [r4, #-768]	; 0xfffffd00
    3f14:	00000183 	andeq	r0, r0, r3, lsl #3
    3f18:	7e050803 	cdpvc	8, 0, cr0, cr5, cr3, {0}
    3f1c:	03000001 	movweq	r0, #1
    3f20:	04df0801 	ldrbeq	r0, [pc], #2049	; 3f28 <__code_start__-0x40d8>
    3f24:	02030000 	andeq	r0, r3, #0, 0
    3f28:	00035b07 	andeq	r5, r3, r7, lsl #22
    3f2c:	05ab0500 	streq	r0, [fp, #1280]!	; 0x500
    3f30:	34050000 	strcc	r0, [r5], #-0
    3f34:	00006e19 	andeq	r6, r0, r9, lsl lr
    3f38:	07040300 	streq	r0, [r4, -r0, lsl #6]
    3f3c:	0000011e 	andeq	r0, r0, lr, lsl r1
    3f40:	19070803 	stmdbne	r7, {r0, r1, fp}
    3f44:	03000001 	movweq	r0, #1
    3f48:	04e80801 	strbteq	r0, [r8], #2049	; 0x801
    3f4c:	07060000 	streq	r0, [r6, -r0]
    3f50:	00005401 	andeq	r5, r0, r1, lsl #8
    3f54:	0e0c0400 	cfcpyseq	mvf0, mvf12
    3f58:	000000c2 	andeq	r0, r0, r2, asr #1
    3f5c:	000e7107 	andeq	r7, lr, r7, lsl #2
    3f60:	75070000 	strvc	r0, [r7, #-0]
    3f64:	0100000d 	tsteq	r0, sp
    3f68:	000e0e07 	andeq	r0, lr, r7, lsl #28
    3f6c:	1d070400 	cfstrsne	mvf0, [r7, #-0]
    3f70:	0500000e 	streq	r0, [r0, #-14]
    3f74:	000e3a07 	andeq	r3, lr, r7, lsl #20
    3f78:	b2070600 	andlt	r0, r7, #0, 12
    3f7c:	0700000d 	streq	r0, [r0, -sp]
    3f80:	000e4907 	andeq	r4, lr, r7, lsl #18
    3f84:	c1070300 	mrsgt	r0, SP_und
    3f88:	0200000d 	andeq	r0, r0, #13, 0
    3f8c:	0d860800 	stceq	8, cr0, [r6]
    3f90:	022c0000 	eoreq	r0, ip, #0, 0
    3f94:	015e0806 	cmpeq	lr, r6, lsl #16
    3f98:	69090000 	stmdbvs	r9, {}	; <UNPREDICTABLE>
    3f9c:	0902006f 	stmdbeq	r2, {r0, r1, r2, r3, r5, r6}
    3fa0:	00003309 	andeq	r3, r0, r9, lsl #6
    3fa4:	69090000 	stmdbvs	r9, {}	; <UNPREDICTABLE>
    3fa8:	02007265 	andeq	r7, r0, #1342177286	; 0x50000006
    3fac:	0033090a 	eorseq	r0, r3, sl, lsl #18
    3fb0:	09040000 	stmdbeq	r4, {}	; <UNPREDICTABLE>
    3fb4:	00726969 	rsbseq	r6, r2, r9, ror #18
    3fb8:	33091102 	movwcc	r1, #37122	; 0x9102
    3fbc:	08000000 	stmdaeq	r0, {}	; <UNPREDICTABLE>
    3fc0:	72636c09 	rsbvc	r6, r3, #2304	; 0x900
    3fc4:	09130200 	ldmdbeq	r3, {r9}
    3fc8:	00000033 	andeq	r0, r0, r3, lsr r0
    3fcc:	636d090c 	cmnvs	sp, #12, 18	; 0x30000
    3fd0:	14020072 	strne	r0, [r2], #-114	; 0xffffff8e
    3fd4:	00003309 	andeq	r3, r0, r9, lsl #6
    3fd8:	6c091000 	stcvs	0, cr1, [r9], {-0}
    3fdc:	02007273 	andeq	r7, r0, #805306375	; 0x30000007
    3fe0:	00330915 	eorseq	r0, r3, r5, lsl r9
    3fe4:	09140000 	ldmdbeq	r4, {}	; <UNPREDICTABLE>
    3fe8:	0072736d 	rsbseq	r7, r2, sp, ror #6
    3fec:	33091602 	movwcc	r1, #38402	; 0x9602
    3ff0:	18000000 	stmdane	r0, {}	; <UNPREDICTABLE>
    3ff4:	000daa0a 	andeq	sl, sp, sl, lsl #20
    3ff8:	09170200 	ldmdbeq	r7, {r9}
    3ffc:	00000033 	andeq	r0, r0, r3, lsr r0
    4000:	0e090a1c 			; <UNDEFINED> instruction: 0x0e090a1c
    4004:	1b020000 	blne	8400c <__bss_end__+0x7a80c>
    4008:	00003309 	andeq	r3, r0, r9, lsl #6
    400c:	620a2000 	andvs	r2, sl, #0, 0
    4010:	0200000d 	andeq	r0, r0, #13, 0
    4014:	0033091d 	eorseq	r0, r3, sp, lsl r9
    4018:	0a240000 	beq	904020 <__bss_end__+0x8fa820>
    401c:	00000de0 	andeq	r0, r0, r0, ror #27
    4020:	33091e02 	movwcc	r1, #40450	; 0x9e02
    4024:	28000000 	stmdacs	r0, {}	; <UNPREDICTABLE>
    4028:	0e580b00 	vnmlseq.f64	d16, d8, d0
    402c:	08010000 	stmdaeq	r1, {}	; <UNPREDICTABLE>
    4030:	00017409 	andeq	r7, r1, r9, lsl #8
    4034:	21500400 	cmpcs	r0, r0, lsl #8
    4038:	33040c20 	movwcc	r0, #19488	; 0x4c20
    403c:	0d000000 	stceq	0, cr0, [r0, #-0]
    4040:	0000016e 	andeq	r0, r0, lr, ror #2
    4044:	000e6c0b 	andeq	r6, lr, fp, lsl #24
    4048:	23290100 			; <UNDEFINED> instruction: 0x23290100
    404c:	0000018f 	andeq	r0, r0, pc, lsl #3
    4050:	20215040 	eorcs	r5, r1, r0, asr #32
    4054:	00c2040c 	sbceq	r0, r2, ip, lsl #8
    4058:	890d0000 	stmdbhi	sp, {}	; <UNPREDICTABLE>
    405c:	0e000001 	cdpeq	0, 0, cr0, cr0, cr1, {0}
    4060:	00000c76 	andeq	r0, r0, r6, ror ip
    4064:	5406cc01 	strpl	ip, [r6], #-3073	; 0xfffff3ff
    4068:	14000090 	strne	r0, [r0], #-144	; 0xffffff70
    406c:	01000000 	mrseq	r0, (UNDEF: 0)
    4070:	0001b49c 	muleq	r1, ip, r4
    4074:	905c0f00 	subsls	r0, ip, r0, lsl #30
    4078:	01b40000 			; <UNDEFINED> instruction: 0x01b40000
    407c:	10000000 	andne	r0, r0, r0
    4080:	00000d99 	muleq	r0, r9, sp
    4084:	2505b601 	strcs	fp, [r5, #-1537]	; 0xfffff9ff
    4088:	34000000 	strcc	r0, [r0], #-0
    408c:	20000090 	mulcs	r0, r0, r0
    4090:	01000000 	mrseq	r0, (UNDEF: 0)
    4094:	0001eb9c 	muleq	r1, ip, fp
    4098:	903c0f00 	eorsls	r0, ip, r0, lsl #30
    409c:	05a00000 	streq	r0, [r0, #0]!
    40a0:	44110000 	ldrmi	r0, [r1], #-0
    40a4:	ac000090 	stcge	0, cr0, [r0], {144}	; 0x90
    40a8:	12000005 	andne	r0, r0, #5, 0
    40ac:	0c055001 	stceq	0, cr5, [r5], {1}
    40b0:	20215064 	eorcs	r5, r1, r4, rrx
    40b4:	2c100000 	ldccs	0, cr0, [r0], {-0}
    40b8:	0100000e 	tsteq	r0, lr
    40bc:	002505b3 	strhteq	r0, [r5], -r3
    40c0:	90240000 	eorls	r0, r4, r0
    40c4:	00100000 	andseq	r0, r0, r0
    40c8:	9c010000 	stcls	0, cr0, [r1], {-0}
    40cc:	00000218 	andeq	r0, r0, r8, lsl r2
    40d0:	00902c0f 	addseq	r2, r0, pc, lsl #24
    40d4:	0005a000 	andeq	sl, r5, r0
    40d8:	90300f00 	eorsls	r0, r0, r0, lsl #30
    40dc:	03090000 	movweq	r0, #36864	; 0x9000
    40e0:	0e000000 	cdpeq	0, 0, cr0, cr0, cr0, {0}
    40e4:	00000c38 	andeq	r0, r0, r8, lsr ip
    40e8:	f406ab01 			; <UNDEFINED> instruction: 0xf406ab01
    40ec:	3000008f 	andcc	r0, r0, pc, lsl #1
    40f0:	01000000 	mrseq	r0, (UNDEF: 0)
    40f4:	00027c9c 	muleq	r2, ip, ip
    40f8:	00631300 	rsbeq	r1, r3, r0, lsl #6
    40fc:	2c19ab01 			; <UNDEFINED> instruction: 0x2c19ab01
    4100:	ca000000 	bgt	4108 <__code_start__-0x3ef8>
    4104:	c600000e 	strgt	r0, [r0], -lr
    4108:	0f00000e 	svceq	0x0000000e
    410c:	00009000 	andeq	r9, r0, r0
    4110:	000005a0 	andeq	r0, r0, r0, lsr #11
    4114:	0090040f 	addseq	r0, r0, pc, lsl #8
    4118:	0002db00 	andeq	sp, r2, r0, lsl #22
    411c:	90181400 	andsls	r1, r8, r0, lsl #8
    4120:	05b80000 	ldreq	r0, [r8, #0]!
    4124:	02720000 	rsbseq	r0, r2, #0, 0
    4128:	01120000 	tsteq	r2, r0
    412c:	400c0550 	andmi	r0, ip, r0, asr r5
    4130:	12202150 	eorne	r2, r0, #20
    4134:	74055101 	strvc	r5, [r5], #-257	; 0xfffffeff
    4138:	1aff0800 	bne	fffc6140 <__bss_end__+0xfffbc940>
    413c:	901c0f00 	andsls	r0, ip, r0, lsl #30
    4140:	05a00000 	streq	r0, [r0, #0]!
    4144:	10000000 	andne	r0, r0, r0
    4148:	00000dd6 	ldrdeq	r0, [r0], -r6
    414c:	2505a301 	strcs	sl, [r5, #-769]	; 0xfffffcff
    4150:	c4000000 	strgt	r0, [r0], #-0
    4154:	3000008f 	andcc	r0, r0, pc, lsl #1
    4158:	01000000 	mrseq	r0, (UNDEF: 0)
    415c:	0002db9c 	muleq	r2, ip, fp
    4160:	00631500 	rsbeq	r1, r3, r0, lsl #10
    4164:	2509a701 	strcs	sl, [r9, #-1793]	; 0xfffff8ff
    4168:	ea000000 	b	4170 <__code_start__-0x3e90>
    416c:	e800000e 	stmda	r0, {r1, r2, r3}
    4170:	0f00000e 	svceq	0x0000000e
    4174:	00008fcc 	andeq	r8, r0, ip, asr #31
    4178:	000005a0 	andeq	r0, r0, r0, lsr #11
    417c:	008fd00f 	addeq	sp, pc, pc
    4180:	00030900 	andeq	r0, r3, r0, lsl #18
    4184:	8fe01400 	svchi	0x00e01400
    4188:	05ac0000 	streq	r0, [ip, #0]!
    418c:	02d10000 	sbcseq	r0, r1, #0, 0
    4190:	01120000 	tsteq	r2, r0
    4194:	400c0550 	andmi	r0, ip, r0, asr r5
    4198:	00202150 	eoreq	r2, r0, r0, asr r1
    419c:	008fe80f 	addeq	lr, pc, pc, lsl #16
    41a0:	0005a000 	andeq	sl, r5, r0
    41a4:	ee100000 	cdp	0, 1, cr0, cr0, cr0, {0}
    41a8:	0100000d 	tsteq	r0, sp
    41ac:	00250594 	mlaeq	r5, r4, r5, r0
    41b0:	8fa40000 	svchi	0x00a40000
    41b4:	00200000 	eoreq	r0, r0, r0
    41b8:	9c010000 	stcls	0, cr0, [r1], {-0}
    41bc:	00000309 	andeq	r0, r0, r9, lsl #6
    41c0:	008fb011 	addeq	fp, pc, r1, lsl r0	; <UNPREDICTABLE>
    41c4:	0005ac00 	andeq	sl, r5, r0, lsl #24
    41c8:	50011200 	andpl	r1, r1, r0, lsl #4
    41cc:	50640c05 	rsbpl	r0, r4, r5, lsl #24
    41d0:	00002021 	andeq	r2, r0, r1, lsr #32
    41d4:	000d6710 	andeq	r6, sp, r0, lsl r7
    41d8:	058b0100 	streq	r0, [fp, #256]	; 0x100
    41dc:	00000025 	andeq	r0, r0, r5, lsr #32
    41e0:	00008f8c 	andeq	r8, r0, ip, lsl #31
    41e4:	00000018 	andeq	r0, r0, r8, lsl r0
    41e8:	03379c01 	teqeq	r7, #256	; 0x100
    41ec:	98110000 	ldmdals	r1, {}	; <UNPREDICTABLE>
    41f0:	ac00008f 	stcge	0, cr0, [r0], {143}	; 0x8f
    41f4:	12000005 	andne	r0, r0, #5, 0
    41f8:	0c055001 	stceq	0, cr5, [r5], {1}
    41fc:	20215064 	eorcs	r5, r1, r4, rrx
    4200:	940e0000 	strls	r0, [lr], #-0
    4204:	0100000c 	tsteq	r0, ip
    4208:	8edc0645 	cdphi	6, 13, cr0, cr12, cr5, {2}
    420c:	00b00000 	adcseq	r0, r0, r0
    4210:	9c010000 	stcls	0, cr0, [r1], {-0}
    4214:	00000484 	andeq	r0, r0, r4, lsl #9
    4218:	000d5916 	andeq	r5, sp, r6, lsl r9
    421c:	0e7e0100 	rpweqe	f0, f6, f0
    4220:	00000062 	andeq	r0, r0, r2, rrx
    4224:	ec14010e 	ldfs	f0, [r4], {14}
    4228:	c400008e 	strgt	r0, [r0], #-142	; 0xffffff72
    422c:	73000005 	movwvc	r0, #5
    4230:	12000003 	andne	r0, r0, #3, 0
    4234:	3e015001 	cdpcc	0, 0, cr5, cr1, cr1, {0}
    4238:	01510112 	cmpeq	r1, r2, lsl r1
    423c:	f8140032 			; <UNDEFINED> instruction: 0xf8140032
    4240:	c400008e 	strgt	r0, [r0], #-142	; 0xffffff72
    4244:	8b000005 	blhi	4260 <__code_start__-0x3da0>
    4248:	12000003 	andne	r0, r0, #3, 0
    424c:	3f015001 	svccc	0x00015001
    4250:	01510112 	cmpeq	r1, r2, lsl r1
    4254:	fc0f0032 	stc2	0, cr0, [pc], {50}	; 0x32
    4258:	a000008e 	andge	r0, r0, lr, lsl #1
    425c:	14000005 	strne	r0, [r0], #-5
    4260:	00008f08 	andeq	r8, r0, r8, lsl #30
    4264:	0000053d 	andeq	r0, r0, sp, lsr r5
    4268:	000003b0 			; <UNDEFINED> instruction: 0x000003b0
    426c:	05500112 	ldrbeq	r0, [r0, #-274]	; 0xfffffeee
    4270:	2150040c 	cmpcs	r0, ip, lsl #8
    4274:	51011220 	tstpl	r1, r0, lsr #4
    4278:	0f003101 	svceq	0x00003101
    427c:	00008f0c 	andeq	r8, r0, ip, lsl #30
    4280:	000005a0 	andeq	r0, r0, r0, lsr #11
    4284:	008f1c14 	addeq	r1, pc, r4, lsl ip	; <UNPREDICTABLE>
    4288:	0005b800 	andeq	fp, r5, r0, lsl #16
    428c:	0003d200 	andeq	sp, r3, r0, lsl #4
    4290:	50011200 	andpl	r1, r1, r0, lsl #4
    4294:	12007402 	andne	r7, r0, #33554432	; 0x2000000
    4298:	30015101 	andcc	r5, r1, r1, lsl #2
    429c:	8f281400 	svchi	0x00281400
    42a0:	05b80000 	ldreq	r0, [r8, #0]!
    42a4:	03ee0000 	mvneq	r0, #0, 0
    42a8:	01120000 	tsteq	r2, r0
    42ac:	440c0550 	strmi	r0, [ip], #-1360	; 0xfffffab0
    42b0:	12202150 	eorne	r2, r0, #20
    42b4:	30015101 	andcc	r5, r1, r1, lsl #2
    42b8:	8f341400 	svchi	0x00341400
    42bc:	05b80000 	ldreq	r0, [r8, #0]!
    42c0:	040a0000 	streq	r0, [sl], #-0
    42c4:	01120000 	tsteq	r2, r0
    42c8:	4c0c0550 	cfstr32mi	mvfx0, [ip], {80}	; 0x50
    42cc:	12202150 	eorne	r2, r0, #20
    42d0:	33015101 	movwcc	r5, #4353	; 0x1101
    42d4:	8f401400 	svchi	0x00401400
    42d8:	05b80000 	ldreq	r0, [r8, #0]!
    42dc:	04260000 	strteq	r0, [r6], #-0
    42e0:	01120000 	tsteq	r2, r0
    42e4:	500c0550 	andpl	r0, ip, r0, asr r5
    42e8:	12202150 	eorne	r2, r0, #20
    42ec:	30015101 	andcc	r5, r1, r1, lsl #2
    42f0:	8f4c1400 	svchi	0x004c1400
    42f4:	05b80000 	ldreq	r0, [r8, #0]!
    42f8:	04430000 	strbeq	r0, [r3], #-0
    42fc:	01120000 	tsteq	r2, r0
    4300:	480c0550 	stmdami	ip, {r4, r6, r8, sl}
    4304:	12202150 	eorne	r2, r0, #20
    4308:	08025101 	stmdaeq	r2, {r0, r8, ip, lr}
    430c:	581400c7 	ldmdapl	r4, {r0, r1, r2, r6, r7}
    4310:	b800008f 	stmdalt	r0, {r0, r1, r2, r3, r7}
    4314:	61000005 	tstvs	r0, r5
    4318:	12000004 	andne	r0, r0, #4, 0
    431c:	0c055001 	stceq	0, cr5, [r5], {1}
    4320:	20215068 	eorcs	r5, r1, r8, rrx
    4324:	03510112 	cmpeq	r1, #-2147483644	; 0x80000004
    4328:	00010e0a 	andeq	r0, r1, sl, lsl #28
    432c:	008f6414 	addeq	r6, pc, r4, lsl r4	; <UNPREDICTABLE>
    4330:	0005b800 	andeq	fp, r5, r0, lsl #16
    4334:	00047a00 	andeq	r7, r4, r0, lsl #20
    4338:	50011200 	andpl	r1, r1, r0, lsl #4
    433c:	12007402 	andne	r7, r0, #33554432	; 0x2000000
    4340:	33015101 	movwcc	r5, #4353	; 0x1101
    4344:	8f680f00 	svchi	0x00680f00
    4348:	05a00000 	streq	r0, [r0, #0]!
    434c:	0e000000 	cdpeq	0, 0, cr0, cr0, cr0, {0}
    4350:	00000dfc 	strdeq	r0, [r0], -ip
    4354:	68063501 	stmdavs	r6, {r0, r8, sl, ip, sp}
    4358:	24000090 	strcs	r0, [r0], #-144	; 0xffffff70
    435c:	01000000 	mrseq	r0, (UNDEF: 0)
    4360:	0004d39c 	muleq	r4, ip, r3
    4364:	90700f00 	rsbsls	r0, r0, r0, lsl #30
    4368:	01940000 	orrseq	r0, r4, r0
    436c:	740f0000 	strvc	r0, [pc], #-0	; 4374 <__code_start__-0x3c8c>
    4370:	a0000090 	mulge	r0, r0, r0
    4374:	14000005 	strne	r0, [r0], #-5
    4378:	00009080 	andeq	r9, r0, r0, lsl #1
    437c:	000004d3 	ldrdeq	r0, [r0], -r3
    4380:	000004c9 	andeq	r0, r0, r9, asr #9
    4384:	05500112 	ldrbeq	r0, [r0, #-274]	; 0xfffffeee
    4388:	2150040c 	cmpcs	r0, ip, lsl #8
    438c:	51011220 	tstpl	r1, r0, lsr #4
    4390:	00fe0902 	rscseq	r0, lr, r2, lsl #18
    4394:	0090840f 	addseq	r8, r0, pc, lsl #8
    4398:	0005a000 	andeq	sl, r5, r0
    439c:	e5170000 	ldr	r0, [r7, #-0]
    43a0:	0100000d 	tsteq	r0, sp
    43a4:	8e9c0d31 	mrchi	13, 4, r0, cr12, cr1, {1}
    43a8:	00200000 	eoreq	r0, r0, r0
    43ac:	9c010000 	stcls	0, cr0, [r1], {-0}
    43b0:	00000536 	andeq	r0, r0, r6, lsr r5
    43b4:	000a5e18 	andeq	r5, sl, r8, lsl lr
    43b8:	25310100 	ldrcs	r0, [r1, #-256]!	; 0xffffff00
    43bc:	00000536 	andeq	r0, r0, r6, lsr r5
    43c0:	00000f01 	andeq	r0, r0, r1, lsl #30
    43c4:	00000efd 	strdeq	r0, [r0], -sp
    43c8:	6c617613 	stclvs	6, cr7, [r1], #-76	; 0xffffffb4
    43cc:	34310100 	ldrtcc	r0, [r1], #-256	; 0xffffff00
    43d0:	0000002c 	andeq	r0, r0, ip, lsr #32
    43d4:	00000f23 	andeq	r0, r0, r3, lsr #30
    43d8:	00000f1f 	andeq	r0, r0, pc, lsl pc
    43dc:	008eac14 	addeq	sl, lr, r4, lsl ip
    43e0:	0005ac00 	andeq	sl, r5, r0, lsl #24
    43e4:	00052500 	andeq	r2, r5, r0, lsl #10
    43e8:	50011200 	andpl	r1, r1, r0, lsl #4
    43ec:	00007402 	andeq	r7, r0, r2, lsl #8
    43f0:	008eb811 	addeq	fp, lr, r1, lsl r8
    43f4:	0005b800 	andeq	fp, r5, r0, lsl #16
    43f8:	50011200 	andpl	r1, r1, r0, lsl #4
    43fc:	00007402 	andeq	r7, r0, r2, lsl #8
    4400:	3c040c00 	stccc	12, cr0, [r4], {-0}
    4404:	19000005 	stmdbne	r0, {r0, r2}
    4408:	000e6417 	andeq	r6, lr, r7, lsl r4
    440c:	0d2e0100 	stfeqs	f0, [lr, #-0]
    4410:	00008ebc 			; <UNDEFINED> instruction: 0x00008ebc
    4414:	00000020 	andeq	r0, r0, r0, lsr #32
    4418:	05a09c01 	streq	r9, [r0, #3073]!	; 0xc01
    441c:	5e180000 	cdppl	0, 1, cr0, cr8, cr0, {0}
    4420:	0100000a 	tsteq	r0, sl
    4424:	0536242e 	ldreq	r2, [r6, #-1070]!	; 0xfffffbd2
    4428:	0f450000 	svceq	0x00450000
    442c:	0f410000 	svceq	0x00410000
    4430:	76130000 	ldrvc	r0, [r3], -r0
    4434:	01006c61 	tsteq	r0, r1, ror #24
    4438:	002c332e 	eoreq	r3, ip, lr, lsr #6
    443c:	0f670000 	svceq	0x00670000
    4440:	0f630000 	svceq	0x00630000
    4444:	cc140000 	ldcgt	0, cr0, [r4], {-0}
    4448:	ac00008e 	stcge	0, cr0, [r0], {142}	; 0x8e
    444c:	8f000005 	svchi	0x00000005
    4450:	12000005 	andne	r0, r0, #5, 0
    4454:	74025001 	strvc	r5, [r2], #-1
    4458:	d8110000 	ldmdale	r1, {}	; <UNPREDICTABLE>
    445c:	b800008e 	stmdalt	r0, {r1, r2, r3, r7}
    4460:	12000005 	andne	r0, r0, #5, 0
    4464:	74025001 	strvc	r5, [r2], #-1
    4468:	1a000000 	bne	4470 <__code_start__-0x3b90>
    446c:	00000390 	muleq	r0, r0, r3
    4470:	00000390 	muleq	r0, r0, r3
    4474:	1a066e03 	bne	19fc88 <__bss_end__+0x196488>
    4478:	00000e93 	muleq	r0, r3, lr
    447c:	00000e93 	muleq	r0, r3, lr
    4480:	1a0a8603 	bne	2a5c94 <__bss_end__+0x29c494>
    4484:	00000dd0 	ldrdeq	r0, [r0], -r0	; <UNPREDICTABLE>
    4488:	00000dd0 	ldrdeq	r0, [r0], -r0	; <UNPREDICTABLE>
    448c:	1a068203 	bne	1a4ca0 <__bss_end__+0x19b4a0>
    4490:	00000e81 	andeq	r0, r0, r1, lsl #29
    4494:	00000e81 	andeq	r0, r0, r1, lsl #29
    4498:	00061904 	andeq	r1, r6, r4, lsl #18
    449c:	0000037b 	andeq	r0, r0, fp, ror r3
    44a0:	12400004 	subne	r0, r0, #4, 0
    44a4:	01040000 	mrseq	r0, (UNDEF: 4)
    44a8:	00000b27 	andeq	r0, r0, r7, lsr #22
    44ac:	000f280c 	andeq	r2, pc, ip, lsl #16
    44b0:	000aed00 	andeq	lr, sl, r0, lsl #26
    44b4:	00908c00 	addseq	r8, r0, r0, lsl #24
    44b8:	00012c00 	andeq	r2, r1, r0, lsl #24
    44bc:	00154100 	andseq	r4, r5, r0, lsl #2
    44c0:	05040200 	streq	r0, [r4, #-512]	; 0xfffffe00
    44c4:	00746e69 	rsbseq	r6, r4, r9, ror #28
    44c8:	23070403 	movwcs	r0, #29699	; 0x7403
    44cc:	03000001 	movweq	r0, #1
    44d0:	04e10601 	strbteq	r0, [r1], #1537	; 0x601
    44d4:	02030000 	andeq	r0, r3, #0, 0
    44d8:	0004fb05 	andeq	pc, r4, r5, lsl #22
    44dc:	05040300 	streq	r0, [r4, #-768]	; 0xfffffd00
    44e0:	00000183 	andeq	r0, r0, r3, lsl #3
    44e4:	7e050803 	cdpvc	8, 0, cr0, cr5, cr3, {0}
    44e8:	03000001 	movweq	r0, #1
    44ec:	04df0801 	ldrbeq	r0, [pc], #2049	; 44f4 <__code_start__-0x3b0c>
    44f0:	02030000 	andeq	r0, r3, #0, 0
    44f4:	00035b07 	andeq	r5, r3, r7, lsl #22
    44f8:	05ab0400 	streq	r0, [fp, #1024]!	; 0x400
    44fc:	34030000 	strcc	r0, [r3], #-0
    4500:	00006919 	andeq	r6, r0, r9, lsl r9
    4504:	07040300 	streq	r0, [r4, -r0, lsl #6]
    4508:	0000011e 	andeq	r0, r0, lr, lsl r1
    450c:	19070803 	stmdbne	r7, {r0, r1, fp}
    4510:	05000001 	streq	r0, [r0, #-1]
    4514:	004f0107 	subeq	r0, pc, r7, lsl #2
    4518:	0c040000 	stceq	0, cr0, [r4], {-0}
    451c:	0000b60e 	andeq	fp, r0, lr, lsl #12
    4520:	0e710600 	cdpeq	6, 7, cr0, cr1, cr0, {0}
    4524:	06000000 	streq	r0, [r0], -r0
    4528:	00000d75 	andeq	r0, r0, r5, ror sp
    452c:	0e0e0601 	cfmadd32eq	mvax0, mvfx0, mvfx14, mvfx1
    4530:	06040000 	streq	r0, [r4], -r0
    4534:	00000e1d 	andeq	r0, r0, sp, lsl lr
    4538:	0e3a0605 	cfmsuba32eq	mvax0, mvax0, mvfx10, mvfx5
    453c:	06060000 	streq	r0, [r6], -r0
    4540:	00000db2 			; <UNDEFINED> instruction: 0x00000db2
    4544:	0e490607 	cdpeq	6, 4, cr0, cr9, cr7, {0}
    4548:	06030000 	streq	r0, [r3], -r0
    454c:	00000dc1 	andeq	r0, r0, r1, asr #27
    4550:	03040002 	movweq	r0, #16386	; 0x4002
    4554:	0400000f 	streq	r0, [r0], #-15
    4558:	00770315 	rsbseq	r0, r7, r5, lsl r3
    455c:	07050000 	streq	r0, [r5, -r0]
    4560:	00002c04 	andeq	r2, r0, r4, lsl #24
    4564:	060d0100 	streq	r0, [sp], -r0, lsl #2
    4568:	000000fe 	strdeq	r0, [r0], -lr
    456c:	000f1e07 	andeq	r1, pc, r7, lsl #28
    4570:	20000000 	andcs	r0, r0, r0
    4574:	0eb80720 	cdpeq	7, 11, cr0, cr8, cr0, {1}
    4578:	00000000 	andeq	r0, r0, r0
    457c:	a3072020 	movwge	r2, #28704	; 0x7020
    4580:	1c00000e 	stcne	0, cr0, [r0], {14}
    4584:	07202000 	streq	r2, [r0, -r0]!
    4588:	00000e99 	muleq	r0, r9, lr
    458c:	20200028 	eorcs	r0, r0, r8, lsr #32
    4590:	000f0f07 	andeq	r0, pc, r7, lsl #30
    4594:	20003400 	andcs	r3, r0, r0, lsl #8
    4598:	81080020 	tsthi	r8, r0, lsr #32
    459c:	0100000e 	tsteq	r0, lr
    45a0:	9130064d 	teqls	r0, sp, asr #12
    45a4:	00680000 	rsbeq	r0, r8, r0
    45a8:	9c010000 	stcls	0, cr0, [r1], {-0}
    45ac:	0000019d 	muleq	r0, sp, r1
    45b0:	6e697009 	cdpvs	0, 6, cr7, cr9, cr9, {0}
    45b4:	214d0100 	mrscs	r0, (UNDEF: 93)
    45b8:	0000002c 	andeq	r0, r0, ip, lsr #32
    45bc:	00000f89 	andeq	r0, r0, r9, lsl #31
    45c0:	00000f85 	andeq	r0, r0, r5, lsl #31
    45c4:	000e8a0a 	andeq	r8, lr, sl, lsl #20
    45c8:	324d0100 	subcc	r0, sp, #0
    45cc:	000000b6 	strheq	r0, [r0], -r6
    45d0:	00000fae 	andeq	r0, r0, lr, lsr #31
    45d4:	00000faa 	andeq	r0, r0, sl, lsr #31
    45d8:	000a5e0b 	andeq	r5, sl, fp, lsl #28
    45dc:	0e500100 	rdfeqs	f0, f0, f0
    45e0:	0000002c 	andeq	r0, r0, ip, lsr #32
    45e4:	00000fd1 	ldrdeq	r0, [r0], -r1
    45e8:	00000fcf 	andeq	r0, r0, pc, asr #31
    45ec:	00089b0b 	andeq	r9, r8, fp, lsl #22
    45f0:	0e510100 	rdfeqs	f0, f1, f0
    45f4:	0000002c 	andeq	r0, r0, ip, lsr #32
    45f8:	00000fe6 	andeq	r0, r0, r6, ror #31
    45fc:	00000fe4 	andeq	r0, r0, r4, ror #31
    4600:	000f190b 	andeq	r1, pc, fp, lsl #18
    4604:	0e520100 	rdfeqs	f0, f2, f0
    4608:	0000002c 	andeq	r0, r0, ip, lsr #32
    460c:	00000ffb 	strdeq	r0, [r0], -fp
    4610:	00000ff9 	strdeq	r0, [r0], -r9
    4614:	0091800c 	addseq	r8, r1, ip
    4618:	00036600 	andeq	r6, r3, r0, lsl #12
    461c:	00018c00 	andeq	r8, r1, r0, lsl #24
    4620:	50010d00 	andpl	r0, r1, r0, lsl #26
    4624:	00007602 	andeq	r7, r0, r2, lsl #12
    4628:	0091900e 	addseq	r9, r1, lr
    462c:	00037200 	andeq	r7, r3, r0, lsl #4
    4630:	50010d00 	andpl	r0, r1, r0, lsl #26
    4634:	00007602 	andeq	r7, r0, r2, lsl #12
    4638:	0ecd0f00 	cdpeq	15, 12, cr0, cr13, cr0, {0}
    463c:	44010000 	strmi	r0, [r1], #-0
    4640:	00002505 	andeq	r2, r0, r5, lsl #10
    4644:	0090f800 	addseq	pc, r0, r0, lsl #16
    4648:	00003800 	andeq	r3, r0, r0, lsl #16
    464c:	df9c0100 	svcle	0x009c0100
    4650:	09000001 	stmdbeq	r0, {r0}
    4654:	006e6970 	rsbeq	r6, lr, r0, ror r9
    4658:	2c184401 	cfldrscs	mvf4, [r8], {1}
    465c:	16000000 	strne	r0, [r0], -r0
    4660:	0e000010 	mcreq	0, 0, r0, cr0, cr0, {0}
    4664:	0e000010 	mcreq	0, 0, r0, cr0, cr0, {0}
    4668:	00009114 	andeq	r9, r0, r4, lsl r1
    466c:	00000366 	andeq	r0, r0, r6, ror #6
    4670:	0550010d 	ldrbeq	r0, [r0, #-269]	; 0xfffffef3
    4674:	2000340c 	andcs	r3, r0, ip, lsl #8
    4678:	08000020 	stmdaeq	r0, {r5}
    467c:	00000ed7 	ldrdeq	r0, [r0], -r7
    4680:	a8063e01 	stmdage	r6, {r0, r9, sl, fp, ip, sp}
    4684:	10000091 	mulne	r0, r1, r0
    4688:	01000000 	mrseq	r0, (UNDEF: 0)
    468c:	0002209c 	muleq	r2, ip, r0
    4690:	69700900 	ldmdbvs	r0!, {r8, fp}^
    4694:	3e01006e 	cdpcc	0, 0, cr0, cr1, cr14, {3}
    4698:	00002c1e 	andeq	r2, r0, lr, lsl ip
    469c:	00105100 	andseq	r5, r0, r0, lsl #2
    46a0:	00104d00 	andseq	r4, r0, r0, lsl #26
    46a4:	91b40e00 			; <UNDEFINED> instruction: 0x91b40e00
    46a8:	00fe0000 	rscseq	r0, lr, r0
    46ac:	010d0000 	mrseq	r0, (UNDEF: 13)
    46b0:	01f30350 	mvnseq	r0, r0, asr r3
    46b4:	51010d50 	tstpl	r1, r0, asr sp
    46b8:	00003001 	andeq	r3, r0, r1
    46bc:	000ead08 	andeq	sl, lr, r8, lsl #26
    46c0:	06320100 	ldrteq	r0, [r2], -r0, lsl #2
    46c4:	000090dc 	ldrdeq	r9, [r0], -ip
    46c8:	0000001c 	andeq	r0, r0, ip, lsl r0
    46cc:	027b9c01 	rsbseq	r9, fp, #256	; 0x100
    46d0:	70090000 	andvc	r0, r9, r0
    46d4:	01006e69 	tsteq	r0, r9, ror #28
    46d8:	002c1a32 	eoreq	r1, ip, r2, lsr sl
    46dc:	107a0000 	rsbsne	r0, sl, r0
    46e0:	10720000 	rsbsne	r0, r2, r0
    46e4:	76090000 	strvc	r0, [r9], -r0
    46e8:	28320100 	ldmdacs	r2!, {r8}
    46ec:	0000002c 	andeq	r0, r0, ip, lsr #32
    46f0:	000010bc 	strheq	r1, [r0], -ip
    46f4:	000010b4 	strheq	r1, [r0], -r4
    46f8:	0090ec0c 	addseq	lr, r0, ip, lsl #24
    46fc:	0002c200 	andeq	ip, r2, r0, lsl #4
    4700:	00027100 	andeq	r7, r2, r0, lsl #2
    4704:	50010d00 	andpl	r0, r1, r0, lsl #26
    4708:	5001f303 	andpl	pc, r1, r3, lsl #6
    470c:	90f41000 	rscsls	r1, r4, r0
    4710:	027b0000 	rsbseq	r0, fp, #0, 0
    4714:	08000000 	stmdaeq	r0, {}	; <UNPREDICTABLE>
    4718:	00000ee6 	andeq	r0, r0, r6, ror #29
    471c:	b4062901 	strlt	r2, [r6], #-2305	; 0xfffff6ff
    4720:	28000090 	stmdacs	r0, {r4, r7}
    4724:	01000000 	mrseq	r0, (UNDEF: 0)
    4728:	0002c29c 	muleq	r2, ip, r2
    472c:	69700900 	ldmdbvs	r0!, {r8, fp}^
    4730:	2901006e 	stmdbcs	r1, {r1, r2, r3, r5, r6}
    4734:	00002c1c 	andeq	r2, r0, ip, lsl ip
    4738:	0010fa00 	andseq	pc, r0, r0, lsl #20
    473c:	0010f600 	andseq	pc, r0, r0, lsl #12
    4740:	90d40e00 	sbcsls	r0, r4, r0, lsl #28
    4744:	03720000 	cmneq	r2, #0, 0
    4748:	010d0000 	mrseq	r0, (UNDEF: 13)
    474c:	280c0550 	stmdacs	ip, {r4, r6, r8, sl}
    4750:	0d202000 	stceq	0, cr2, [r0, #-0]
    4754:	31055101 	tstcc	r5, r1, lsl #2
    4758:	245001f3 	ldrbcs	r0, [r0], #-499	; 0xfffffe0d
    475c:	2f080000 	svccs	0x00080000
    4760:	0100000f 	tsteq	r0, pc
    4764:	908c0622 	addls	r0, ip, r2, lsr #12
    4768:	00280000 	eoreq	r0, r8, r0
    476c:	9c010000 	stcls	0, cr0, [r1], {-0}
    4770:	00000309 	andeq	r0, r0, r9, lsl #6
    4774:	6e697009 	cdpvs	0, 6, cr7, cr9, cr9, {0}
    4778:	1b220100 	blne	884b80 <__bss_end__+0x87b380>
    477c:	0000002c 	andeq	r0, r0, ip, lsr #32
    4780:	0000111f 	andeq	r1, r0, pc, lsl r1
    4784:	0000111b 	andeq	r1, r0, fp, lsl r1
    4788:	0090ac0e 	addseq	sl, r0, lr, lsl #24
    478c:	00037200 	andeq	r7, r3, r0, lsl #4
    4790:	50010d00 	andpl	r0, r1, r0, lsl #26
    4794:	001c0c05 	andseq	r0, ip, r5, lsl #24
    4798:	010d2020 	tsteq	sp, r0, lsr #32
    479c:	f3310551 	vqrshl.u64	q0, <illegal reg q0.5>, <illegal reg q0.5>
    47a0:	00245001 	eoreq	r5, r4, r1
    47a4:	0ef30800 	cdpeq	8, 15, cr0, cr3, cr0, {0}
    47a8:	1d010000 	stcne	0, cr0, [r1, #-0]
    47ac:	00919806 	addseq	r9, r1, r6, lsl #16
    47b0:	00001000 	andeq	r1, r0, r0
    47b4:	4a9c0100 	bmi	fe704bbc <__bss_end__+0xfe6fb3bc>
    47b8:	09000003 	stmdbeq	r0, {r0, r1}
    47bc:	006e6970 	rsbeq	r6, lr, r0, ror r9
    47c0:	2c1f1d01 	ldccs	13, cr1, [pc], {1}
    47c4:	44000000 	strmi	r0, [r0], #-0
    47c8:	40000011 	andmi	r0, r0, r1, lsl r0
    47cc:	0e000011 	mcreq	0, 0, r0, cr0, cr1, {0}
    47d0:	000091a4 	andeq	r9, r0, r4, lsr #3
    47d4:	000000fe 	strdeq	r0, [r0], -lr
    47d8:	0350010d 	cmpeq	r0, #1073741827	; 0x40000003
    47dc:	0d5001f3 	ldfeqe	f0, [r0, #-972]	; 0xfffffc34
    47e0:	31015101 	tstcc	r1, r1, lsl #2
    47e4:	c3110000 	tstgt	r1, #0, 0
    47e8:	0200000e 	andeq	r0, r0, #14, 0
    47ec:	005d1c88 	subseq	r1, sp, r8, lsl #25
    47f0:	66030000 	strvs	r0, [r3], -r0
    47f4:	12000003 	andne	r0, r0, #3, 0
    47f8:	88020078 	stmdahi	r2, {r3, r4, r5, r6}
    47fc:	00005d2f 	andeq	r5, r0, pc, lsr #26
    4800:	47130000 	ldrmi	r0, [r3, -r0]
    4804:	47000004 	strmi	r0, [r0, -r4]
    4808:	02000004 	andeq	r0, r0, #4, 0
    480c:	e3130a78 	tst	r3, #120, 20	; 0x78000
    4810:	e3000001 	movw	r0, #1
    4814:	02000001 	andeq	r0, r0, #1, 0
    4818:	bc000674 	stclt	6, cr0, [r0], {116}	; 0x74
    481c:	04000000 	streq	r0, [r0], #-0
    4820:	00137a00 	andseq	r7, r3, r0, lsl #20
    4824:	27010400 	strcs	r0, [r1, -r0, lsl #8]
    4828:	0c00000b 	stceq	0, cr0, [r0], {11}
    482c:	00000f3b 	andeq	r0, r0, fp, lsr pc
    4830:	00000aed 	andeq	r0, r0, sp, ror #21
    4834:	000091b8 			; <UNDEFINED> instruction: 0x000091b8
    4838:	00000028 	andeq	r0, r0, r8, lsr #32
    483c:	0000170a 	andeq	r1, r0, sl, lsl #14
    4840:	69050402 	stmdbvs	r5, {r1, sl}
    4844:	0300746e 	movweq	r7, #1134	; 0x46e
    4848:	01230704 			; <UNDEFINED> instruction: 0x01230704
    484c:	01030000 	mrseq	r0, (UNDEF: 3)
    4850:	0004e106 	andeq	lr, r4, r6, lsl #2
    4854:	05020300 	streq	r0, [r2, #-768]	; 0xfffffd00
    4858:	000004fb 	strdeq	r0, [r0], -fp
    485c:	83050403 	movwhi	r0, #21507	; 0x5403
    4860:	03000001 	movweq	r0, #1
    4864:	017e0508 	cmneq	lr, r8, lsl #10
    4868:	01030000 	mrseq	r0, (UNDEF: 3)
    486c:	0004df08 	andeq	sp, r4, r8, lsl #30
    4870:	07020300 	streq	r0, [r2, -r0, lsl #6]
    4874:	0000035b 	andeq	r0, r0, fp, asr r3
    4878:	1e070403 	cdpne	4, 0, cr0, cr7, cr3, {0}
    487c:	03000001 	movweq	r0, #1
    4880:	01190708 	tsteq	r9, r8, lsl #14
    4884:	71040000 	mrsvc	r0, (UNDEF: 4)
    4888:	0100000c 	tsteq	r0, ip
    488c:	00250503 	eoreq	r0, r5, r3, lsl #10
    4890:	91b80000 			; <UNDEFINED> instruction: 0x91b80000
    4894:	00280000 	eoreq	r0, r8, r0
    4898:	9c010000 	stcls	0, cr0, [r1], {-0}
    489c:	000000a1 	andeq	r0, r0, r1, lsr #1
    48a0:	01007005 	tsteq	r0, r5
    48a4:	00a11603 	adceq	r1, r1, r3, lsl #12
    48a8:	11690000 	cmnne	r9, r0
    48ac:	11650000 	cmnne	r5, r0
    48b0:	d0060000 	andle	r0, r6, r0
    48b4:	b3000091 	movwlt	r0, #145	; 0x91
    48b8:	00000000 	andeq	r0, r0, r0
    48bc:	00ae0407 	adceq	r0, lr, r7, lsl #8
    48c0:	01030000 	mrseq	r0, (UNDEF: 3)
    48c4:	0004e808 	andeq	lr, r4, r8, lsl #16
    48c8:	00a70800 	adceq	r0, r7, r0, lsl #16
    48cc:	1b090000 	blne	2448d4 <__bss_end__+0x23b0d4>
    48d0:	1b00000c 	blne	4908 <__code_start__-0x36f8>
    48d4:	0200000c 	andeq	r0, r0, #12, 0
    48d8:	Address 0x00000000000048d8 is out of bounds.


Disassembly of section .debug_abbrev:

00000000 <.debug_abbrev>:
       0:	25011101 	strcs	r1, [r1, #-257]	; 0xfffffeff
       4:	030b130e 	movweq	r1, #45838	; 0xb30e
       8:	110e1b0e 	tstne	lr, lr, lsl #22
       c:	10061201 	andne	r1, r6, r1, lsl #4
      10:	02000017 	andeq	r0, r0, #23, 0
      14:	0b0b0024 	bleq	2c00ac <__bss_end__+0x2b68ac>
      18:	08030b3e 	stmdaeq	r3, {r1, r2, r3, r4, r5, r8, r9, fp}
      1c:	16030000 	strne	r0, [r3], -r0
      20:	3a0e0300 	bcc	380c28 <__bss_end__+0x377428>
      24:	390b3b0b 	stmdbcc	fp, {r0, r1, r3, r8, r9, fp, ip, sp}
      28:	0013490b 	andseq	r4, r3, fp, lsl #18
      2c:	00240400 	eoreq	r0, r4, r0, lsl #8
      30:	0b3e0b0b 	bleq	f82c64 <__bss_end__+0xf79464>
      34:	00000e03 	andeq	r0, r0, r3, lsl #28
      38:	49003505 	stmdbmi	r0, {r0, r2, r8, sl, ip, sp}
      3c:	06000013 			; <UNDEFINED> instruction: 0x06000013
      40:	0b0b000f 	bleq	2c0084 <__bss_end__+0x2b6884>
      44:	0f070000 	svceq	0x00070000
      48:	490b0b00 	stmdbmi	fp, {r8, r9, fp}
      4c:	08000013 	stmdaeq	r0, {r0, r1, r4}
      50:	0e030013 	mcreq	0, 0, r0, cr3, cr3, {0}
      54:	0000193c 	andeq	r1, r0, ip, lsr r9
      58:	03001609 	movweq	r1, #1545	; 0x609
      5c:	3b0b3a0e 	blcc	2ce89c <__bss_end__+0x2c509c>
      60:	490b3905 	stmdbmi	fp, {r0, r2, r8, fp, ip, sp}
      64:	0a000013 	beq	b8 <__code_start__-0x7f48>
      68:	0b0b0117 	bleq	2c04cc <__bss_end__+0x2b6ccc>
      6c:	0b3b0b3a 	bleq	ec2d5c <__bss_end__+0xeb955c>
      70:	13010b39 	movwne	r0, #6969	; 0x1b39
      74:	0d0b0000 	stceq	0, cr0, [fp, #-0]
      78:	3a0e0300 	bcc	380c80 <__bss_end__+0x377480>
      7c:	390b3b0b 	stmdbcc	fp, {r0, r1, r3, r8, r9, fp, ip, sp}
      80:	0013490b 	andseq	r4, r3, fp, lsl #18
      84:	01010c00 	tsteq	r1, r0, lsl #24
      88:	13011349 	movwne	r1, #4937	; 0x1349
      8c:	210d0000 	mrscs	r0, (UNDEF: 13)
      90:	2f134900 	svccs	0x00134900
      94:	0e00000b 	cdpeq	0, 0, cr0, cr0, cr11, {0}
      98:	0b0b0113 	bleq	2c04ec <__bss_end__+0x2b6cec>
      9c:	0b3b0b3a 	bleq	ec2d8c <__bss_end__+0xeb958c>
      a0:	13010b39 	movwne	r0, #6969	; 0x1b39
      a4:	0d0f0000 	stceq	0, cr0, [pc, #-0]	; ac <__code_start__-0x7f54>
      a8:	3a0e0300 	bcc	380cb0 <__bss_end__+0x3774b0>
      ac:	390b3b0b 	stmdbcc	fp, {r0, r1, r3, r8, r9, fp, ip, sp}
      b0:	3813490b 	ldmdacc	r3, {r0, r1, r3, r8, fp, lr}
      b4:	1000000b 	andne	r0, r0, fp
      b8:	13490026 	movtne	r0, #36902	; 0x9026
      bc:	13110000 	tstne	r1, #0, 0
      c0:	0b0e0301 	bleq	380ccc <__bss_end__+0x3774cc>
      c4:	3b0b3a0b 	blcc	2ce8f8 <__bss_end__+0x2c50f8>
      c8:	010b390b 	tsteq	fp, fp, lsl #18
      cc:	12000013 	andne	r0, r0, #19, 0
      d0:	0803000d 	stmdaeq	r3, {r0, r2, r3}
      d4:	0b3b0b3a 	bleq	ec2dc4 <__bss_end__+0xeb95c4>
      d8:	13490b39 	movtne	r0, #39737	; 0x9b39
      dc:	00000b38 	andeq	r0, r0, r8, lsr fp
      e0:	03011313 	movweq	r1, #4883	; 0x1313
      e4:	3a050b0e 	bcc	142d24 <__bss_end__+0x139524>
      e8:	390b3b0b 	stmdbcc	fp, {r0, r1, r3, r8, r9, fp, ip, sp}
      ec:	0013010b 	andseq	r0, r3, fp, lsl #2
      f0:	000d1400 	andeq	r1, sp, r0, lsl #8
      f4:	0b3a0e03 	bleq	e83908 <__bss_end__+0xe7a108>
      f8:	0b390b3b 	bleq	e42dec <__bss_end__+0xe395ec>
      fc:	05381349 	ldreq	r1, [r8, #-841]!	; 0xfffffcb7
     100:	15150000 	ldrne	r0, [r5, #-0]
     104:	00192700 	andseq	r2, r9, r0, lsl #14
     108:	01151600 	tsteq	r5, r0, lsl #12
     10c:	13491927 	movtne	r1, #39207	; 0x9927
     110:	00001301 	andeq	r1, r0, r1, lsl #6
     114:	49000517 	stmdbmi	r0, {r0, r1, r2, r4, r8, sl}
     118:	18000013 	stmdane	r0, {r0, r1, r4}
     11c:	0e030113 	mcreq	1, 0, r0, cr3, cr3, {0}
     120:	0b3a050b 	bleq	e81554 <__bss_end__+0xe77d54>
     124:	0b39053b 	bleq	e41618 <__bss_end__+0xe37e18>
     128:	00001301 	andeq	r1, r0, r1, lsl #6
     12c:	03000d19 	movweq	r0, #3353	; 0xd19
     130:	3b0b3a0e 	blcc	2ce970 <__bss_end__+0x2c5170>
     134:	490b3905 	stmdbmi	fp, {r0, r2, r8, fp, ip, sp}
     138:	000b3813 	andeq	r3, fp, r3, lsl r8
     13c:	000d1a00 	andeq	r1, sp, r0, lsl #20
     140:	0b3a0e03 	bleq	e83954 <__bss_end__+0xe7a154>
     144:	0b39053b 	bleq	e41638 <__bss_end__+0xe37e38>
     148:	05381349 	ldreq	r1, [r8, #-841]!	; 0xfffffcb7
     14c:	131b0000 	tstne	fp, #0, 0
     150:	0b0e0301 	bleq	380d5c <__bss_end__+0x37755c>
     154:	3b0b3a0b 	blcc	2ce988 <__bss_end__+0x2c5188>
     158:	010b3905 	tsteq	fp, r5, lsl #18
     15c:	1c000013 	stcne	0, cr0, [r0], {19}
     160:	0b0b0113 	bleq	2c05b4 <__bss_end__+0x2b6db4>
     164:	053b0b3a 	ldreq	r0, [fp, #-2874]!	; 0xfffff4c6
     168:	13010b39 	movwne	r0, #6969	; 0x1b39
     16c:	171d0000 	ldrne	r0, [sp, -r0]
     170:	3a0b0b01 	bcc	2c2d7c <__bss_end__+0x2b957c>
     174:	39053b0b 	stmdbcc	r5, {r0, r1, r3, r8, r9, fp, ip, sp}
     178:	0013010b 	andseq	r0, r3, fp, lsl #2
     17c:	000d1e00 	andeq	r1, sp, r0, lsl #28
     180:	0b3a0e03 	bleq	e83994 <__bss_end__+0xe7a194>
     184:	0b39053b 	bleq	e41678 <__bss_end__+0xe37e78>
     188:	00001349 	andeq	r1, r0, r9, asr #6
     18c:	2701151f 	smladcs	r1, pc, r5, r1	; <UNPREDICTABLE>
     190:	00130119 	andseq	r0, r3, r9, lsl r1
     194:	00342000 	eorseq	r2, r4, r0
     198:	0b3a0e03 	bleq	e839ac <__bss_end__+0xe7a1ac>
     19c:	0b39053b 	bleq	e41690 <__bss_end__+0xe37e90>
     1a0:	193f1349 	ldmdbne	pc!, {r0, r3, r6, r8, r9, ip}	; <UNPREDICTABLE>
     1a4:	0000193c 	andeq	r1, r0, ip, lsr r9
     1a8:	3e010421 	cdpcc	4, 0, cr0, cr1, cr1, {1}
     1ac:	490b0b0b 	stmdbmi	fp, {r0, r1, r3, r8, r9, fp}
     1b0:	3b0b3a13 	blcc	2cea04 <__bss_end__+0x2c5204>
     1b4:	010b390b 	tsteq	fp, fp, lsl #18
     1b8:	22000013 	andcs	r0, r0, #19, 0
     1bc:	0e030028 	cdpeq	0, 0, cr0, cr3, cr8, {1}
     1c0:	0000061c 	andeq	r0, r0, ip, lsl r6
     1c4:	00002123 	andeq	r2, r0, r3, lsr #2
     1c8:	00342400 	eorseq	r2, r4, r0, lsl #8
     1cc:	0b3a0e03 	bleq	e839e0 <__bss_end__+0xe7a1e0>
     1d0:	0b390b3b 	bleq	e42ec4 <__bss_end__+0xe396c4>
     1d4:	193f1349 	ldmdbne	pc!, {r0, r3, r6, r8, r9, ip}	; <UNPREDICTABLE>
     1d8:	0000193c 	andeq	r1, r0, ip, lsr r9
     1dc:	03003425 	movweq	r3, #1061	; 0x425
     1e0:	3b0b3a0e 	blcc	2cea20 <__bss_end__+0x2c5220>
     1e4:	490b390b 	stmdbmi	fp, {r0, r1, r3, r8, fp, ip, sp}
     1e8:	00180213 	andseq	r0, r8, r3, lsl r2
     1ec:	00342600 	eorseq	r2, r4, r0, lsl #12
     1f0:	0b3a0803 	bleq	e82204 <__bss_end__+0xe78a04>
     1f4:	0b390b3b 	bleq	e42ee8 <__bss_end__+0xe396e8>
     1f8:	18021349 	stmdane	r2, {r0, r3, r6, r8, r9, ip}
     1fc:	2e270000 	cdpcs	0, 2, cr0, cr7, cr0, {0}
     200:	03193f01 	tsteq	r9, #1, 30
     204:	3b0b3a0e 	blcc	2cea44 <__bss_end__+0x2c5244>
     208:	270b390b 	strcs	r3, [fp, -fp, lsl #18]
     20c:	12011119 	andne	r1, r1, #1073741830	; 0x40000006
     210:	97184006 	ldrls	r4, [r8, -r6]
     214:	13011942 	movwne	r1, #6466	; 0x1942
     218:	34280000 	strtcc	r0, [r8], #-0
     21c:	3a0e0300 	bcc	380e24 <__bss_end__+0x377624>
     220:	390b3b0b 	stmdbcc	fp, {r0, r1, r3, r8, r9, fp, ip, sp}
     224:	1c13490b 			; <UNDEFINED> instruction: 0x1c13490b
     228:	29000006 	stmdbcs	r0, {r1, r2}
     22c:	0e030034 	mcreq	0, 0, r0, cr3, cr4, {1}
     230:	0b3b0b3a 	bleq	ec2f20 <__bss_end__+0xeb9720>
     234:	13490b39 	movtne	r0, #39737	; 0x9b39
     238:	42b71702 	adcsmi	r1, r7, #524288	; 0x80000
     23c:	2a000017 	bcs	2a0 <__code_start__-0x7d60>
     240:	01018289 	smlabbeq	r1, r9, r2, r8
     244:	13310111 	teqne	r1, #1073741828	; 0x40000004
     248:	00001301 	andeq	r1, r0, r1, lsl #6
     24c:	01828a2b 	orreq	r8, r2, fp, lsr #20
     250:	91180200 	tstls	r8, r0, lsl #4
     254:	00001842 	andeq	r1, r0, r2, asr #16
     258:	0182892c 	orreq	r8, r2, ip, lsr #18
     25c:	31011100 	mrscc	r1, (UNDEF: 17)
     260:	2d000013 	stccs	0, cr0, [r0, #-76]	; 0xffffffb4
     264:	08030005 	stmdaeq	r3, {r0, r2}
     268:	0b3b0b3a 	bleq	ec2f58 <__bss_end__+0xeb9758>
     26c:	13490b39 	movtne	r0, #39737	; 0x9b39
     270:	42b71702 	adcsmi	r1, r7, #524288	; 0x80000
     274:	2e000017 	mcrcs	0, 0, r0, cr0, cr7, {0}
     278:	08030034 	stmdaeq	r3, {r2, r4, r5}
     27c:	0b3b0b3a 	bleq	ec2f6c <__bss_end__+0xeb976c>
     280:	13490b39 	movtne	r0, #39737	; 0x9b39
     284:	42b71702 	adcsmi	r1, r7, #524288	; 0x80000
     288:	2f000017 	svccs	0x00000017
     28c:	0e03012e 	adfeqsp	f0, f3, #0.5
     290:	0b3b0b3a 	bleq	ec2f80 <__bss_end__+0xeb9780>
     294:	19270b39 	stmdbne	r7!, {r0, r3, r4, r5, r8, r9, fp}
     298:	06120111 			; <UNDEFINED> instruction: 0x06120111
     29c:	42971840 	addsmi	r1, r7, #64, 16	; 0x400000
     2a0:	00130119 	andseq	r0, r3, r9, lsl r1
     2a4:	00053000 	andeq	r3, r5, r0
     2a8:	0b3a0e03 	bleq	e83abc <__bss_end__+0xe7a2bc>
     2ac:	0b390b3b 	bleq	e42fa0 <__bss_end__+0xe397a0>
     2b0:	17021349 	strne	r1, [r2, -r9, asr #6]
     2b4:	001742b7 			; <UNDEFINED> instruction: 0x001742b7
     2b8:	010b3100 	mrseq	r3, (UNDEF: 27)
     2bc:	06120111 			; <UNDEFINED> instruction: 0x06120111
     2c0:	00001301 	andeq	r1, r0, r1, lsl #6
     2c4:	01828932 	orreq	r8, r2, r2, lsr r9
     2c8:	31011101 	tstcc	r1, r1, lsl #2
     2cc:	33000013 	movwcc	r0, #19
     2d0:	0e03012e 	adfeqsp	f0, f3, #0.5
     2d4:	0b3b0b3a 	bleq	ec2fc4 <__bss_end__+0xeb97c4>
     2d8:	19270b39 	stmdbne	r7!, {r0, r3, r4, r5, r8, r9, fp}
     2dc:	01111349 	tsteq	r1, r9, asr #6
     2e0:	18400612 	stmdane	r0, {r1, r4, r9, sl}^
     2e4:	01194297 			; <UNDEFINED> instruction: 0x01194297
     2e8:	34000013 	strcc	r0, [r0], #-19	; 0xffffffed
     2ec:	193f002e 	ldmdbne	pc!, {r1, r2, r3, r5}	; <UNPREDICTABLE>
     2f0:	0e6e193c 			; <UNDEFINED> instruction: 0x0e6e193c
     2f4:	0b3a0e03 	bleq	e83b08 <__bss_end__+0xe7a308>
     2f8:	0b390b3b 	bleq	e42fec <__bss_end__+0xe397ec>
     2fc:	01000000 	mrseq	r0, (UNDEF: 0)
     300:	0e250111 	mcreq	1, 1, r0, cr5, cr1, {0}
     304:	0e030b13 	vmoveq.32	d3[0], r0
     308:	01110e1b 	tsteq	r1, fp, lsl lr
     30c:	17100612 			; <UNDEFINED> instruction: 0x17100612
     310:	24020000 	strcs	r0, [r2], #-0
     314:	3e0b0b00 	vmlacc.f64	d0, d11, d0
     318:	0008030b 	andeq	r0, r8, fp, lsl #6
     31c:	00240300 	eoreq	r0, r4, r0, lsl #6
     320:	0b3e0b0b 	bleq	f82f54 <__bss_end__+0xf79754>
     324:	00000e03 	andeq	r0, r0, r3, lsl #28
     328:	0b000f04 	bleq	3f40 <__code_start__-0x40c0>
     32c:	0500000b 	streq	r0, [r0, #-11]
     330:	0e030016 	mcreq	0, 0, r0, cr3, cr6, {0}
     334:	0b3b0b3a 	bleq	ec3024 <__bss_end__+0xeb9824>
     338:	13490b39 	movtne	r0, #39737	; 0x9b39
     33c:	0f060000 	svceq	0x00060000
     340:	490b0b00 	stmdbmi	fp, {r8, r9, fp}
     344:	07000013 	smladeq	r0, r3, r0, r0
     348:	0e030013 	mcreq	0, 0, r0, cr3, cr3, {0}
     34c:	0000193c 	andeq	r1, r0, ip, lsr r9
     350:	03001608 	movweq	r1, #1544	; 0x608
     354:	3b0b3a0e 	blcc	2ceb94 <__bss_end__+0x2c5394>
     358:	490b3905 	stmdbmi	fp, {r0, r2, r8, fp, ip, sp}
     35c:	09000013 	stmdbeq	r0, {r0, r1, r4}
     360:	0b0b0117 	bleq	2c07c4 <__bss_end__+0x2b6fc4>
     364:	0b3b0b3a 	bleq	ec3054 <__bss_end__+0xeb9854>
     368:	13010b39 	movwne	r0, #6969	; 0x1b39
     36c:	0d0a0000 	stceq	0, cr0, [sl, #-0]
     370:	3a0e0300 	bcc	380f78 <__bss_end__+0x377778>
     374:	390b3b0b 	stmdbcc	fp, {r0, r1, r3, r8, r9, fp, ip, sp}
     378:	0013490b 	andseq	r4, r3, fp, lsl #18
     37c:	01010b00 	tsteq	r1, r0, lsl #22
     380:	13011349 	movwne	r1, #4937	; 0x1349
     384:	210c0000 	mrscs	r0, (UNDEF: 12)
     388:	2f134900 	svccs	0x00134900
     38c:	0d00000b 	stceq	0, cr0, [r0, #-44]	; 0xffffffd4
     390:	0b0b0113 	bleq	2c07e4 <__bss_end__+0x2b6fe4>
     394:	0b3b0b3a 	bleq	ec3084 <__bss_end__+0xeb9884>
     398:	13010b39 	movwne	r0, #6969	; 0x1b39
     39c:	0d0e0000 	stceq	0, cr0, [lr, #-0]
     3a0:	3a0e0300 	bcc	380fa8 <__bss_end__+0x3777a8>
     3a4:	390b3b0b 	stmdbcc	fp, {r0, r1, r3, r8, r9, fp, ip, sp}
     3a8:	3813490b 	ldmdacc	r3, {r0, r1, r3, r8, fp, lr}
     3ac:	0f00000b 	svceq	0x0000000b
     3b0:	13490026 	movtne	r0, #36902	; 0x9026
     3b4:	13100000 	tstne	r0, #0, 0
     3b8:	0b0e0301 	bleq	380fc4 <__bss_end__+0x3777c4>
     3bc:	3b0b3a0b 	blcc	2cebf0 <__bss_end__+0x2c53f0>
     3c0:	010b390b 	tsteq	fp, fp, lsl #18
     3c4:	11000013 	tstne	r0, r3, lsl r0
     3c8:	0803000d 	stmdaeq	r3, {r0, r2, r3}
     3cc:	0b3b0b3a 	bleq	ec30bc <__bss_end__+0xeb98bc>
     3d0:	13490b39 	movtne	r0, #39737	; 0x9b39
     3d4:	00000b38 	andeq	r0, r0, r8, lsr fp
     3d8:	03011312 	movweq	r1, #4882	; 0x1312
     3dc:	3a050b0e 	bcc	14301c <__bss_end__+0x13981c>
     3e0:	390b3b0b 	stmdbcc	fp, {r0, r1, r3, r8, r9, fp, ip, sp}
     3e4:	0013010b 	andseq	r0, r3, fp, lsl #2
     3e8:	000d1300 	andeq	r1, sp, r0, lsl #6
     3ec:	0b3a0e03 	bleq	e83c00 <__bss_end__+0xe7a400>
     3f0:	0b390b3b 	bleq	e430e4 <__bss_end__+0xe398e4>
     3f4:	05381349 	ldreq	r1, [r8, #-841]!	; 0xfffffcb7
     3f8:	15140000 	ldrne	r0, [r4, #-0]
     3fc:	00192700 	andseq	r2, r9, r0, lsl #14
     400:	01151500 	tsteq	r5, r0, lsl #10
     404:	13491927 	movtne	r1, #39207	; 0x9927
     408:	00001301 	andeq	r1, r0, r1, lsl #6
     40c:	49000516 	stmdbmi	r0, {r1, r2, r4, r8, sl}
     410:	17000013 	smladne	r0, r3, r0, r0
     414:	0e030113 	mcreq	1, 0, r0, cr3, cr3, {0}
     418:	0b3a050b 	bleq	e8184c <__bss_end__+0xe7804c>
     41c:	0b39053b 	bleq	e41910 <__bss_end__+0xe38110>
     420:	00001301 	andeq	r1, r0, r1, lsl #6
     424:	03000d18 	movweq	r0, #3352	; 0xd18
     428:	3b0b3a0e 	blcc	2cec68 <__bss_end__+0x2c5468>
     42c:	490b3905 	stmdbmi	fp, {r0, r2, r8, fp, ip, sp}
     430:	000b3813 	andeq	r3, fp, r3, lsl r8
     434:	000d1900 	andeq	r1, sp, r0, lsl #18
     438:	0b3a0e03 	bleq	e83c4c <__bss_end__+0xe7a44c>
     43c:	0b39053b 	bleq	e41930 <__bss_end__+0xe38130>
     440:	05381349 	ldreq	r1, [r8, #-841]!	; 0xfffffcb7
     444:	131a0000 	tstne	sl, #0, 0
     448:	0b0e0301 	bleq	381054 <__bss_end__+0x377854>
     44c:	3b0b3a0b 	blcc	2cec80 <__bss_end__+0x2c5480>
     450:	010b3905 	tsteq	fp, r5, lsl #18
     454:	1b000013 	blne	4a8 <__code_start__-0x7b58>
     458:	0b0b0113 	bleq	2c08ac <__bss_end__+0x2b70ac>
     45c:	053b0b3a 	ldreq	r0, [fp, #-2874]!	; 0xfffff4c6
     460:	13010b39 	movwne	r0, #6969	; 0x1b39
     464:	171c0000 	ldrne	r0, [ip, -r0]
     468:	3a0b0b01 	bcc	2c3074 <__bss_end__+0x2b9874>
     46c:	39053b0b 	stmdbcc	r5, {r0, r1, r3, r8, r9, fp, ip, sp}
     470:	0013010b 	andseq	r0, r3, fp, lsl #2
     474:	000d1d00 	andeq	r1, sp, r0, lsl #26
     478:	0b3a0e03 	bleq	e83c8c <__bss_end__+0xe7a48c>
     47c:	0b39053b 	bleq	e41970 <__bss_end__+0xe38170>
     480:	00001349 	andeq	r1, r0, r9, asr #6
     484:	2701151e 	smladcs	r1, lr, r5, r1
     488:	00130119 	andseq	r0, r3, r9, lsl r1
     48c:	00341f00 	eorseq	r1, r4, r0, lsl #30
     490:	0b3a0e03 	bleq	e83ca4 <__bss_end__+0xe7a4a4>
     494:	0b39053b 	bleq	e41988 <__bss_end__+0xe38188>
     498:	193f1349 	ldmdbne	pc!, {r0, r3, r6, r8, r9, ip}	; <UNPREDICTABLE>
     49c:	0000193c 	andeq	r1, r0, ip, lsr r9
     4a0:	3e010420 	cfcpydcc	mvd0, mvd1
     4a4:	490b0b0b 	stmdbmi	fp, {r0, r1, r3, r8, r9, fp}
     4a8:	3b0b3a13 	blcc	2cecfc <__bss_end__+0x2c54fc>
     4ac:	010b390b 	tsteq	fp, fp, lsl #18
     4b0:	21000013 	tstcs	r0, r3, lsl r0
     4b4:	0e030028 	cdpeq	0, 0, cr0, cr3, cr8, {1}
     4b8:	0000061c 	andeq	r0, r0, ip, lsl r6
     4bc:	3f012e22 	svccc	0x00012e22
     4c0:	3a0e0319 	bcc	38112c <__bss_end__+0x37792c>
     4c4:	390b3b0b 	stmdbcc	fp, {r0, r1, r3, r8, r9, fp, ip, sp}
     4c8:	1119270b 	tstne	r9, fp, lsl #14
     4cc:	40061201 	andmi	r1, r6, r1, lsl #4
     4d0:	19429718 	stmdbne	r2, {r3, r4, r8, r9, sl, ip, pc}^
     4d4:	00001301 	andeq	r1, r0, r1, lsl #6
     4d8:	03000523 	movweq	r0, #1315	; 0x523
     4dc:	3b0b3a08 	blcc	2ced04 <__bss_end__+0x2c5504>
     4e0:	490b390b 	stmdbmi	fp, {r0, r1, r3, r8, fp, ip, sp}
     4e4:	b7170213 			; <UNDEFINED> instruction: 0xb7170213
     4e8:	00001742 	andeq	r1, r0, r2, asr #14
     4ec:	03003424 	movweq	r3, #1060	; 0x424
     4f0:	3413490e 	ldrcc	r4, [r3], #-2318	; 0xfffff6f2
     4f4:	00180219 	andseq	r0, r8, r9, lsl r2
     4f8:	82892500 	addhi	r2, r9, #0, 10
     4fc:	01110101 	tsteq	r1, r1, lsl #2
     500:	13011331 	movwne	r1, #4913	; 0x1331
     504:	8a260000 	bhi	98050c <__bss_end__+0x976d0c>
     508:	02000182 	andeq	r0, r0, #-2147483616	; 0x80000020
     50c:	18429118 	stmdane	r2, {r3, r4, r8, ip, pc}^
     510:	89270000 	stmdbhi	r7!, {}	; <UNPREDICTABLE>
     514:	11000182 	smlabbne	r0, r2, r1, r0
     518:	00133101 	andseq	r3, r3, r1, lsl #2
     51c:	00342800 	eorseq	r2, r4, r0, lsl #16
     520:	0b3a0e03 	bleq	e83d34 <__bss_end__+0xe7a534>
     524:	0b390b3b 	bleq	e43218 <__bss_end__+0xe39a18>
     528:	193f1349 	ldmdbne	pc!, {r0, r3, r6, r8, r9, ip}	; <UNPREDICTABLE>
     52c:	0000193c 	andeq	r1, r0, ip, lsr r9
     530:	03003429 	movweq	r3, #1065	; 0x429
     534:	3b0b3a08 	blcc	2ced5c <__bss_end__+0x2c555c>
     538:	490b390b 	stmdbmi	fp, {r0, r1, r3, r8, fp, ip, sp}
     53c:	000b1c13 	andeq	r1, fp, r3, lsl ip
     540:	00342a00 	eorseq	r2, r4, r0, lsl #20
     544:	0b3a0803 	bleq	e82558 <__bss_end__+0xe78d58>
     548:	0b390b3b 	bleq	e4323c <__bss_end__+0xe39a3c>
     54c:	00001349 	andeq	r1, r0, r9, asr #6
     550:	0300342b 	movweq	r3, #1067	; 0x42b
     554:	3b0b3a08 	blcc	2ced7c <__bss_end__+0x2c557c>
     558:	490b390b 	stmdbmi	fp, {r0, r1, r3, r8, fp, ip, sp}
     55c:	b7170213 			; <UNDEFINED> instruction: 0xb7170213
     560:	00001742 	andeq	r1, r0, r2, asr #14
     564:	11010b2c 	tstne	r1, ip, lsr #22
     568:	01061201 	tsteq	r6, r1, lsl #4
     56c:	2d000013 	stccs	0, cr0, [r0, #-76]	; 0xffffffb4
     570:	193f002e 	ldmdbne	pc!, {r1, r2, r3, r5}	; <UNPREDICTABLE>
     574:	0e6e193c 			; <UNDEFINED> instruction: 0x0e6e193c
     578:	0b3a0e03 	bleq	e83d8c <__bss_end__+0xe7a58c>
     57c:	0b390b3b 	bleq	e43270 <__bss_end__+0xe39a70>
     580:	01000000 	mrseq	r0, (UNDEF: 0)
     584:	0e250111 	mcreq	1, 1, r0, cr5, cr1, {0}
     588:	0e030b13 	vmoveq.32	d3[0], r0
     58c:	01110e1b 	tsteq	r1, fp, lsl lr
     590:	17100612 			; <UNDEFINED> instruction: 0x17100612
     594:	24020000 	strcs	r0, [r2], #-0
     598:	3e0b0b00 	vmlacc.f64	d0, d11, d0
     59c:	0008030b 	andeq	r0, r8, fp, lsl #6
     5a0:	00240300 	eoreq	r0, r4, r0, lsl #6
     5a4:	0b3e0b0b 	bleq	f831d8 <__bss_end__+0xf799d8>
     5a8:	00000e03 	andeq	r0, r0, r3, lsl #28
     5ac:	03001604 	movweq	r1, #1540	; 0x604
     5b0:	3b0b3a0e 	blcc	2cedf0 <__bss_end__+0x2c55f0>
     5b4:	490b390b 	stmdbmi	fp, {r0, r1, r3, r8, fp, ip, sp}
     5b8:	05000013 	streq	r0, [r0, #-19]	; 0xffffffed
     5bc:	0b0b000f 	bleq	2c0600 <__bss_end__+0x2b6e00>
     5c0:	0f060000 	svceq	0x00060000
     5c4:	490b0b00 	stmdbmi	fp, {r8, r9, fp}
     5c8:	07000013 	smladeq	r0, r3, r0, r0
     5cc:	0e030013 	mcreq	0, 0, r0, cr3, cr3, {0}
     5d0:	0000193c 	andeq	r1, r0, ip, lsr r9
     5d4:	03001608 	movweq	r1, #1544	; 0x608
     5d8:	3b0b3a0e 	blcc	2cee18 <__bss_end__+0x2c5618>
     5dc:	490b3905 	stmdbmi	fp, {r0, r2, r8, fp, ip, sp}
     5e0:	09000013 	stmdbeq	r0, {r0, r1, r4}
     5e4:	0b0b0117 	bleq	2c0a48 <__bss_end__+0x2b7248>
     5e8:	0b3b0b3a 	bleq	ec32d8 <__bss_end__+0xeb9ad8>
     5ec:	13010b39 	movwne	r0, #6969	; 0x1b39
     5f0:	0d0a0000 	stceq	0, cr0, [sl, #-0]
     5f4:	3a0e0300 	bcc	3811fc <__bss_end__+0x3779fc>
     5f8:	390b3b0b 	stmdbcc	fp, {r0, r1, r3, r8, r9, fp, ip, sp}
     5fc:	0013490b 	andseq	r4, r3, fp, lsl #18
     600:	01010b00 	tsteq	r1, r0, lsl #22
     604:	13011349 	movwne	r1, #4937	; 0x1349
     608:	210c0000 	mrscs	r0, (UNDEF: 12)
     60c:	2f134900 	svccs	0x00134900
     610:	0d00000b 	stceq	0, cr0, [r0, #-44]	; 0xffffffd4
     614:	0b0b0113 	bleq	2c0a68 <__bss_end__+0x2b7268>
     618:	0b3b0b3a 	bleq	ec3308 <__bss_end__+0xeb9b08>
     61c:	13010b39 	movwne	r0, #6969	; 0x1b39
     620:	0d0e0000 	stceq	0, cr0, [lr, #-0]
     624:	3a0e0300 	bcc	38122c <__bss_end__+0x377a2c>
     628:	390b3b0b 	stmdbcc	fp, {r0, r1, r3, r8, r9, fp, ip, sp}
     62c:	3813490b 	ldmdacc	r3, {r0, r1, r3, r8, fp, lr}
     630:	0f00000b 	svceq	0x0000000b
     634:	13490026 	movtne	r0, #36902	; 0x9026
     638:	13100000 	tstne	r0, #0, 0
     63c:	0b0e0301 	bleq	381248 <__bss_end__+0x377a48>
     640:	3b0b3a0b 	blcc	2cee74 <__bss_end__+0x2c5674>
     644:	010b390b 	tsteq	fp, fp, lsl #18
     648:	11000013 	tstne	r0, r3, lsl r0
     64c:	0803000d 	stmdaeq	r3, {r0, r2, r3}
     650:	0b3b0b3a 	bleq	ec3340 <__bss_end__+0xeb9b40>
     654:	13490b39 	movtne	r0, #39737	; 0x9b39
     658:	00000b38 	andeq	r0, r0, r8, lsr fp
     65c:	03011312 	movweq	r1, #4882	; 0x1312
     660:	3a050b0e 	bcc	1432a0 <__bss_end__+0x139aa0>
     664:	390b3b0b 	stmdbcc	fp, {r0, r1, r3, r8, r9, fp, ip, sp}
     668:	0013010b 	andseq	r0, r3, fp, lsl #2
     66c:	000d1300 	andeq	r1, sp, r0, lsl #6
     670:	0b3a0e03 	bleq	e83e84 <__bss_end__+0xe7a684>
     674:	0b390b3b 	bleq	e43368 <__bss_end__+0xe39b68>
     678:	05381349 	ldreq	r1, [r8, #-841]!	; 0xfffffcb7
     67c:	15140000 	ldrne	r0, [r4, #-0]
     680:	00192700 	andseq	r2, r9, r0, lsl #14
     684:	01151500 	tsteq	r5, r0, lsl #10
     688:	13491927 	movtne	r1, #39207	; 0x9927
     68c:	00001301 	andeq	r1, r0, r1, lsl #6
     690:	49000516 	stmdbmi	r0, {r1, r2, r4, r8, sl}
     694:	17000013 	smladne	r0, r3, r0, r0
     698:	0e030113 	mcreq	1, 0, r0, cr3, cr3, {0}
     69c:	0b3a050b 	bleq	e81ad0 <__bss_end__+0xe782d0>
     6a0:	0b39053b 	bleq	e41b94 <__bss_end__+0xe38394>
     6a4:	00001301 	andeq	r1, r0, r1, lsl #6
     6a8:	03000d18 	movweq	r0, #3352	; 0xd18
     6ac:	3b0b3a0e 	blcc	2ceeec <__bss_end__+0x2c56ec>
     6b0:	490b3905 	stmdbmi	fp, {r0, r2, r8, fp, ip, sp}
     6b4:	000b3813 	andeq	r3, fp, r3, lsl r8
     6b8:	000d1900 	andeq	r1, sp, r0, lsl #18
     6bc:	0b3a0e03 	bleq	e83ed0 <__bss_end__+0xe7a6d0>
     6c0:	0b39053b 	bleq	e41bb4 <__bss_end__+0xe383b4>
     6c4:	05381349 	ldreq	r1, [r8, #-841]!	; 0xfffffcb7
     6c8:	131a0000 	tstne	sl, #0, 0
     6cc:	0b0e0301 	bleq	3812d8 <__bss_end__+0x377ad8>
     6d0:	3b0b3a0b 	blcc	2cef04 <__bss_end__+0x2c5704>
     6d4:	010b3905 	tsteq	fp, r5, lsl #18
     6d8:	1b000013 	blne	72c <__code_start__-0x78d4>
     6dc:	0b0b0113 	bleq	2c0b30 <__bss_end__+0x2b7330>
     6e0:	053b0b3a 	ldreq	r0, [fp, #-2874]!	; 0xfffff4c6
     6e4:	13010b39 	movwne	r0, #6969	; 0x1b39
     6e8:	171c0000 	ldrne	r0, [ip, -r0]
     6ec:	3a0b0b01 	bcc	2c32f8 <__bss_end__+0x2b9af8>
     6f0:	39053b0b 	stmdbcc	r5, {r0, r1, r3, r8, r9, fp, ip, sp}
     6f4:	0013010b 	andseq	r0, r3, fp, lsl #2
     6f8:	000d1d00 	andeq	r1, sp, r0, lsl #26
     6fc:	0b3a0e03 	bleq	e83f10 <__bss_end__+0xe7a710>
     700:	0b39053b 	bleq	e41bf4 <__bss_end__+0xe383f4>
     704:	00001349 	andeq	r1, r0, r9, asr #6
     708:	2701151e 	smladcs	r1, lr, r5, r1
     70c:	00130119 	andseq	r0, r3, r9, lsl r1
     710:	00341f00 	eorseq	r1, r4, r0, lsl #30
     714:	0b3a0e03 	bleq	e83f28 <__bss_end__+0xe7a728>
     718:	0b39053b 	bleq	e41c0c <__bss_end__+0xe3840c>
     71c:	193f1349 	ldmdbne	pc!, {r0, r3, r6, r8, r9, ip}	; <UNPREDICTABLE>
     720:	0000193c 	andeq	r1, r0, ip, lsr r9
     724:	03000d20 	movweq	r0, #3360	; 0xd20
     728:	3b0b3a0e 	blcc	2cef68 <__bss_end__+0x2c5768>
     72c:	490b390b 	stmdbmi	fp, {r0, r1, r3, r8, fp, ip, sp}
     730:	0d0b0b13 	vstreq	d0, [fp, #-76]	; 0xffffffb4
     734:	380b0c0b 	stmdacc	fp, {r0, r1, r3, sl, fp}
     738:	2100000b 	tstcs	r0, fp
     73c:	0b3e0104 	bleq	f80b54 <__bss_end__+0xf77354>
     740:	13490b0b 	movtne	r0, #39691	; 0x9b0b
     744:	0b3b0b3a 	bleq	ec3434 <__bss_end__+0xeb9c34>
     748:	13010b39 	movwne	r0, #6969	; 0x1b39
     74c:	28220000 	stmdacs	r2!, {}	; <UNPREDICTABLE>
     750:	1c0e0300 	stcne	3, cr0, [lr], {-0}
     754:	23000006 	movwcs	r0, #6
     758:	0e03012e 	adfeqsp	f0, f3, #0.5
     75c:	0b3b0b3a 	bleq	ec344c <__bss_end__+0xeb9c4c>
     760:	19270b39 	stmdbne	r7!, {r0, r3, r4, r5, r8, r9, fp}
     764:	06120111 			; <UNDEFINED> instruction: 0x06120111
     768:	42971840 	addsmi	r1, r7, #64, 16	; 0x400000
     76c:	00130119 	andseq	r0, r3, r9, lsl r1
     770:	00342400 	eorseq	r2, r4, r0, lsl #8
     774:	13490e03 	movtne	r0, #40451	; 0x9e03
     778:	18021934 	stmdane	r2, {r2, r4, r5, r8, fp, ip}
     77c:	0b250000 	bleq	940784 <__bss_end__+0x936f84>
     780:	12011101 	andne	r1, r1, #1073741824	; 0x40000000
     784:	00130106 	andseq	r0, r3, r6, lsl #2
     788:	01172600 	tsteq	r7, r0, lsl #12
     78c:	0b0b0803 	bleq	2c27a0 <__bss_end__+0x2b8fa0>
     790:	0b3b0b3a 	bleq	ec3480 <__bss_end__+0xeb9c80>
     794:	13010b39 	movwne	r0, #6969	; 0x1b39
     798:	0d270000 	stceq	0, cr0, [r7, #-0]
     79c:	3a080300 	bcc	2013a4 <__bss_end__+0x1f7ba4>
     7a0:	390b3b0b 	stmdbcc	fp, {r0, r1, r3, r8, r9, fp, ip, sp}
     7a4:	0013490b 	andseq	r4, r3, fp, lsl #18
     7a8:	00342800 	eorseq	r2, r4, r0, lsl #16
     7ac:	0b3a0803 	bleq	e827c0 <__bss_end__+0xe78fc0>
     7b0:	0b390b3b 	bleq	e434a4 <__bss_end__+0xe39ca4>
     7b4:	00001349 	andeq	r1, r0, r9, asr #6
     7b8:	03003429 	movweq	r3, #1065	; 0x429
     7bc:	3b0b3a08 	blcc	2cefe4 <__bss_end__+0x2c57e4>
     7c0:	490b390b 	stmdbmi	fp, {r0, r1, r3, r8, fp, ip, sp}
     7c4:	000b1c13 	andeq	r1, fp, r3, lsl ip
     7c8:	00342a00 	eorseq	r2, r4, r0, lsl #20
     7cc:	0b3a0e03 	bleq	e83fe0 <__bss_end__+0xe7a7e0>
     7d0:	0b390b3b 	bleq	e434c4 <__bss_end__+0xe39cc4>
     7d4:	0b1c1349 	bleq	705500 <__bss_end__+0x6fbd00>
     7d8:	342b0000 	strtcc	r0, [fp], #-0
     7dc:	3a080300 	bcc	2013e4 <__bss_end__+0x1f7be4>
     7e0:	390b3b0b 	stmdbcc	fp, {r0, r1, r3, r8, r9, fp, ip, sp}
     7e4:	0213490b 	andseq	r4, r3, #180224	; 0x2c000
     7e8:	2c000018 	stccs	0, cr0, [r0], {24}
     7ec:	08030034 	stmdaeq	r3, {r2, r4, r5}
     7f0:	0b3b0b3a 	bleq	ec34e0 <__bss_end__+0xeb9ce0>
     7f4:	13490b39 	movtne	r0, #39737	; 0x9b39
     7f8:	42b71702 	adcsmi	r1, r7, #524288	; 0x80000
     7fc:	2d000017 	stccs	0, cr0, [r0, #-92]	; 0xffffffa4
     800:	08030034 	stmdaeq	r3, {r2, r4, r5}
     804:	0b3b0b3a 	bleq	ec34f4 <__bss_end__+0xeb9cf4>
     808:	13490b39 	movtne	r0, #39737	; 0x9b39
     80c:	0000051c 	andeq	r0, r0, ip, lsl r5
     810:	0182892e 	orreq	r8, r2, lr, lsr #18
     814:	31011101 	tstcc	r1, r1, lsl #2
     818:	2f000013 	svccs	0x00000013
     81c:	0001828a 	andeq	r8, r1, sl, lsl #5
     820:	42911802 	addsmi	r1, r1, #131072	; 0x20000
     824:	30000018 	andcc	r0, r0, r8, lsl r0
     828:	193f012e 	ldmdbne	pc!, {r1, r2, r3, r5, r8}	; <UNPREDICTABLE>
     82c:	0b3a0e03 	bleq	e84040 <__bss_end__+0xe7a840>
     830:	0b390b3b 	bleq	e43524 <__bss_end__+0xe39d24>
     834:	01111927 	tsteq	r1, r7, lsr #18
     838:	18400612 	stmdane	r0, {r1, r4, r9, sl}^
     83c:	01194297 			; <UNDEFINED> instruction: 0x01194297
     840:	31000013 	tstcc	r0, r3, lsl r0
     844:	0e030005 	cdpeq	0, 0, cr0, cr3, cr5, {0}
     848:	0b3b0b3a 	bleq	ec3538 <__bss_end__+0xeb9d38>
     84c:	13490b39 	movtne	r0, #39737	; 0x9b39
     850:	42b71702 	adcsmi	r1, r7, #524288	; 0x80000
     854:	32000017 	andcc	r0, r0, #23, 0
     858:	00018289 	andeq	r8, r1, r9, lsl #5
     85c:	13310111 	teqne	r1, #1073741828	; 0x40000004
     860:	89330000 	ldmdbhi	r3!, {}	; <UNPREDICTABLE>
     864:	11010182 	smlabbne	r1, r2, r1, r0
     868:	01133101 	tsteq	r3, r1, lsl #2
     86c:	34000013 	strcc	r0, [r0], #-19	; 0xffffffed
     870:	193f002e 	ldmdbne	pc!, {r1, r2, r3, r5}	; <UNPREDICTABLE>
     874:	0e6e193c 			; <UNDEFINED> instruction: 0x0e6e193c
     878:	0b3a0e03 	bleq	e8408c <__bss_end__+0xe7a88c>
     87c:	0b390b3b 	bleq	e43570 <__bss_end__+0xe39d70>
     880:	01000000 	mrseq	r0, (UNDEF: 0)
     884:	0e250111 	mcreq	1, 1, r0, cr5, cr1, {0}
     888:	0e030b13 	vmoveq.32	d3[0], r0
     88c:	01110e1b 	tsteq	r1, fp, lsl lr
     890:	17100612 			; <UNDEFINED> instruction: 0x17100612
     894:	24020000 	strcs	r0, [r2], #-0
     898:	3e0b0b00 	vmlacc.f64	d0, d11, d0
     89c:	0008030b 	andeq	r0, r8, fp, lsl #6
     8a0:	00240300 	eoreq	r0, r4, r0, lsl #6
     8a4:	0b3e0b0b 	bleq	f834d8 <__bss_end__+0xf79cd8>
     8a8:	00000e03 	andeq	r0, r0, r3, lsl #28
     8ac:	03001604 	movweq	r1, #1540	; 0x604
     8b0:	3b0b3a0e 	blcc	2cf0f0 <__bss_end__+0x2c58f0>
     8b4:	490b390b 	stmdbmi	fp, {r0, r1, r3, r8, fp, ip, sp}
     8b8:	05000013 	streq	r0, [r0, #-19]	; 0xffffffed
     8bc:	0b0b000f 	bleq	2c0900 <__bss_end__+0x2b7100>
     8c0:	0f060000 	svceq	0x00060000
     8c4:	490b0b00 	stmdbmi	fp, {r8, r9, fp}
     8c8:	07000013 	smladeq	r0, r3, r0, r0
     8cc:	13490026 	movtne	r0, #36902	; 0x9026
     8d0:	04080000 	streq	r0, [r8], #-0
     8d4:	0b0b3e01 	bleq	2d00e0 <__bss_end__+0x2c68e0>
     8d8:	3a13490b 	bcc	4d2d0c <__bss_end__+0x4c950c>
     8dc:	390b3b0b 	stmdbcc	fp, {r0, r1, r3, r8, r9, fp, ip, sp}
     8e0:	0013010b 	andseq	r0, r3, fp, lsl #2
     8e4:	00280900 	eoreq	r0, r8, r0, lsl #18
     8e8:	061c0e03 	ldreq	r0, [ip], -r3, lsl #28
     8ec:	010a0000 	mrseq	r0, (UNDEF: 10)
     8f0:	01134901 	tsteq	r3, r1, lsl #18
     8f4:	0b000013 	bleq	948 <__code_start__-0x76b8>
     8f8:	00000021 	andeq	r0, r0, r1, lsr #32
     8fc:	0300340c 	movweq	r3, #1036	; 0x40c
     900:	3b0b3a0e 	blcc	2cf140 <__bss_end__+0x2c5940>
     904:	490b390b 	stmdbmi	fp, {r0, r1, r3, r8, fp, ip, sp}
     908:	3c193f13 	ldccc	15, cr3, [r9], {19}
     90c:	0d000019 	stceq	0, cr0, [r0, #-100]	; 0xffffff9c
     910:	0e030034 	mcreq	0, 0, r0, cr3, cr4, {1}
     914:	0b3b0b3a 	bleq	ec3604 <__bss_end__+0xeb9e04>
     918:	13490b39 	movtne	r0, #39737	; 0x9b39
     91c:	00001802 	andeq	r1, r0, r2, lsl #16
     920:	3f012e0e 	svccc	0x00012e0e
     924:	3a0e0319 	bcc	381590 <__bss_end__+0x377d90>
     928:	390b3b0b 	stmdbcc	fp, {r0, r1, r3, r8, r9, fp, ip, sp}
     92c:	1119270b 	tstne	r9, fp, lsl #14
     930:	40061201 	andmi	r1, r6, r1, lsl #4
     934:	19429718 	stmdbne	r2, {r3, r4, r8, r9, sl, ip, pc}^
     938:	00001301 	andeq	r1, r0, r1, lsl #6
     93c:	0300050f 	movweq	r0, #1295	; 0x50f
     940:	3b0b3a08 	blcc	2cf168 <__bss_end__+0x2c5968>
     944:	490b390b 	stmdbmi	fp, {r0, r1, r3, r8, fp, ip, sp}
     948:	b7170213 			; <UNDEFINED> instruction: 0xb7170213
     94c:	00001742 	andeq	r1, r0, r2, asr #14
     950:	03003410 	movweq	r3, #1040	; 0x410
     954:	3413490e 	ldrcc	r4, [r3], #-2318	; 0xfffff6f2
     958:	00180219 	andseq	r0, r8, r9, lsl r2
     95c:	82891100 	addhi	r1, r9, #0
     960:	01110101 	tsteq	r1, r1, lsl #2
     964:	13011331 	movwne	r1, #4913	; 0x1331
     968:	8a120000 	bhi	480970 <__bss_end__+0x477170>
     96c:	02000182 	andeq	r0, r0, #-2147483616	; 0x80000020
     970:	18429118 	stmdane	r2, {r3, r4, r8, ip, pc}^
     974:	89130000 	ldmdbhi	r3, {}	; <UNPREDICTABLE>
     978:	11000182 	smlabbne	r0, r2, r1, r0
     97c:	00133101 	andseq	r3, r3, r1, lsl #2
     980:	00211400 	eoreq	r1, r1, r0, lsl #8
     984:	0b2f1349 	bleq	bc56b0 <__bss_end__+0xbbbeb0>
     988:	2e150000 	cdpcs	0, 1, cr0, cr5, cr0, {0}
     98c:	03193f00 	tsteq	r9, #0, 30
     990:	3b0b3a0e 	blcc	2cf1d0 <__bss_end__+0x2c59d0>
     994:	270b390b 	strcs	r3, [fp, -fp, lsl #18]
     998:	12011119 	andne	r1, r1, #1073741830	; 0x40000006
     99c:	97184006 	ldrls	r4, [r8, -r6]
     9a0:	00001942 	andeq	r1, r0, r2, asr #18
     9a4:	3f012e16 	svccc	0x00012e16
     9a8:	3a0e0319 	bcc	381614 <__bss_end__+0x377e14>
     9ac:	390b3b0b 	stmdbcc	fp, {r0, r1, r3, r8, r9, fp, ip, sp}
     9b0:	4919270b 	ldmdbmi	r9, {r0, r1, r3, r8, r9, sl, sp}
     9b4:	12011113 	andne	r1, r1, #-1073741820	; 0xc0000004
     9b8:	97184006 	ldrls	r4, [r8, -r6]
     9bc:	13011942 	movwne	r1, #6466	; 0x1942
     9c0:	05170000 	ldreq	r0, [r7, #-0]
     9c4:	3a0e0300 	bcc	3815cc <__bss_end__+0x377dcc>
     9c8:	390b3b0b 	stmdbcc	fp, {r0, r1, r3, r8, r9, fp, ip, sp}
     9cc:	0213490b 	andseq	r4, r3, #180224	; 0x2c000
     9d0:	1742b717 	smlaldne	fp, r2, r7, r7
     9d4:	34180000 	ldrcc	r0, [r8], #-0
     9d8:	3a080300 	bcc	2015e0 <__bss_end__+0x1f7de0>
     9dc:	390b3b0b 	stmdbcc	fp, {r0, r1, r3, r8, r9, fp, ip, sp}
     9e0:	0213490b 	andseq	r4, r3, #180224	; 0x2c000
     9e4:	1742b717 	smlaldne	fp, r2, r7, r7
     9e8:	1d190000 	ldcne	0, cr0, [r9, #-0]
     9ec:	52133101 	andspl	r3, r3, #1073741824	; 0x40000000
     9f0:	0b42b801 	bleq	10ae9fc <__bss_end__+0x10a51fc>
     9f4:	06120111 			; <UNDEFINED> instruction: 0x06120111
     9f8:	0b590b58 	bleq	1643760 <__bss_end__+0x1639f60>
     9fc:	13010b57 	movwne	r0, #6999	; 0x1b57
     a00:	051a0000 	ldreq	r0, [sl, #-0]
     a04:	02133100 	andseq	r3, r3, #0
     a08:	1742b717 	smlaldne	fp, r2, r7, r7
     a0c:	1d1b0000 	ldcne	0, cr0, [fp, #-0]
     a10:	52133101 	andspl	r3, r3, #1073741824	; 0x40000000
     a14:	0b42b801 	bleq	10aea20 <__bss_end__+0x10a5220>
     a18:	0b581755 	bleq	1606774 <__bss_end__+0x15fcf74>
     a1c:	0b570b59 	bleq	15c3788 <__bss_end__+0x15b9f88>
     a20:	00001301 	andeq	r1, r0, r1, lsl #6
     a24:	55010b1c 	strpl	r0, [r1, #-2844]	; 0xfffff4e4
     a28:	1d000017 	stcne	0, cr0, [r0, #-92]	; 0xffffffa4
     a2c:	0e030034 	mcreq	0, 0, r0, cr3, cr4, {1}
     a30:	0b3b0b3a 	bleq	ec3720 <__bss_end__+0xeb9f20>
     a34:	13490b39 	movtne	r0, #39737	; 0x9b39
     a38:	42b71702 	adcsmi	r1, r7, #524288	; 0x80000
     a3c:	1e000017 	mcrne	0, 0, r0, cr0, cr7, {0}
     a40:	1755000b 	ldrbne	r0, [r5, -fp]
     a44:	2e1f0000 	cdpcs	0, 1, cr0, cr15, cr0, {0}
     a48:	03193f00 	tsteq	r9, #0, 30
     a4c:	3b0b3a0e 	blcc	2cf28c <__bss_end__+0x2c5a8c>
     a50:	270b390b 	strcs	r3, [fp, -fp, lsl #18]
     a54:	11134919 	tstne	r3, r9, lsl r9
     a58:	40061201 	andmi	r1, r6, r1, lsl #4
     a5c:	19429718 	stmdbne	r2, {r3, r4, r8, r9, sl, ip, pc}^
     a60:	2e200000 	cdpcs	0, 2, cr0, cr0, cr0, {0}
     a64:	3a0e0301 	bcc	381670 <__bss_end__+0x377e70>
     a68:	390b3b0b 	stmdbcc	fp, {r0, r1, r3, r8, r9, fp, ip, sp}
     a6c:	4919270b 	ldmdbmi	r9, {r0, r1, r3, r8, r9, sl, sp}
     a70:	010b2013 	tsteq	fp, r3, lsl r0
     a74:	21000013 	tstcs	r0, r3, lsl r0
     a78:	08030005 	stmdaeq	r3, {r0, r2}
     a7c:	0b3b0b3a 	bleq	ec376c <__bss_end__+0xeb9f6c>
     a80:	13490b39 	movtne	r0, #39737	; 0x9b39
     a84:	2e220000 	cdpcs	0, 2, cr0, cr2, cr0, {0}
     a88:	3c193f00 	ldccc	15, cr3, [r9], {-0}
     a8c:	030e6e19 	movweq	r6, #60953	; 0xee19
     a90:	3b0b3a0e 	blcc	2cf2d0 <__bss_end__+0x2c5ad0>
     a94:	000b390b 	andeq	r3, fp, fp, lsl #18
     a98:	11010000 	mrsne	r0, (UNDEF: 1)
     a9c:	130e2501 	movwne	r2, #58625	; 0xe501
     aa0:	1b0e030b 	blne	3816d4 <__bss_end__+0x377ed4>
     aa4:	1201110e 	andne	r1, r1, #-2147483645	; 0x80000003
     aa8:	00171006 	andseq	r1, r7, r6
     aac:	00240200 	eoreq	r0, r4, r0, lsl #4
     ab0:	0b3e0b0b 	bleq	f836e4 <__bss_end__+0xf79ee4>
     ab4:	00000803 	andeq	r0, r0, r3, lsl #16
     ab8:	03001603 	movweq	r1, #1539	; 0x603
     abc:	3b0b3a0e 	blcc	2cf2fc <__bss_end__+0x2c5afc>
     ac0:	490b390b 	stmdbmi	fp, {r0, r1, r3, r8, fp, ip, sp}
     ac4:	04000013 	streq	r0, [r0], #-19	; 0xffffffed
     ac8:	0b0b0024 	bleq	2c0b60 <__bss_end__+0x2b7360>
     acc:	0e030b3e 	vmoveq.16	d3[0], r0
     ad0:	0f050000 	svceq	0x00050000
     ad4:	000b0b00 	andeq	r0, fp, r0, lsl #22
     ad8:	012e0600 			; <UNDEFINED> instruction: 0x012e0600
     adc:	0e03193f 			; <UNDEFINED> instruction: 0x0e03193f
     ae0:	0b3b0b3a 	bleq	ec37d0 <__bss_end__+0xeb9fd0>
     ae4:	19270b39 	stmdbne	r7!, {r0, r3, r4, r5, r8, r9, fp}
     ae8:	01111349 	tsteq	r1, r9, asr #6
     aec:	18400612 	stmdane	r0, {r1, r4, r9, sl}^
     af0:	01194297 			; <UNDEFINED> instruction: 0x01194297
     af4:	07000013 	smladeq	r0, r3, r0, r0
     af8:	08030005 	stmdaeq	r3, {r0, r2}
     afc:	0b3b0b3a 	bleq	ec37ec <__bss_end__+0xeb9fec>
     b00:	13490b39 	movtne	r0, #39737	; 0x9b39
     b04:	42b71702 	adcsmi	r1, r7, #524288	; 0x80000
     b08:	08000017 	stmdaeq	r0, {r0, r1, r2, r4}
     b0c:	0e030034 	mcreq	0, 0, r0, cr3, cr4, {1}
     b10:	19341349 	ldmdbne	r4!, {r0, r3, r6, r8, r9, ip}
     b14:	00001802 	andeq	r1, r0, r2, lsl #16
     b18:	03003409 	movweq	r3, #1033	; 0x409
     b1c:	3b0b3a08 	blcc	2cf344 <__bss_end__+0x2c5b44>
     b20:	490b390b 	stmdbmi	fp, {r0, r1, r3, r8, fp, ip, sp}
     b24:	b7170213 			; <UNDEFINED> instruction: 0xb7170213
     b28:	00001742 	andeq	r1, r0, r2, asr #14
     b2c:	11010b0a 	tstne	r1, sl, lsl #22
     b30:	01061201 	tsteq	r6, r1, lsl #4
     b34:	0b000013 	bleq	b88 <__code_start__-0x7478>
     b38:	01018289 	smlabbeq	r1, r9, r2, r8
     b3c:	13310111 	teqne	r1, #1073741828	; 0x40000004
     b40:	00001301 	andeq	r1, r0, r1, lsl #6
     b44:	01828a0c 	orreq	r8, r2, ip, lsl #20
     b48:	91180200 	tstls	r8, r0, lsl #4
     b4c:	00001842 	andeq	r1, r0, r2, asr #16
     b50:	0182890d 	orreq	r8, r2, sp, lsl #18
     b54:	31011100 	mrscc	r1, (UNDEF: 17)
     b58:	0e000013 	mcreq	0, 0, r0, cr0, cr3, {0}
     b5c:	13490101 	movtne	r0, #37121	; 0x9101
     b60:	00001301 	andeq	r1, r0, r1, lsl #6
     b64:	4900210f 	stmdbmi	r0, {r0, r1, r2, r3, r8, sp}
     b68:	000b2f13 	andeq	r2, fp, r3, lsl pc
     b6c:	00261000 	eoreq	r1, r6, r0
     b70:	00001349 	andeq	r1, r0, r9, asr #6
     b74:	0b000f11 	bleq	47c0 <__code_start__-0x3840>
     b78:	0013490b 	andseq	r4, r3, fp, lsl #18
     b7c:	002e1200 	eoreq	r1, lr, r0, lsl #4
     b80:	193c193f 	ldmdbne	ip!, {r0, r1, r2, r3, r4, r5, r8, fp, ip}
     b84:	0e030e6e 	cdpeq	14, 0, cr0, cr3, cr14, {3}
     b88:	0b3b0b3a 	bleq	ec3878 <__bss_end__+0xeba078>
     b8c:	00000b39 	andeq	r0, r0, r9, lsr fp
     b90:	01110100 	tsteq	r1, r0, lsl #2
     b94:	0b130e25 	bleq	4c4430 <__bss_end__+0x4bac30>
     b98:	0e1b0e03 	cdpeq	14, 1, cr0, cr11, cr3, {0}
     b9c:	06120111 			; <UNDEFINED> instruction: 0x06120111
     ba0:	00001710 	andeq	r1, r0, r0, lsl r7
     ba4:	0b002402 	bleq	9bb4 <__bss_end__+0x3b4>
     ba8:	030b3e0b 	movweq	r3, #48651	; 0xbe0b
     bac:	03000008 	movweq	r0, #8
     bb0:	0b0b0024 	bleq	2c0c48 <__bss_end__+0x2b7448>
     bb4:	0e030b3e 	vmoveq.16	d3[0], r0
     bb8:	16040000 	strne	r0, [r4], -r0
     bbc:	3a0e0300 	bcc	3817c4 <__bss_end__+0x377fc4>
     bc0:	390b3b0b 	stmdbcc	fp, {r0, r1, r3, r8, r9, fp, ip, sp}
     bc4:	0013490b 	andseq	r4, r3, fp, lsl #18
     bc8:	01130500 	tsteq	r3, r0, lsl #10
     bcc:	0b0b0e03 	bleq	2c43e0 <__bss_end__+0x2babe0>
     bd0:	0b3b0b3a 	bleq	ec38c0 <__bss_end__+0xeba0c0>
     bd4:	00001301 	andeq	r1, r0, r1, lsl #6
     bd8:	03000d06 	movweq	r0, #3334	; 0xd06
     bdc:	3813490e 	ldmdacc	r3, {r1, r2, r3, r8, fp, lr}
     be0:	0019340b 	andseq	r3, r9, fp, lsl #8
     be4:	000f0700 	andeq	r0, pc, r0, lsl #14
     be8:	00000b0b 	andeq	r0, r0, fp, lsl #22
     bec:	3f012e08 	svccc	0x00012e08
     bf0:	3a0e0319 	bcc	38185c <__bss_end__+0x37805c>
     bf4:	390b3b0b 	stmdbcc	fp, {r0, r1, r3, r8, r9, fp, ip, sp}
     bf8:	4919270b 	ldmdbmi	r9, {r0, r1, r3, r8, r9, sl, sp}
     bfc:	12011113 	andne	r1, r1, #-1073741820	; 0xc0000004
     c00:	97184006 	ldrls	r4, [r8, -r6]
     c04:	13011942 	movwne	r1, #6466	; 0x1942
     c08:	05090000 	streq	r0, [r9, #-0]
     c0c:	3a080300 	bcc	201814 <__bss_end__+0x1f8014>
     c10:	390b3b0b 	stmdbcc	fp, {r0, r1, r3, r8, r9, fp, ip, sp}
     c14:	0213490b 	andseq	r4, r3, #180224	; 0x2c000
     c18:	0a000018 	beq	c80 <__code_start__-0x7380>
     c1c:	00000018 	andeq	r0, r0, r8, lsl r0
     c20:	0300340b 	movweq	r3, #1035	; 0x40b
     c24:	3b0b3a0e 	blcc	2cf464 <__bss_end__+0x2c5c64>
     c28:	490b390b 	stmdbmi	fp, {r0, r1, r3, r8, fp, ip, sp}
     c2c:	00180213 	andseq	r0, r8, r3, lsl r2
     c30:	00340c00 	eorseq	r0, r4, r0, lsl #24
     c34:	0b3a0803 	bleq	e82c48 <__bss_end__+0xe79448>
     c38:	0b390b3b 	bleq	e4392c <__bss_end__+0xe3a12c>
     c3c:	17021349 	strne	r1, [r2, -r9, asr #6]
     c40:	001742b7 			; <UNDEFINED> instruction: 0x001742b7
     c44:	82890d00 	addhi	r0, r9, #0, 26
     c48:	01110101 	tsteq	r1, r1, lsl #2
     c4c:	00001331 	andeq	r1, r0, r1, lsr r3
     c50:	01828a0e 	orreq	r8, r2, lr, lsl #20
     c54:	91180200 	tstls	r8, r0, lsl #4
     c58:	00001842 	andeq	r1, r0, r2, asr #16
     c5c:	0b000f0f 	bleq	48a0 <__code_start__-0x3760>
     c60:	0013490b 	andseq	r4, r3, fp, lsl #18
     c64:	00261000 	eoreq	r1, r6, r0
     c68:	00001349 	andeq	r1, r0, r9, asr #6
     c6c:	03000511 	movweq	r0, #1297	; 0x511
     c70:	3b0b3a08 	blcc	2cf498 <__bss_end__+0x2c5c98>
     c74:	490b390b 	stmdbmi	fp, {r0, r1, r3, r8, fp, ip, sp}
     c78:	b7170213 			; <UNDEFINED> instruction: 0xb7170213
     c7c:	00001742 	andeq	r1, r0, r2, asr #14
     c80:	03003412 	movweq	r3, #1042	; 0x412
     c84:	3413490e 	ldrcc	r4, [r3], #-2318	; 0xfffff6f2
     c88:	00180219 	andseq	r0, r8, r9, lsl r2
     c8c:	010b1300 	mrseq	r1, (UNDEF: 59)
     c90:	13011755 	movwne	r1, #5973	; 0x1755
     c94:	34140000 	ldrcc	r0, [r4], #-0
     c98:	3a080300 	bcc	2018a0 <__bss_end__+0x1f80a0>
     c9c:	390b3b0b 	stmdbcc	fp, {r0, r1, r3, r8, r9, fp, ip, sp}
     ca0:	0013490b 	andseq	r4, r3, fp, lsl #18
     ca4:	82891500 	addhi	r1, r9, #0, 10
     ca8:	01110101 	tsteq	r1, r1, lsl #2
     cac:	13011331 	movwne	r1, #4913	; 0x1331
     cb0:	89160000 	ldmdbhi	r6, {}	; <UNPREDICTABLE>
     cb4:	11000182 	smlabbne	r0, r2, r1, r0
     cb8:	00133101 	andseq	r3, r3, r1, lsl #2
     cbc:	01011700 	tsteq	r1, r0, lsl #14
     cc0:	13011349 	movwne	r1, #4937	; 0x1349
     cc4:	21180000 	tstcs	r8, r0
     cc8:	2f134900 	svccs	0x00134900
     ccc:	1900000b 	stmdbne	r0, {r0, r1, r3}
     cd0:	0e03012e 	adfeqsp	f0, f3, #0.5
     cd4:	0b3b0b3a 	bleq	ec39c4 <__bss_end__+0xeba1c4>
     cd8:	19270b39 	stmdbne	r7!, {r0, r3, r4, r5, r8, r9, fp}
     cdc:	06120111 			; <UNDEFINED> instruction: 0x06120111
     ce0:	42971840 	addsmi	r1, r7, #64, 16	; 0x400000
     ce4:	00130119 	andseq	r0, r3, r9, lsl r1
     ce8:	00051a00 	andeq	r1, r5, r0, lsl #20
     cec:	0b3a0e03 	bleq	e84500 <__bss_end__+0xe7ad00>
     cf0:	0b390b3b 	bleq	e439e4 <__bss_end__+0xe3a1e4>
     cf4:	17021349 	strne	r1, [r2, -r9, asr #6]
     cf8:	001742b7 			; <UNDEFINED> instruction: 0x001742b7
     cfc:	00341b00 	eorseq	r1, r4, r0, lsl #22
     d00:	0b3a0803 	bleq	e82d14 <__bss_end__+0xe79514>
     d04:	0b390b3b 	bleq	e439f8 <__bss_end__+0xe3a1f8>
     d08:	18021349 	stmdane	r2, {r0, r3, r6, r8, r9, ip}
     d0c:	2e1c0000 	cdpcs	0, 1, cr0, cr12, cr0, {0}
     d10:	3c193f00 	ldccc	15, cr3, [r9], {-0}
     d14:	030e6e19 	movweq	r6, #60953	; 0xee19
     d18:	3b0b3a0e 	blcc	2cf558 <__bss_end__+0x2c5d58>
     d1c:	000b390b 	andeq	r3, fp, fp, lsl #18
     d20:	11010000 	mrsne	r0, (UNDEF: 1)
     d24:	130e2501 	movwne	r2, #58625	; 0xe501
     d28:	1b0e030b 	blne	38195c <__bss_end__+0x37815c>
     d2c:	1201110e 	andne	r1, r1, #-2147483645	; 0x80000003
     d30:	00171006 	andseq	r1, r7, r6
     d34:	00240200 	eoreq	r0, r4, r0, lsl #4
     d38:	0b3e0b0b 	bleq	f8396c <__bss_end__+0xf7a16c>
     d3c:	00000803 	andeq	r0, r0, r3, lsl #16
     d40:	0b002403 	bleq	9d54 <__bss_end__+0x554>
     d44:	030b3e0b 	movweq	r3, #48651	; 0xbe0b
     d48:	0400000e 	streq	r0, [r0], #-14
     d4c:	193f012e 	ldmdbne	pc!, {r1, r2, r3, r5, r8}	; <UNPREDICTABLE>
     d50:	0b3a0e03 	bleq	e84564 <__bss_end__+0xe7ad64>
     d54:	0b390b3b 	bleq	e43a48 <__bss_end__+0xe3a248>
     d58:	13491927 	movtne	r1, #39207	; 0x9927
     d5c:	06120111 			; <UNDEFINED> instruction: 0x06120111
     d60:	42971840 	addsmi	r1, r7, #64, 16	; 0x400000
     d64:	00130119 	andseq	r0, r3, r9, lsl r1
     d68:	00050500 	andeq	r0, r5, r0, lsl #10
     d6c:	0b3a0803 	bleq	e82d80 <__bss_end__+0xe79580>
     d70:	0b390b3b 	bleq	e43a64 <__bss_end__+0xe3a264>
     d74:	17021349 	strne	r1, [r2, -r9, asr #6]
     d78:	001742b7 			; <UNDEFINED> instruction: 0x001742b7
     d7c:	82890600 	addhi	r0, r9, #0, 12
     d80:	01110101 	tsteq	r1, r1, lsl #2
     d84:	00001331 	andeq	r1, r0, r1, lsr r3
     d88:	01828a07 	orreq	r8, r2, r7, lsl #20
     d8c:	91180200 	tstls	r8, r0, lsl #4
     d90:	00001842 	andeq	r1, r0, r2, asr #16
     d94:	3f002e08 	svccc	0x00002e08
     d98:	6e193c19 	mrcvs	12, 0, r3, cr9, cr9, {0}
     d9c:	3a0e030e 	bcc	3819dc <__bss_end__+0x3781dc>
     da0:	390b3b0b 	stmdbcc	fp, {r0, r1, r3, r8, r9, fp, ip, sp}
     da4:	0000000b 	andeq	r0, r0, fp
     da8:	25011101 	strcs	r1, [r1, #-257]	; 0xfffffeff
     dac:	030b130e 	movweq	r1, #45838	; 0xb30e
     db0:	110e1b0e 	tstne	lr, lr, lsl #22
     db4:	10061201 	andne	r1, r6, r1, lsl #4
     db8:	02000017 	andeq	r0, r0, #23, 0
     dbc:	0b0b0024 	bleq	2c0e54 <__bss_end__+0x2b7654>
     dc0:	08030b3e 	stmdaeq	r3, {r1, r2, r3, r4, r5, r8, r9, fp}
     dc4:	24030000 	strcs	r0, [r3], #-0
     dc8:	3e0b0b00 	vmlacc.f64	d0, d11, d0
     dcc:	000e030b 	andeq	r0, lr, fp, lsl #6
     dd0:	012e0400 			; <UNDEFINED> instruction: 0x012e0400
     dd4:	0e03193f 			; <UNDEFINED> instruction: 0x0e03193f
     dd8:	0b3b0b3a 	bleq	ec3ac8 <__bss_end__+0xeba2c8>
     ddc:	19270b39 	stmdbne	r7!, {r0, r3, r4, r5, r8, r9, fp}
     de0:	11190187 	tstne	r9, r7, lsl #3
     de4:	40061201 	andmi	r1, r6, r1, lsl #4
     de8:	19429718 	stmdbne	r2, {r3, r4, r8, r9, sl, ip, pc}^
     dec:	00001301 	andeq	r1, r0, r1, lsl #6
     df0:	01828905 	orreq	r8, r2, r5, lsl #18
     df4:	31011101 	tstcc	r1, r1, lsl #2
     df8:	00130113 	andseq	r0, r3, r3, lsl r1
     dfc:	828a0600 	addhi	r0, sl, #0, 12
     e00:	18020001 	stmdane	r2, {r0}
     e04:	00184291 	mulseq	r8, r1, r2
     e08:	82890700 	addhi	r0, r9, #0, 14
     e0c:	01110001 	tsteq	r1, r1
     e10:	00001331 	andeq	r1, r0, r1, lsr r3
     e14:	3f002e08 	svccc	0x00002e08
     e18:	6e193c19 	mrcvs	12, 0, r3, cr9, cr9, {0}
     e1c:	3a0e030e 	bcc	381a5c <__bss_end__+0x37825c>
     e20:	390b3b0b 	stmdbcc	fp, {r0, r1, r3, r8, r9, fp, ip, sp}
     e24:	0000000b 	andeq	r0, r0, fp
     e28:	25011101 	strcs	r1, [r1, #-257]	; 0xfffffeff
     e2c:	030b130e 	movweq	r1, #45838	; 0xb30e
     e30:	110e1b0e 	tstne	lr, lr, lsl #22
     e34:	10061201 	andne	r1, r6, r1, lsl #4
     e38:	02000017 	andeq	r0, r0, #23, 0
     e3c:	0b0b0024 	bleq	2c0ed4 <__bss_end__+0x2b76d4>
     e40:	08030b3e 	stmdaeq	r3, {r1, r2, r3, r4, r5, r8, r9, fp}
     e44:	24030000 	strcs	r0, [r3], #-0
     e48:	3e0b0b00 	vmlacc.f64	d0, d11, d0
     e4c:	000e030b 	andeq	r0, lr, fp, lsl #6
     e50:	012e0400 			; <UNDEFINED> instruction: 0x012e0400
     e54:	0e03193f 			; <UNDEFINED> instruction: 0x0e03193f
     e58:	0b3b0b3a 	bleq	ec3b48 <__bss_end__+0xeba348>
     e5c:	01110b39 	tsteq	r1, r9, lsr fp
     e60:	18400612 	stmdane	r0, {r1, r4, r9, sl}^
     e64:	01194297 			; <UNDEFINED> instruction: 0x01194297
     e68:	05000013 	streq	r0, [r0, #-19]	; 0xffffffed
     e6c:	0e030034 	mcreq	0, 0, r0, cr3, cr4, {1}
     e70:	0b3b0b3a 	bleq	ec3b60 <__bss_end__+0xeba360>
     e74:	13490b39 	movtne	r0, #39737	; 0x9b39
     e78:	193c193f 	ldmdbne	ip!, {r0, r1, r2, r3, r4, r5, r8, fp, ip}
     e7c:	2e060000 	cdpcs	0, 0, cr0, cr6, cr0, {0}
     e80:	03193f00 	tsteq	r9, #0, 30
     e84:	3b0b3a0e 	blcc	2cf6c4 <__bss_end__+0x2c5ec4>
     e88:	270b390b 	strcs	r3, [fp, -fp, lsl #18]
     e8c:	00193c19 	andseq	r3, r9, r9, lsl ip
     e90:	00340700 	eorseq	r0, r4, r0, lsl #14
     e94:	0b3a0803 	bleq	e82ea8 <__bss_end__+0xe796a8>
     e98:	0b390b3b 	bleq	e43b8c <__bss_end__+0xe3a38c>
     e9c:	17021349 	strne	r1, [r2, -r9, asr #6]
     ea0:	001742b7 			; <UNDEFINED> instruction: 0x001742b7
     ea4:	00340800 	eorseq	r0, r4, r0, lsl #16
     ea8:	0b3a0e03 	bleq	e846bc <__bss_end__+0xe7aebc>
     eac:	0b390b3b 	bleq	e43ba0 <__bss_end__+0xe3a3a0>
     eb0:	00001349 	andeq	r1, r0, r9, asr #6
     eb4:	11010b09 	tstne	r1, r9, lsl #22
     eb8:	01061201 	tsteq	r6, r1, lsl #4
     ebc:	0a000013 	beq	f10 <__code_start__-0x70f0>
     ec0:	08030034 	stmdaeq	r3, {r2, r4, r5}
     ec4:	0b3b0b3a 	bleq	ec3bb4 <__bss_end__+0xeba3b4>
     ec8:	13490b39 	movtne	r0, #39737	; 0x9b39
     ecc:	00000b1c 	andeq	r0, r0, ip, lsl fp
     ed0:	0182890b 	orreq	r8, r2, fp, lsl #18
     ed4:	31011100 	mrscc	r1, (UNDEF: 17)
     ed8:	0c000013 	stceq	0, cr0, [r0], {19}
     edc:	0b0b000f 	bleq	2c0f20 <__bss_end__+0x2b7720>
     ee0:	00001349 	andeq	r1, r0, r9, asr #6
     ee4:	3f002e0d 	svccc	0x00002e0d
     ee8:	6e193c19 	mrcvs	12, 0, r3, cr9, cr9, {0}
     eec:	3a0e030e 	bcc	381b2c <__bss_end__+0x37832c>
     ef0:	390b3b0b 	stmdbcc	fp, {r0, r1, r3, r8, r9, fp, ip, sp}
     ef4:	0000000b 	andeq	r0, r0, fp
     ef8:	25011101 	strcs	r1, [r1, #-257]	; 0xfffffeff
     efc:	030b130e 	movweq	r1, #45838	; 0xb30e
     f00:	550e1b0e 	strpl	r1, [lr, #-2830]	; 0xfffff4f2
     f04:	10011117 	andne	r1, r1, r7, lsl r1
     f08:	02000017 	andeq	r0, r0, #23, 0
     f0c:	0b0b0024 	bleq	2c0fa4 <__bss_end__+0x2b77a4>
     f10:	08030b3e 	stmdaeq	r3, {r1, r2, r3, r4, r5, r8, r9, fp}
     f14:	26030000 	strcs	r0, [r3], -r0
     f18:	00134900 	andseq	r4, r3, r0, lsl #18
     f1c:	00240400 	eoreq	r0, r4, r0, lsl #8
     f20:	0b3e0b0b 	bleq	f83b54 <__bss_end__+0xf7a354>
     f24:	00000e03 	andeq	r0, r0, r3, lsl #28
     f28:	03003405 	movweq	r3, #1029	; 0x405
     f2c:	3b0b3a0e 	blcc	2cf76c <__bss_end__+0x2c5f6c>
     f30:	490b390b 	stmdbmi	fp, {r0, r1, r3, r8, fp, ip, sp}
     f34:	06000013 			; <UNDEFINED> instruction: 0x06000013
     f38:	193f012e 	ldmdbne	pc!, {r1, r2, r3, r5, r8}	; <UNPREDICTABLE>
     f3c:	0b3a0e03 	bleq	e84750 <__bss_end__+0xe7af50>
     f40:	0b390b3b 	bleq	e43c34 <__bss_end__+0xe3a434>
     f44:	01871927 	orreq	r1, r7, r7, lsr #18
     f48:	12011119 	andne	r1, r1, #1073741830	; 0x40000006
     f4c:	97184006 	ldrls	r4, [r8, -r6]
     f50:	13011942 	movwne	r1, #6466	; 0x1942
     f54:	34070000 	strcc	r0, [r7], #-0
     f58:	3a0e0300 	bcc	381b60 <__bss_end__+0x378360>
     f5c:	390b3b0b 	stmdbcc	fp, {r0, r1, r3, r8, r9, fp, ip, sp}
     f60:	0213490b 	andseq	r4, r3, #180224	; 0x2c000
     f64:	1742b717 	smlaldne	fp, r2, r7, r7
     f68:	89080000 	stmdbhi	r8, {}	; <UNPREDICTABLE>
     f6c:	11000182 	smlabbne	r0, r2, r1, r0
     f70:	00133101 	andseq	r3, r3, r1, lsl #2
     f74:	82890900 	addhi	r0, r9, #0, 18
     f78:	01110101 	tsteq	r1, r1, lsl #2
     f7c:	13011331 	movwne	r1, #4913	; 0x1331
     f80:	8a0a0000 	bhi	280f88 <__bss_end__+0x277788>
     f84:	02000182 	andeq	r0, r0, #-2147483616	; 0x80000020
     f88:	18429118 	stmdane	r2, {r3, r4, r8, ip, pc}^
     f8c:	2e0b0000 	cdpcs	0, 0, cr0, cr11, cr0, {0}
     f90:	03193f01 	tsteq	r9, #1, 30
     f94:	3b0b3a0e 	blcc	2cf7d4 <__bss_end__+0x2c5fd4>
     f98:	270b390b 	strcs	r3, [fp, -fp, lsl #18]
     f9c:	12011119 	andne	r1, r1, #1073741830	; 0x40000006
     fa0:	97184006 	ldrls	r4, [r8, -r6]
     fa4:	13011942 	movwne	r1, #6466	; 0x1942
     fa8:	2e0c0000 	cdpcs	0, 0, cr0, cr12, cr0, {0}
     fac:	03193f01 	tsteq	r9, #1, 30
     fb0:	3b0b3a0e 	blcc	2cf7f0 <__bss_end__+0x2c5ff0>
     fb4:	270b390b 	strcs	r3, [fp, -fp, lsl #18]
     fb8:	11134919 	tstne	r3, r9, lsl r9
     fbc:	40061201 	andmi	r1, r6, r1, lsl #4
     fc0:	19429718 	stmdbne	r2, {r3, r4, r8, r9, sl, ip, pc}^
     fc4:	00001301 	andeq	r1, r0, r1, lsl #6
     fc8:	3f002e0d 	svccc	0x00002e0d
     fcc:	6e193c19 	mrcvs	12, 0, r3, cr9, cr9, {0}
     fd0:	3a0e030e 	bcc	381c10 <__bss_end__+0x378410>
     fd4:	390b3b0b 	stmdbcc	fp, {r0, r1, r3, r8, r9, fp, ip, sp}
     fd8:	0000000b 	andeq	r0, r0, fp
     fdc:	25011101 	strcs	r1, [r1, #-257]	; 0xfffffeff
     fe0:	030b130e 	movweq	r1, #45838	; 0xb30e
     fe4:	110e1b0e 	tstne	lr, lr, lsl #22
     fe8:	10061201 	andne	r1, r6, r1, lsl #4
     fec:	02000017 	andeq	r0, r0, #23, 0
     ff0:	0b0b0024 	bleq	2c1088 <__bss_end__+0x2b7888>
     ff4:	08030b3e 	stmdaeq	r3, {r1, r2, r3, r4, r5, r8, r9, fp}
     ff8:	24030000 	strcs	r0, [r3], #-0
     ffc:	3e0b0b00 	vmlacc.f64	d0, d11, d0
    1000:	000e030b 	andeq	r0, lr, fp, lsl #6
    1004:	012e0400 			; <UNDEFINED> instruction: 0x012e0400
    1008:	0e03193f 			; <UNDEFINED> instruction: 0x0e03193f
    100c:	0b3b0b3a 	bleq	ec3cfc <__bss_end__+0xeba4fc>
    1010:	19270b39 	stmdbne	r7!, {r0, r3, r4, r5, r8, r9, fp}
    1014:	06120111 			; <UNDEFINED> instruction: 0x06120111
    1018:	42971840 	addsmi	r1, r7, #64, 16	; 0x400000
    101c:	00130119 	andseq	r0, r3, r9, lsl r1
    1020:	00050500 	andeq	r0, r5, r0, lsl #10
    1024:	0b3a0803 	bleq	e83038 <__bss_end__+0xe79838>
    1028:	0b390b3b 	bleq	e43d1c <__bss_end__+0xe3a51c>
    102c:	17021349 	strne	r1, [r2, -r9, asr #6]
    1030:	001742b7 			; <UNDEFINED> instruction: 0x001742b7
    1034:	82890600 	addhi	r0, r9, #0, 12
    1038:	01110101 	tsteq	r1, r1, lsl #2
    103c:	00001331 	andeq	r1, r0, r1, lsr r3
    1040:	01828a07 	orreq	r8, r2, r7, lsl #20
    1044:	91180200 	tstls	r8, r0, lsl #4
    1048:	00001842 	andeq	r1, r0, r2, asr #16
    104c:	03003408 	movweq	r3, #1032	; 0x408
    1050:	3b0b3a08 	blcc	2cf878 <__bss_end__+0x2c6078>
    1054:	490b390b 	stmdbmi	fp, {r0, r1, r3, r8, fp, ip, sp}
    1058:	b7170213 			; <UNDEFINED> instruction: 0xb7170213
    105c:	00001742 	andeq	r1, r0, r2, asr #14
    1060:	11010b09 	tstne	r1, r9, lsl #22
    1064:	01061201 	tsteq	r6, r1, lsl #4
    1068:	0a000013 	beq	10bc <__code_start__-0x6f44>
    106c:	00018289 	andeq	r8, r1, r9, lsl #5
    1070:	13310111 	teqne	r1, #1073741828	; 0x40000004
    1074:	2e0b0000 	cdpcs	0, 0, cr0, cr11, cr0, {0}
    1078:	03193f01 	tsteq	r9, #1, 30
    107c:	3b0b3a0e 	blcc	2cf8bc <__bss_end__+0x2c60bc>
    1080:	270b390b 	strcs	r3, [fp, -fp, lsl #18]
    1084:	11134919 	tstne	r3, r9, lsl r9
    1088:	40061201 	andmi	r1, r6, r1, lsl #4
    108c:	19429718 	stmdbne	r2, {r3, r4, r8, r9, sl, ip, pc}^
    1090:	00001301 	andeq	r1, r0, r1, lsl #6
    1094:	3f002e0c 	svccc	0x00002e0c
    1098:	6e193c19 	mrcvs	12, 0, r3, cr9, cr9, {0}
    109c:	3a0e030e 	bcc	381cdc <__bss_end__+0x3784dc>
    10a0:	390b3b0b 	stmdbcc	fp, {r0, r1, r3, r8, r9, fp, ip, sp}
    10a4:	0000000b 	andeq	r0, r0, fp
    10a8:	25011101 	strcs	r1, [r1, #-257]	; 0xfffffeff
    10ac:	030b130e 	movweq	r1, #45838	; 0xb30e
    10b0:	110e1b0e 	tstne	lr, lr, lsl #22
    10b4:	10061201 	andne	r1, r6, r1, lsl #4
    10b8:	02000017 	andeq	r0, r0, #23, 0
    10bc:	0b0b0024 	bleq	2c1154 <__bss_end__+0x2b7954>
    10c0:	08030b3e 	stmdaeq	r3, {r1, r2, r3, r4, r5, r8, r9, fp}
    10c4:	24030000 	strcs	r0, [r3], #-0
    10c8:	3e0b0b00 	vmlacc.f64	d0, d11, d0
    10cc:	000e030b 	andeq	r0, lr, fp, lsl #6
    10d0:	00350400 	eorseq	r0, r5, r0, lsl #8
    10d4:	00001349 	andeq	r1, r0, r9, asr #6
    10d8:	03001605 	movweq	r1, #1541	; 0x605
    10dc:	3b0b3a0e 	blcc	2cf91c <__bss_end__+0x2c611c>
    10e0:	490b390b 	stmdbmi	fp, {r0, r1, r3, r8, fp, ip, sp}
    10e4:	06000013 			; <UNDEFINED> instruction: 0x06000013
    10e8:	0b3e0104 	bleq	f81500 <__bss_end__+0xf77d00>
    10ec:	13490b0b 	movtne	r0, #39691	; 0x9b0b
    10f0:	0b3b0b3a 	bleq	ec3de0 <__bss_end__+0xeba5e0>
    10f4:	13010b39 	movwne	r0, #6969	; 0x1b39
    10f8:	28070000 	stmdacs	r7, {}	; <UNPREDICTABLE>
    10fc:	1c0e0300 	stcne	3, cr0, [lr], {-0}
    1100:	0800000b 	stmdaeq	r0, {r0, r1, r3}
    1104:	0e030113 	mcreq	1, 0, r0, cr3, cr3, {0}
    1108:	0b3a0b0b 	bleq	e83d3c <__bss_end__+0xe7a53c>
    110c:	0b390b3b 	bleq	e43e00 <__bss_end__+0xe3a600>
    1110:	00001301 	andeq	r1, r0, r1, lsl #6
    1114:	03000d09 	movweq	r0, #3337	; 0xd09
    1118:	3b0b3a08 	blcc	2cf940 <__bss_end__+0x2c6140>
    111c:	490b390b 	stmdbmi	fp, {r0, r1, r3, r8, fp, ip, sp}
    1120:	000b3813 	andeq	r3, fp, r3, lsl r8
    1124:	000d0a00 	andeq	r0, sp, r0, lsl #20
    1128:	0b3a0e03 	bleq	e8493c <__bss_end__+0xe7b13c>
    112c:	0b390b3b 	bleq	e43e20 <__bss_end__+0xe3a620>
    1130:	0b381349 	bleq	e05e5c <__bss_end__+0xdfc65c>
    1134:	340b0000 	strcc	r0, [fp], #-0
    1138:	3a0e0300 	bcc	381d40 <__bss_end__+0x378540>
    113c:	390b3b0b 	stmdbcc	fp, {r0, r1, r3, r8, r9, fp, ip, sp}
    1140:	1c13490b 			; <UNDEFINED> instruction: 0x1c13490b
    1144:	0c000006 	stceq	0, cr0, [r0], {6}
    1148:	0b0b000f 	bleq	2c118c <__bss_end__+0x2b798c>
    114c:	00001349 	andeq	r1, r0, r9, asr #6
    1150:	4900260d 	stmdbmi	r0, {r0, r2, r3, r9, sl, sp}
    1154:	0e000013 	mcreq	0, 0, r0, cr0, cr3, {0}
    1158:	193f012e 	ldmdbne	pc!, {r1, r2, r3, r5, r8}	; <UNPREDICTABLE>
    115c:	0b3a0e03 	bleq	e84970 <__bss_end__+0xe7b170>
    1160:	0b390b3b 	bleq	e43e54 <__bss_end__+0xe3a654>
    1164:	01111927 	tsteq	r1, r7, lsr #18
    1168:	18400612 	stmdane	r0, {r1, r4, r9, sl}^
    116c:	01194297 			; <UNDEFINED> instruction: 0x01194297
    1170:	0f000013 	svceq	0x00000013
    1174:	00018289 	andeq	r8, r1, r9, lsl #5
    1178:	13310111 	teqne	r1, #1073741828	; 0x40000004
    117c:	2e100000 	cdpcs	0, 1, cr0, cr0, cr0, {0}
    1180:	03193f01 	tsteq	r9, #1, 30
    1184:	3b0b3a0e 	blcc	2cf9c4 <__bss_end__+0x2c61c4>
    1188:	270b390b 	strcs	r3, [fp, -fp, lsl #18]
    118c:	11134919 	tstne	r3, r9, lsl r9
    1190:	40061201 	andmi	r1, r6, r1, lsl #4
    1194:	19429718 	stmdbne	r2, {r3, r4, r8, r9, sl, ip, pc}^
    1198:	00001301 	andeq	r1, r0, r1, lsl #6
    119c:	01828911 	orreq	r8, r2, r1, lsl r9
    11a0:	31011101 	tstcc	r1, r1, lsl #2
    11a4:	12000013 	andne	r0, r0, #19, 0
    11a8:	0001828a 	andeq	r8, r1, sl, lsl #5
    11ac:	42911802 	addsmi	r1, r1, #131072	; 0x20000
    11b0:	13000018 	movwne	r0, #24
    11b4:	08030005 	stmdaeq	r3, {r0, r2}
    11b8:	0b3b0b3a 	bleq	ec3ea8 <__bss_end__+0xeba6a8>
    11bc:	13490b39 	movtne	r0, #39737	; 0x9b39
    11c0:	42b71702 	adcsmi	r1, r7, #524288	; 0x80000
    11c4:	14000017 	strne	r0, [r0], #-23	; 0xffffffe9
    11c8:	01018289 	smlabbeq	r1, r9, r2, r8
    11cc:	13310111 	teqne	r1, #1073741828	; 0x40000004
    11d0:	00001301 	andeq	r1, r0, r1, lsl #6
    11d4:	03003415 	movweq	r3, #1045	; 0x415
    11d8:	3b0b3a08 	blcc	2cfa00 <__bss_end__+0x2c6200>
    11dc:	490b390b 	stmdbmi	fp, {r0, r1, r3, r8, fp, ip, sp}
    11e0:	b7170213 			; <UNDEFINED> instruction: 0xb7170213
    11e4:	00001742 	andeq	r1, r0, r2, asr #14
    11e8:	03003416 	movweq	r3, #1046	; 0x416
    11ec:	3b0b3a0e 	blcc	2cfa2c <__bss_end__+0x2c622c>
    11f0:	490b390b 	stmdbmi	fp, {r0, r1, r3, r8, fp, ip, sp}
    11f4:	00051c13 	andeq	r1, r5, r3, lsl ip
    11f8:	012e1700 			; <UNDEFINED> instruction: 0x012e1700
    11fc:	0b3a0e03 	bleq	e84a10 <__bss_end__+0xe7b210>
    1200:	0b390b3b 	bleq	e43ef4 <__bss_end__+0xe3a6f4>
    1204:	01111927 	tsteq	r1, r7, lsr #18
    1208:	18400612 	stmdane	r0, {r1, r4, r9, sl}^
    120c:	01194297 			; <UNDEFINED> instruction: 0x01194297
    1210:	18000013 	stmdane	r0, {r0, r1, r4}
    1214:	0e030005 	cdpeq	0, 0, cr0, cr3, cr5, {0}
    1218:	0b3b0b3a 	bleq	ec3f08 <__bss_end__+0xeba708>
    121c:	13490b39 	movtne	r0, #39737	; 0x9b39
    1220:	42b71702 	adcsmi	r1, r7, #524288	; 0x80000
    1224:	19000017 	stmdbne	r0, {r0, r1, r2, r4}
    1228:	00000035 	andeq	r0, r0, r5, lsr r0
    122c:	3f002e1a 	svccc	0x00002e1a
    1230:	6e193c19 	mrcvs	12, 0, r3, cr9, cr9, {0}
    1234:	3a0e030e 	bcc	381e74 <__bss_end__+0x378674>
    1238:	390b3b0b 	stmdbcc	fp, {r0, r1, r3, r8, r9, fp, ip, sp}
    123c:	0000000b 	andeq	r0, r0, fp
    1240:	25011101 	strcs	r1, [r1, #-257]	; 0xfffffeff
    1244:	030b130e 	movweq	r1, #45838	; 0xb30e
    1248:	110e1b0e 	tstne	lr, lr, lsl #22
    124c:	10061201 	andne	r1, r6, r1, lsl #4
    1250:	02000017 	andeq	r0, r0, #23, 0
    1254:	0b0b0024 	bleq	2c12ec <__bss_end__+0x2b7aec>
    1258:	08030b3e 	stmdaeq	r3, {r1, r2, r3, r4, r5, r8, r9, fp}
    125c:	24030000 	strcs	r0, [r3], #-0
    1260:	3e0b0b00 	vmlacc.f64	d0, d11, d0
    1264:	000e030b 	andeq	r0, lr, fp, lsl #6
    1268:	00160400 	andseq	r0, r6, r0, lsl #8
    126c:	0b3a0e03 	bleq	e84a80 <__bss_end__+0xe7b280>
    1270:	0b390b3b 	bleq	e43f64 <__bss_end__+0xe3a764>
    1274:	00001349 	andeq	r1, r0, r9, asr #6
    1278:	3e010405 	cdpcc	4, 0, cr0, cr1, cr5, {0}
    127c:	490b0b0b 	stmdbmi	fp, {r0, r1, r3, r8, r9, fp}
    1280:	3b0b3a13 	blcc	2cfad4 <__bss_end__+0x2c62d4>
    1284:	010b390b 	tsteq	fp, fp, lsl #18
    1288:	06000013 			; <UNDEFINED> instruction: 0x06000013
    128c:	0e030028 	cdpeq	0, 0, cr0, cr3, cr8, {1}
    1290:	00000b1c 	andeq	r0, r0, ip, lsl fp
    1294:	03002807 	movweq	r2, #2055	; 0x807
    1298:	00061c0e 	andeq	r1, r6, lr, lsl #24
    129c:	012e0800 			; <UNDEFINED> instruction: 0x012e0800
    12a0:	0e03193f 			; <UNDEFINED> instruction: 0x0e03193f
    12a4:	0b3b0b3a 	bleq	ec3f94 <__bss_end__+0xeba794>
    12a8:	19270b39 	stmdbne	r7!, {r0, r3, r4, r5, r8, r9, fp}
    12ac:	06120111 			; <UNDEFINED> instruction: 0x06120111
    12b0:	42971840 	addsmi	r1, r7, #64, 16	; 0x400000
    12b4:	00130119 	andseq	r0, r3, r9, lsl r1
    12b8:	00050900 	andeq	r0, r5, r0, lsl #18
    12bc:	0b3a0803 	bleq	e832d0 <__bss_end__+0xe79ad0>
    12c0:	0b390b3b 	bleq	e43fb4 <__bss_end__+0xe3a7b4>
    12c4:	17021349 	strne	r1, [r2, -r9, asr #6]
    12c8:	001742b7 			; <UNDEFINED> instruction: 0x001742b7
    12cc:	00050a00 	andeq	r0, r5, r0, lsl #20
    12d0:	0b3a0e03 	bleq	e84ae4 <__bss_end__+0xe7b2e4>
    12d4:	0b390b3b 	bleq	e43fc8 <__bss_end__+0xe3a7c8>
    12d8:	17021349 	strne	r1, [r2, -r9, asr #6]
    12dc:	001742b7 			; <UNDEFINED> instruction: 0x001742b7
    12e0:	00340b00 	eorseq	r0, r4, r0, lsl #22
    12e4:	0b3a0e03 	bleq	e84af8 <__bss_end__+0xe7b2f8>
    12e8:	0b390b3b 	bleq	e43fdc <__bss_end__+0xe3a7dc>
    12ec:	17021349 	strne	r1, [r2, -r9, asr #6]
    12f0:	001742b7 			; <UNDEFINED> instruction: 0x001742b7
    12f4:	82890c00 	addhi	r0, r9, #0, 24
    12f8:	01110101 	tsteq	r1, r1, lsl #2
    12fc:	13011331 	movwne	r1, #4913	; 0x1331
    1300:	8a0d0000 	bhi	341308 <__bss_end__+0x337b08>
    1304:	02000182 	andeq	r0, r0, #-2147483616	; 0x80000020
    1308:	18429118 	stmdane	r2, {r3, r4, r8, ip, pc}^
    130c:	890e0000 	stmdbhi	lr, {}	; <UNPREDICTABLE>
    1310:	11010182 	smlabbne	r1, r2, r1, r0
    1314:	00133101 	andseq	r3, r3, r1, lsl #2
    1318:	012e0f00 			; <UNDEFINED> instruction: 0x012e0f00
    131c:	0e03193f 			; <UNDEFINED> instruction: 0x0e03193f
    1320:	0b3b0b3a 	bleq	ec4010 <__bss_end__+0xeba810>
    1324:	19270b39 	stmdbne	r7!, {r0, r3, r4, r5, r8, r9, fp}
    1328:	01111349 	tsteq	r1, r9, asr #6
    132c:	18400612 	stmdane	r0, {r1, r4, r9, sl}^
    1330:	01194297 			; <UNDEFINED> instruction: 0x01194297
    1334:	10000013 	andne	r0, r0, r3, lsl r0
    1338:	00018289 	andeq	r8, r1, r9, lsl #5
    133c:	13310111 	teqne	r1, #1073741828	; 0x40000004
    1340:	2e110000 	cdpcs	0, 1, cr0, cr1, cr0, {0}
    1344:	3a0e0301 	bcc	381f50 <__bss_end__+0x378750>
    1348:	390b3b0b 	stmdbcc	fp, {r0, r1, r3, r8, r9, fp, ip, sp}
    134c:	4919270b 	ldmdbmi	r9, {r0, r1, r3, r8, r9, sl, sp}
    1350:	010b2013 	tsteq	fp, r3, lsl r0
    1354:	12000013 	andne	r0, r0, #19, 0
    1358:	08030005 	stmdaeq	r3, {r0, r2}
    135c:	0b3b0b3a 	bleq	ec404c <__bss_end__+0xeba84c>
    1360:	13490b39 	movtne	r0, #39737	; 0x9b39
    1364:	2e130000 	cdpcs	0, 1, cr0, cr3, cr0, {0}
    1368:	3c193f00 	ldccc	15, cr3, [r9], {-0}
    136c:	030e6e19 	movweq	r6, #60953	; 0xee19
    1370:	3b0b3a0e 	blcc	2cfbb0 <__bss_end__+0x2c63b0>
    1374:	000b390b 	andeq	r3, fp, fp, lsl #18
    1378:	11010000 	mrsne	r0, (UNDEF: 1)
    137c:	130e2501 	movwne	r2, #58625	; 0xe501
    1380:	1b0e030b 	blne	381fb4 <__bss_end__+0x3787b4>
    1384:	1201110e 	andne	r1, r1, #-2147483645	; 0x80000003
    1388:	00171006 	andseq	r1, r7, r6
    138c:	00240200 	eoreq	r0, r4, r0, lsl #4
    1390:	0b3e0b0b 	bleq	f83fc4 <__bss_end__+0xf7a7c4>
    1394:	00000803 	andeq	r0, r0, r3, lsl #16
    1398:	0b002403 	bleq	a3ac <__bss_end__+0xbac>
    139c:	030b3e0b 	movweq	r3, #48651	; 0xbe0b
    13a0:	0400000e 	streq	r0, [r0], #-14
    13a4:	193f012e 	ldmdbne	pc!, {r1, r2, r3, r5, r8}	; <UNPREDICTABLE>
    13a8:	0b3a0e03 	bleq	e84bbc <__bss_end__+0xe7b3bc>
    13ac:	0b390b3b 	bleq	e440a0 <__bss_end__+0xe3a8a0>
    13b0:	13491927 	movtne	r1, #39207	; 0x9927
    13b4:	06120111 			; <UNDEFINED> instruction: 0x06120111
    13b8:	42971840 	addsmi	r1, r7, #64, 16	; 0x400000
    13bc:	00130119 	andseq	r0, r3, r9, lsl r1
    13c0:	00050500 	andeq	r0, r5, r0, lsl #10
    13c4:	0b3a0803 	bleq	e833d8 <__bss_end__+0xe79bd8>
    13c8:	0b390b3b 	bleq	e440bc <__bss_end__+0xe3a8bc>
    13cc:	17021349 	strne	r1, [r2, -r9, asr #6]
    13d0:	001742b7 			; <UNDEFINED> instruction: 0x001742b7
    13d4:	82890600 	addhi	r0, r9, #0, 12
    13d8:	01110001 	tsteq	r1, r1
    13dc:	00001331 	andeq	r1, r0, r1, lsr r3
    13e0:	0b000f07 	bleq	5004 <__code_start__-0x2ffc>
    13e4:	0013490b 	andseq	r4, r3, fp, lsl #18
    13e8:	00260800 	eoreq	r0, r6, r0, lsl #16
    13ec:	00001349 	andeq	r1, r0, r9, asr #6
    13f0:	3f002e09 	svccc	0x00002e09
    13f4:	6e193c19 	mrcvs	12, 0, r3, cr9, cr9, {0}
    13f8:	3a0e030e 	bcc	382038 <__bss_end__+0x378838>
    13fc:	390b3b0b 	stmdbcc	fp, {r0, r1, r3, r8, r9, fp, ip, sp}
    1400:	0000000b 	andeq	r0, r0, fp

Disassembly of section .debug_loc:

00000000 <.debug_loc>:
       0:	00000001 	andeq	r0, r0, r1
       4:	000001bc 			; <UNDEFINED> instruction: 0x000001bc
       8:	000001c4 	andeq	r0, r0, r4, asr #3
       c:	9f300002 	svcls	0x00300002
      10:	000001c4 	andeq	r0, r0, r4, asr #3
      14:	00000240 	andeq	r0, r0, r0, asr #4
      18:	00540001 	subseq	r0, r4, r1
	...
      24:	fc000000 	stc2	0, cr0, [r0], {-0}
      28:	07000000 	streq	r0, [r0, -r0]
      2c:	01000001 	tsteq	r0, r1
      30:	01075000 	mrseq	r5, (UNDEF: 7)
      34:	01680000 	cmneq	r8, r0
      38:	00010000 	andeq	r0, r1, r0
      3c:	00000054 	andeq	r0, r0, r4, asr r0
      40:	00000000 	andeq	r0, r0, r0
      44:	10000000 	andne	r0, r0, r0
      48:	20000001 	andcs	r0, r0, r1
      4c:	01000001 	tsteq	r0, r1
      50:	00005000 	andeq	r5, r0, r0
	...
      5c:	00000140 	andeq	r0, r0, r0, asr #2
      60:	00000168 	andeq	r0, r0, r8, ror #2
      64:	00500001 	subseq	r0, r0, r1
	...
      70:	90000000 	andls	r0, r0, r0
      74:	9b000000 	blls	7c <__code_start__-0x7f84>
      78:	01000000 	mrseq	r0, (UNDEF: 0)
      7c:	009b5000 	addseq	r5, fp, r0
      80:	00fc0000 	rscseq	r0, ip, r0
      84:	00010000 	andeq	r0, r1, r0
      88:	00000055 	andeq	r0, r0, r5, asr r0
      8c:	00000000 	andeq	r0, r0, r0
      90:	00000200 	andeq	r0, r0, r0, lsl #4
      94:	00009c00 	andeq	r9, r0, r0, lsl #24
      98:	0000a400 	andeq	sl, r0, r0, lsl #8
      9c:	30000200 	andcc	r0, r0, r0, lsl #4
      a0:	0000a49f 	muleq	r0, pc, r4	; <UNPREDICTABLE>
      a4:	0000fc00 	andeq	pc, r0, r0, lsl #24
      a8:	54000100 	strpl	r0, [r0], #-256	; 0xffffff00
	...
      bc:	00000008 	andeq	r0, r0, r8
      c0:	0c500001 	mrrceq	0, 0, r0, r0, cr1	; <UNPREDICTABLE>
      c4:	2c000000 	stccs	0, cr0, [r0], {-0}
      c8:	04000000 	streq	r0, [r0], #-0
      cc:	5001f300 	andpl	pc, r1, r0, lsl #6
      d0:	0000009f 	muleq	r0, pc, r0	; <UNPREDICTABLE>
      d4:	00000000 	andeq	r0, r0, r0
      d8:	00000200 	andeq	r0, r0, r0, lsl #4
      dc:	00005800 	andeq	r5, r0, r0, lsl #16
      e0:	00005c00 	andeq	r5, r0, r0, lsl #24
      e4:	30000200 	andcc	r0, r0, r0, lsl #4
      e8:	00005c9f 	muleq	r0, pc, ip	; <UNPREDICTABLE>
      ec:	00007c00 	andeq	r7, r0, r0, lsl #24
      f0:	53000100 	movwpl	r0, #256	; 0x100
	...
     100:	01900000 	orrseq	r0, r0, r0
     104:	01b40000 			; <UNDEFINED> instruction: 0x01b40000
     108:	00010000 	andeq	r0, r1, r0
     10c:	0001b450 	andeq	fp, r1, r0, asr r4
     110:	0001b700 	andeq	fp, r1, r0, lsl #14
     114:	91000200 	mrsls	r0, R8_usr
     118:	0001b76c 	andeq	fp, r1, ip, ror #14
     11c:	0001cc00 	andeq	ip, r1, r0, lsl #24
     120:	f3000400 	vshl.u8	d0, d0, d0
     124:	009f5001 	addseq	r5, pc, r1
	...
     134:	00015400 	andeq	r5, r1, r0, lsl #8
     138:	00017800 	andeq	r7, r1, r0, lsl #16
     13c:	50000100 	andpl	r0, r0, r0, lsl #2
     140:	00000178 	andeq	r0, r0, r8, ror r1
     144:	0000017b 	andeq	r0, r0, fp, ror r1
     148:	6c910002 	ldcvs	0, cr0, [r1], {2}
     14c:	0000017b 	andeq	r0, r0, fp, ror r1
     150:	00000190 	muleq	r0, r0, r1
     154:	01f30004 	mvnseq	r0, r4
     158:	00009f50 	andeq	r9, r0, r0, asr pc
	...
     168:	00000118 	andeq	r0, r0, r8, lsl r1
     16c:	0000013c 	andeq	r0, r0, ip, lsr r1
     170:	3c500001 	mrrccc	0, 0, r0, r0, cr1	; <UNPREDICTABLE>
     174:	3f000001 	svccc	0x00000001
     178:	02000001 	andeq	r0, r0, #1, 0
     17c:	3f6c9100 	svccc	0x006c9100
     180:	54000001 	strpl	r0, [r0], #-1
     184:	04000001 	streq	r0, [r0], #-1
     188:	5001f300 	andpl	pc, r1, r0, lsl #6
     18c:	0000009f 	muleq	r0, pc, r0	; <UNPREDICTABLE>
	...
     198:	dc000000 	stcle	0, cr0, [r0], {-0}
     19c:	00000000 	andeq	r0, r0, r0
     1a0:	01000001 	tsteq	r0, r1
     1a4:	01005000 	mrseq	r5, (UNDEF: 0)
     1a8:	01030000 	mrseq	r0, (UNDEF: 3)
     1ac:	00020000 	andeq	r0, r2, r0
     1b0:	01036c91 			; <UNDEFINED> instruction: 0x01036c91
     1b4:	01180000 	tsteq	r8, r0
     1b8:	00040000 	andeq	r0, r4, r0
     1bc:	9f5001f3 	svcls	0x005001f3
	...
     1cc:	00a00000 	adceq	r0, r0, r0
     1d0:	00c40000 	sbceq	r0, r4, r0
     1d4:	00010000 	andeq	r0, r1, r0
     1d8:	0000c450 	andeq	ip, r0, r0, asr r4
     1dc:	0000c700 	andeq	ip, r0, r0, lsl #14
     1e0:	91000200 	mrsls	r0, R8_usr
     1e4:	0000c76c 	andeq	ip, r0, ip, ror #14
     1e8:	0000dc00 	andeq	sp, r0, r0, lsl #24
     1ec:	f3000400 	vshl.u8	d0, d0, d0
     1f0:	009f5001 	addseq	r5, pc, r1
	...
     200:	00006400 	andeq	r6, r0, r0, lsl #8
     204:	00008800 	andeq	r8, r0, r0, lsl #16
     208:	50000100 	andpl	r0, r0, r0, lsl #2
     20c:	00000088 	andeq	r0, r0, r8, lsl #1
     210:	0000008b 	andeq	r0, r0, fp, lsl #1
     214:	6c910002 	ldcvs	0, cr0, [r1], {2}
     218:	0000008b 	andeq	r0, r0, fp, lsl #1
     21c:	000000a0 	andeq	r0, r0, r0, lsr #1
     220:	01f30004 	mvnseq	r0, r4
     224:	00009f50 	andeq	r9, r0, r0, asr pc
	...
     230:	00000030 	andeq	r0, r0, r0, lsr r0
     234:	00000064 	andeq	r0, r0, r4, rrx
     238:	00500001 	subseq	r0, r0, r1
     23c:	00000000 	andeq	r0, r0, r0
     240:	02000000 	andeq	r0, r0, #0, 0
     244:	30000000 	andcc	r0, r0, r0
     248:	34000000 	strcc	r0, [r0], #-0
     24c:	02000000 	andeq	r0, r0, #0, 0
     250:	349f3000 	ldrcc	r3, [pc], #0	; 258 <__code_start__-0x7da8>
     254:	64000000 	strvs	r0, [r0], #-0
     258:	01000000 	mrseq	r0, (UNDEF: 0)
     25c:	00005300 	andeq	r5, r0, r0, lsl #6
     260:	00000000 	andeq	r0, r0, r0
     264:	1d150000 	ldcne	0, cr0, [r5, #-0]
     268:	0008001d 	andeq	r0, r8, sp, lsl r0
     26c:	00080000 	andeq	r0, r8, r0
     270:	00020000 	andeq	r0, r2, r0
     274:	00089f34 	andeq	r9, r8, r4, lsr pc
     278:	001c0000 	andseq	r0, ip, r0
     27c:	00020000 	andeq	r0, r2, r0
     280:	00009f3c 	andeq	r9, r0, ip, lsr pc
     284:	00000000 	andeq	r0, r0, r0
     288:	655d0000 	ldrbvs	r0, [sp, #-0]
     28c:	00080065 	andeq	r0, r8, r5, rrx
     290:	00080000 	andeq	r0, r8, r0
     294:	00040000 	andeq	r0, r4, r0
     298:	9f243c40 	svcls	0x00243c40
     29c:	00000008 	andeq	r0, r0, r8
     2a0:	0000001c 	andeq	r0, r0, ip, lsl r0
     2a4:	fe080005 	cdp2	0, 0, cr0, cr8, cr5, {0}
     2a8:	009f243f 	addseq	r2, pc, pc, lsr r4	; <UNPREDICTABLE>
	...
     2b4:	1c000000 	stcne	0, cr0, [r0], {-0}
     2b8:	27000000 	strcs	r0, [r0, -r0]
     2bc:	01000000 	mrseq	r0, (UNDEF: 0)
     2c0:	00275000 	eoreq	r5, r7, r0
     2c4:	005c0000 	subseq	r0, ip, r0
     2c8:	00010000 	andeq	r0, r1, r0
     2cc:	00000054 	andeq	r0, r0, r4, asr r0
	...
     2d8:	94000000 	strls	r0, [r0], #-0
     2dc:	dc000003 	stcle	0, cr0, [r0], {3}
     2e0:	01000003 	tsteq	r0, r3
     2e4:	03dc5000 	bicseq	r5, ip, #0, 0
     2e8:	03df0000 	bicseq	r0, pc, #0, 0
     2ec:	00020000 	andeq	r0, r2, r0
     2f0:	03df6891 	bicseq	r6, pc, #9502720	; 0x910000
     2f4:	03f40000 	mvnseq	r0, #0, 0
     2f8:	00040000 	andeq	r0, r4, r0
     2fc:	9f5001f3 	svcls	0x005001f3
	...
     31c:	0000025c 	andeq	r0, r0, ip, asr r2
     320:	000002b7 			; <UNDEFINED> instruction: 0x000002b7
     324:	b7500001 	ldrblt	r0, [r0, -r1]
     328:	c0000002 	andgt	r0, r0, r2
     32c:	04000002 	streq	r0, [r0], #-2
     330:	5001f300 	andpl	pc, r1, r0, lsl #6
     334:	0002c09f 	muleq	r2, pc, r0	; <UNPREDICTABLE>
     338:	0002d800 	andeq	sp, r2, r0, lsl #16
     33c:	50000100 	andpl	r0, r0, r0, lsl #2
     340:	000002d8 	ldrdeq	r0, [r0], -r8
     344:	000002e0 	andeq	r0, r0, r0, ror #5
     348:	01f30004 	mvnseq	r0, r4
     34c:	02e09f50 	rsceq	r9, r0, #80, 30	; 0x140
     350:	03000000 	movweq	r0, #0
     354:	00010000 	andeq	r0, r1, r0
     358:	00030050 	andeq	r0, r3, r0, asr r0
     35c:	00030800 	andeq	r0, r3, r0, lsl #16
     360:	f3000400 	vshl.u8	d0, d0, d0
     364:	089f5001 	ldmeq	pc, {r0, ip, lr}	; <UNPREDICTABLE>
     368:	20000003 	andcs	r0, r0, r3
     36c:	01000003 	tsteq	r0, r3
     370:	03205000 	nopeq	{0}	; <UNPREDICTABLE>
     374:	03280000 			; <UNDEFINED> instruction: 0x03280000
     378:	00040000 	andeq	r0, r4, r0
     37c:	9f5001f3 	svcls	0x005001f3
     380:	00000328 	andeq	r0, r0, r8, lsr #6
     384:	00000348 	andeq	r0, r0, r8, asr #6
     388:	48500001 	ldmdami	r0, {r0}^
     38c:	80000003 	andhi	r0, r0, r3
     390:	04000003 	streq	r0, [r0], #-3
     394:	5001f300 	andpl	pc, r1, r0, lsl #6
     398:	0000009f 	muleq	r0, pc, r0	; <UNPREDICTABLE>
	...
     3b4:	00025c00 	andeq	r5, r2, r0, lsl #24
     3b8:	00028000 	andeq	r8, r2, r0
     3bc:	51000100 	mrspl	r0, (UNDEF: 16)
     3c0:	00000280 	andeq	r0, r0, r0, lsl #5
     3c4:	000002a4 	andeq	r0, r0, r4, lsr #5
     3c8:	a4510001 	ldrbge	r0, [r1], #-1
     3cc:	b7000002 	strlt	r0, [r0, -r2]
     3d0:	03000002 	movweq	r0, #2
     3d4:	9f017100 	svcls	0x00017100
     3d8:	000002b7 			; <UNDEFINED> instruction: 0x000002b7
     3dc:	000002c0 	andeq	r0, r0, r0, asr #5
     3e0:	f3380017 	vqadd.u64	d0, d8, d7
     3e4:	01f35101 	mvnseq	r5, r1, lsl #2
     3e8:	244b4051 	strbcs	r4, [fp], #-81	; 0xffffffaf
     3ec:	00080c22 	andeq	r0, r8, r2, lsr #24
     3f0:	282d8000 	stmdacs	sp!, {pc}
     3f4:	13160001 	tstne	r6, #1, 0
     3f8:	0002c09f 	muleq	r2, pc, r0	; <UNPREDICTABLE>
     3fc:	0002d400 	andeq	sp, r2, r0, lsl #8
     400:	51000100 	mrspl	r0, (UNDEF: 16)
     404:	000002d4 	ldrdeq	r0, [r0], -r4
     408:	000002e0 	andeq	r0, r0, r0, ror #5
     40c:	01f30004 	mvnseq	r0, r4
     410:	02e09f51 	rsceq	r9, r0, #324	; 0x144
     414:	02fc0000 	rscseq	r0, ip, #0, 0
     418:	00010000 	andeq	r0, r1, r0
     41c:	0002fc51 	andeq	pc, r2, r1, asr ip	; <UNPREDICTABLE>
     420:	00030800 	andeq	r0, r3, r0, lsl #16
     424:	f3000400 	vshl.u8	d0, d0, d0
     428:	089f5101 	ldmeq	pc, {r0, r8, ip, lr}	; <UNPREDICTABLE>
     42c:	1c000003 	stcne	0, cr0, [r0], {3}
     430:	01000003 	tsteq	r0, r3
     434:	031c5100 	tsteq	ip, #0
     438:	03800000 	orreq	r0, r0, #0, 0
     43c:	00170000 	andseq	r0, r7, r0
     440:	5101f338 	tstpl	r1, r8, lsr r3	; <UNPREDICTABLE>
     444:	405101f3 	ldrshmi	r0, [r1], #-19	; 0xffffffed
     448:	0c22244b 	cfstrseq	mvf2, [r2], #-300	; 0xfffffed4
     44c:	80000008 	andhi	r0, r0, r8
     450:	0001282d 	andeq	r2, r1, sp, lsr #16
     454:	009f1316 	addseq	r1, pc, r6, lsl r3	; <UNPREDICTABLE>
	...
     46c:	88000000 	stmdahi	r0, {}	; <UNPREDICTABLE>
     470:	98000002 	stmdals	r0, {r1}
     474:	01000002 	tsteq	r0, r2
     478:	02985200 	addseq	r5, r8, #0, 4
     47c:	02a00000 	adceq	r0, r0, #0, 0
     480:	00050000 	andeq	r0, r5, r0
     484:	0097d803 	addseq	sp, r7, r3, lsl #16
     488:	0002a000 	andeq	sl, r2, r0
     48c:	0002b700 	andeq	fp, r2, r0, lsl #14
     490:	53000100 	movwpl	r0, #256	; 0x100
     494:	00000308 	andeq	r0, r0, r8, lsl #6
     498:	00000318 	andeq	r0, r0, r8, lsl r3
     49c:	18520001 	ldmdane	r2, {r0}^
     4a0:	23000003 	movwcs	r0, #3
     4a4:	05000003 	streq	r0, [r0, #-3]
     4a8:	97d80300 	ldrbls	r0, [r8, r0, lsl #6]
     4ac:	03280000 			; <UNDEFINED> instruction: 0x03280000
     4b0:	032c0000 			; <UNDEFINED> instruction: 0x032c0000
     4b4:	00010000 	andeq	r0, r1, r0
     4b8:	00032c53 	andeq	r2, r3, r3, asr ip
     4bc:	00034000 	andeq	r4, r3, r0
     4c0:	38001b00 	stmdacc	r0, {r8, r9, fp, ip}
     4c4:	f35101f3 	vbsl	q8, <illegal reg q8.5>, <illegal reg q9.5>
     4c8:	4b405101 	blmi	10148d4 <__bss_end__+0x100b0d4>
     4cc:	080c2224 	stmdaeq	ip, {r2, r5, r9, sp}
     4d0:	2d800000 	stccs	0, cr0, [r0]
     4d4:	16000128 	strne	r0, [r0], -r8, lsr #2
     4d8:	00721f13 	rsbseq	r1, r2, r3, lsl pc
     4dc:	03409f1a 	movteq	r9, #3866	; 0xf1a
     4e0:	034b0000 	movteq	r0, #45056	; 0xb000
     4e4:	00380000 	eorseq	r0, r8, r0
     4e8:	5101f338 	tstpl	r1, r8, lsr r3	; <UNPREDICTABLE>
     4ec:	405101f3 	ldrshmi	r0, [r1], #-19	; 0xffffffed
     4f0:	0c22244b 	cfstrseq	mvf2, [r2], #-300	; 0xfffffed4
     4f4:	80000008 	andhi	r0, r0, r8
     4f8:	0001282d 	andeq	r2, r1, sp, lsr #16
     4fc:	d8031316 	stmdale	r3, {r1, r2, r4, r8, r9, ip}
     500:	06000097 			; <UNDEFINED> instruction: 0x06000097
     504:	381c3122 	ldmdacc	ip, {r1, r5, r8, ip, sp}
     508:	f35101f3 	vbsl	q8, <illegal reg q8.5>, <illegal reg q9.5>
     50c:	4b405101 	blmi	1014918 <__bss_end__+0x100b118>
     510:	080c2224 	stmdaeq	ip, {r2, r5, r9, sp}
     514:	2d800000 	stccs	0, cr0, [r0]
     518:	16000128 	strne	r0, [r0], -r8, lsr #2
     51c:	9f1a1f13 	svcls	0x001a1f13
	...
     528:	026c0003 	rsbeq	r0, ip, #3, 0
     52c:	02700000 	rsbseq	r0, r0, #0, 0
     530:	00010000 	andeq	r0, r1, r0
     534:	00000051 	andeq	r0, r0, r1, asr r0
     538:	00000000 	andeq	r0, r0, r0
     53c:	78000200 	stmdavc	r0, {r9}
     540:	80000002 	andhi	r0, r0, r2
     544:	02000002 	andeq	r0, r0, #2, 0
     548:	009f3800 	addseq	r3, pc, r0, lsl #16
     54c:	00000000 	andeq	r0, r0, r0
     550:	02000000 	andeq	r0, r0, #0, 0
     554:	00027800 	andeq	r7, r2, r0, lsl #16
     558:	00028000 	andeq	r8, r2, r0
     55c:	51000100 	mrspl	r0, (UNDEF: 16)
	...
     568:	00000001 	andeq	r0, r0, r1
     56c:	02880000 	addeq	r0, r8, #0, 0
     570:	02a00000 	adceq	r0, r0, #0, 0
     574:	00010000 	andeq	r0, r1, r0
     578:	00030851 	andeq	r0, r3, r1, asr r8
     57c:	00031c00 	andeq	r1, r3, r0, lsl #24
     580:	51000100 	mrspl	r0, (UNDEF: 16)
     584:	0000031c 	andeq	r0, r0, ip, lsl r3
     588:	00000328 	andeq	r0, r0, r8, lsr #6
     58c:	f3380017 	vqadd.u64	d0, d8, d7
     590:	01f35101 	mvnseq	r5, r1, lsl #2
     594:	244b4051 	strbcs	r4, [fp], #-81	; 0xffffffaf
     598:	00080c22 	andeq	r0, r8, r2, lsr #24
     59c:	282d8000 	stmdacs	sp!, {pc}
     5a0:	13160001 	tstne	r6, #1, 0
     5a4:	0000009f 	muleq	r0, pc, r0	; <UNPREDICTABLE>
     5a8:	00000000 	andeq	r0, r0, r0
     5ac:	00000100 	andeq	r0, r0, r0, lsl #2
     5b0:	00000000 	andeq	r0, r0, r0
     5b4:	00028800 	andeq	r8, r2, r0, lsl #16
     5b8:	00029800 	andeq	r9, r2, r0, lsl #16
     5bc:	52000100 	andpl	r0, r0, #0
     5c0:	00000298 	muleq	r0, r8, r2
     5c4:	000002a0 	andeq	r0, r0, r0, lsr #5
     5c8:	d8030005 	stmdale	r3, {r0, r2}
     5cc:	08000097 	stmdaeq	r0, {r0, r1, r2, r4, r7}
     5d0:	18000003 	stmdane	r0, {r0, r1}
     5d4:	01000003 	tsteq	r0, r3
     5d8:	03185200 	tsteq	r8, #0, 4
     5dc:	03230000 			; <UNDEFINED> instruction: 0x03230000
     5e0:	00050000 	andeq	r0, r5, r0
     5e4:	0097d803 	addseq	sp, r7, r3, lsl #16
	...
     5f0:	88000400 	stmdahi	r0, {sl}
     5f4:	8c000002 	stchi	0, cr0, [r0], {2}
     5f8:	01000002 	tsteq	r0, r2
     5fc:	00005100 	andeq	r5, r0, r0, lsl #2
     600:	00000000 	andeq	r0, r0, r0
     604:	00030000 	andeq	r0, r3, r0
     608:	000002a0 	andeq	r0, r0, r0, lsr #5
     60c:	000002a4 	andeq	r0, r0, r4, lsr #5
     610:	00510001 	subseq	r0, r1, r1
     614:	00000000 	andeq	r0, r0, r0
     618:	03000000 	movweq	r0, #0
     61c:	0002a000 	andeq	sl, r2, r0
     620:	0002a400 	andeq	sl, r2, r0, lsl #8
     624:	53000100 	movwpl	r0, #256	; 0x100
	...
     638:	000001f8 	strdeq	r0, [r0], -r8
     63c:	0000020f 	andeq	r0, r0, pc, lsl #4
     640:	0f500001 	svceq	0x00500001
     644:	2c000002 	stccs	0, cr0, [r0], {2}
     648:	01000002 	tsteq	r0, r2
     64c:	022c5400 	eoreq	r5, ip, #0, 8
     650:	02440000 	subeq	r0, r4, #0, 0
     654:	00010000 	andeq	r0, r1, r0
     658:	00024450 	andeq	r4, r2, r0, asr r4
     65c:	00025c00 	andeq	r5, r2, r0, lsl #24
     660:	54000100 	strpl	r0, [r0], #-256	; 0xffffff00
	...
     670:	00000214 	andeq	r0, r0, r4, lsl r2
     674:	0000021f 	andeq	r0, r0, pc, lsl r2
     678:	1f500001 	svcne	0x00500001
     67c:	2c000002 	stccs	0, cr0, [r0], {2}
     680:	01000002 	tsteq	r0, r2
     684:	00005500 	andeq	r5, r0, r0, lsl #10
	...
     69c:	01600000 	cmneq	r0, r0
     6a0:	01740000 	cmneq	r4, r0
     6a4:	00010000 	andeq	r0, r1, r0
     6a8:	00017450 	andeq	r7, r1, r0, asr r4
     6ac:	00017800 	andeq	r7, r1, r0, lsl #16
     6b0:	70000300 	andvc	r0, r0, r0, lsl #6
     6b4:	01789f79 	cmneq	r8, r9, ror pc
     6b8:	019c0000 	orrseq	r0, ip, r0
     6bc:	00010000 	andeq	r0, r1, r0
     6c0:	00019c53 	andeq	r9, r1, r3, asr ip
     6c4:	0001b400 	andeq	fp, r1, r0, lsl #8
     6c8:	50000100 	andpl	r0, r0, r0, lsl #2
     6cc:	000001b4 			; <UNDEFINED> instruction: 0x000001b4
     6d0:	000001bc 			; <UNDEFINED> instruction: 0x000001bc
     6d4:	01f30004 	mvnseq	r0, r4
     6d8:	01bc9f50 			; <UNDEFINED> instruction: 0x01bc9f50
     6dc:	01cc0000 	biceq	r0, ip, r0
     6e0:	00010000 	andeq	r0, r1, r0
     6e4:	0001cc53 	andeq	ip, r1, r3, asr ip
     6e8:	0001db00 	andeq	sp, r1, r0, lsl #22
     6ec:	91000200 	mrsls	r0, R8_usr
     6f0:	0001db68 	andeq	sp, r1, r8, ror #22
     6f4:	0001f800 	andeq	pc, r1, r0, lsl #16
     6f8:	f3000900 	vmls.i8	d0, d0, d0
     6fc:	07235001 	streq	r5, [r3, -r1]!
     700:	9f1af809 	svcls	0x001af809
	...
     710:	00000180 	andeq	r0, r0, r0, lsl #3
     714:	0000019c 	muleq	r0, ip, r1
     718:	bc500001 	mrrclt	0, 0, r0, r0, cr1	; <UNPREDICTABLE>
     71c:	d8000001 	stmdale	r0, {r0}
     720:	01000001 	tsteq	r0, r1
     724:	00005000 	andeq	r5, r0, r0
     728:	00000000 	andeq	r0, r0, r0
     72c:	00020000 	andeq	r0, r2, r0
     730:	00000170 	andeq	r0, r0, r0, ror r1
     734:	00000178 	andeq	r0, r0, r8, ror r1
     738:	9f380002 	svcls	0x00380002
	...
     744:	00000002 	andeq	r0, r0, r2
     748:	00000170 	andeq	r0, r0, r0, ror r1
     74c:	00000174 	andeq	r0, r0, r4, ror r1
     750:	74500001 	ldrbvc	r0, [r0], #-1
     754:	78000001 	stmdavc	r0, {r0}
     758:	03000001 	movweq	r0, #1
     75c:	9f797000 	svcls	0x00797000
	...
     778:	00300000 	eorseq	r0, r0, r0
     77c:	007c0000 	rsbseq	r0, ip, r0
     780:	00010000 	andeq	r0, r1, r0
     784:	00007c50 	andeq	r7, r0, r0, asr ip
     788:	00008800 	andeq	r8, r0, r0, lsl #16
     78c:	03000500 	movweq	r0, #1280	; 0x500
     790:	000097d8 	ldrdeq	r9, [r0], -r8
     794:	00000088 	andeq	r0, r0, r8, lsl #1
     798:	00000098 	muleq	r0, r8, r0
     79c:	98500001 	ldmdals	r0, {r0}^
     7a0:	a0000000 	andge	r0, r0, r0
     7a4:	04000000 	streq	r0, [r0], #-0
     7a8:	5001f300 	andpl	pc, r1, r0, lsl #6
     7ac:	0000a09f 	muleq	r0, pc, r0	; <UNPREDICTABLE>
     7b0:	0000b800 	andeq	fp, r0, r0, lsl #16
     7b4:	50000100 	andpl	r0, r0, r0, lsl #2
     7b8:	000000b8 	strheq	r0, [r0], -r8
     7bc:	000000c0 	andeq	r0, r0, r0, asr #1
     7c0:	01f30004 	mvnseq	r0, r4
     7c4:	00c09f50 	sbceq	r9, r0, r0, asr pc
     7c8:	00e00000 	rsceq	r0, r0, r0
     7cc:	00010000 	andeq	r0, r1, r0
     7d0:	0000e050 	andeq	lr, r0, r0, asr r0
     7d4:	0000e300 	andeq	lr, r0, r0, lsl #6
     7d8:	91000200 	mrsls	r0, R8_usr
     7dc:	0000e368 	andeq	lr, r0, r8, ror #6
     7e0:	00010800 	andeq	r0, r1, r0, lsl #16
     7e4:	f3000400 	vshl.u8	d0, d0, d0
     7e8:	009f5001 	addseq	r5, pc, r1
	...
     7fc:	30000000 	andcc	r0, r0, r0
     800:	94000000 	strls	r0, [r0], #-0
     804:	01000000 	mrseq	r0, (UNDEF: 0)
     808:	00945100 	addseq	r5, r4, r0, lsl #2
     80c:	00a00000 	adceq	r0, r0, r0
     810:	00040000 	andeq	r0, r4, r0
     814:	9f5101f3 	svcls	0x005101f3
     818:	000000a0 	andeq	r0, r0, r0, lsr #1
     81c:	000000b4 	strheq	r0, [r0], -r4
     820:	b4510001 	ldrblt	r0, [r1], #-1
     824:	c0000000 	andgt	r0, r0, r0
     828:	04000000 	streq	r0, [r0], #-0
     82c:	5101f300 	mrspl	pc, SP_irq	; <UNPREDICTABLE>
     830:	0000c09f 	muleq	r0, pc, r0	; <UNPREDICTABLE>
     834:	0000dc00 	andeq	sp, r0, r0, lsl #24
     838:	51000100 	mrspl	r0, (UNDEF: 16)
     83c:	000000dc 	ldrdeq	r0, [r0], -ip
     840:	00000108 	andeq	r0, r0, r8, lsl #2
     844:	01f30004 	mvnseq	r0, r4
     848:	00009f51 	andeq	r9, r0, r1, asr pc
     84c:	00000000 	andeq	r0, r0, r0
     850:	00010000 	andeq	r0, r1, r0
	...
     860:	00000054 	andeq	r0, r0, r4, asr r0
     864:	0000007c 	andeq	r0, r0, ip, ror r0
     868:	7c500001 	mrrcvc	0, 0, r0, r0, cr1	; <UNPREDICTABLE>
     86c:	88000000 	stmdahi	r0, {}	; <UNPREDICTABLE>
     870:	05000000 	streq	r0, [r0, #-0]
     874:	97d80300 	ldrbls	r0, [r8, r0, lsl #6]
     878:	00a00000 	adceq	r0, r0, r0
     87c:	00b80000 	adcseq	r0, r8, r0
     880:	00010000 	andeq	r0, r1, r0
     884:	0000b850 	andeq	fp, r0, r0, asr r8
     888:	0000c000 	andeq	ip, r0, r0
     88c:	f3000400 	vshl.u8	d0, d0, d0
     890:	c09f5001 	addsgt	r5, pc, r1
     894:	e0000000 	and	r0, r0, r0
     898:	01000000 	mrseq	r0, (UNDEF: 0)
     89c:	00e05000 	rsceq	r5, r0, r0
     8a0:	00e30000 	rsceq	r0, r3, r0
     8a4:	00020000 	andeq	r0, r2, r0
     8a8:	00e36891 	smlaleq	r6, r3, r1, r8
     8ac:	01080000 	mrseq	r0, (UNDEF: 8)
     8b0:	00040000 	andeq	r0, r4, r0
     8b4:	9f5001f3 	svcls	0x005001f3
	...
     8d0:	00000058 	andeq	r0, r0, r8, asr r0
     8d4:	58500001 	ldmdapl	r0, {r0}^
     8d8:	60000000 	andvs	r0, r0, r0
     8dc:	04000000 	streq	r0, [r0], #-0
     8e0:	5001f300 	andpl	pc, r1, r0, lsl #6
     8e4:	0000609f 	muleq	r0, pc, r0	; <UNPREDICTABLE>
     8e8:	00006800 	andeq	r6, r0, r0, lsl #16
     8ec:	50000100 	andpl	r0, r0, r0, lsl #2
     8f0:	00000068 	andeq	r0, r0, r8, rrx
     8f4:	00000088 	andeq	r0, r0, r8, lsl #1
     8f8:	01f30004 	mvnseq	r0, r4
     8fc:	00889f50 	addeq	r9, r8, r0, asr pc
     900:	00900000 	addseq	r0, r0, r0
     904:	00010000 	andeq	r0, r1, r0
     908:	00009050 	andeq	r9, r0, r0, asr r0
     90c:	0000cc00 	andeq	ip, r0, r0, lsl #24
     910:	f3000400 	vshl.u8	d0, d0, d0
     914:	009f5001 	addseq	r5, pc, r1
	...
     928:	00005400 	andeq	r5, r0, r0, lsl #8
     92c:	51000100 	mrspl	r0, (UNDEF: 16)
     930:	00000054 	andeq	r0, r0, r4, asr r0
     934:	00000060 	andeq	r0, r0, r0, rrx
     938:	01f30004 	mvnseq	r0, r4
     93c:	00609f51 	rsbeq	r9, r0, r1, asr pc
     940:	00cc0000 	sbceq	r0, ip, r0
     944:	00010000 	andeq	r0, r1, r0
     948:	00000051 	andeq	r0, r0, r1, asr r0
	...
     96c:	3c000000 	stccc	0, cr0, [r0], {-0}
     970:	01000000 	mrseq	r0, (UNDEF: 0)
     974:	003c5200 	eorseq	r5, ip, r0, lsl #4
     978:	00400000 	subeq	r0, r0, r0
     97c:	00040000 	andeq	r0, r4, r0
     980:	9f5201f3 	svcls	0x005201f3
     984:	00000040 	andeq	r0, r0, r0, asr #32
     988:	00000050 	andeq	r0, r0, r0, asr r0
     98c:	50520001 	subspl	r0, r2, r1
     990:	60000000 	andvs	r0, r0, r0
     994:	04000000 	streq	r0, [r0], #-0
     998:	5201f300 	andpl	pc, r1, #0, 6
     99c:	0000609f 	muleq	r0, pc, r0	; <UNPREDICTABLE>
     9a0:	00006800 	andeq	r6, r0, r0, lsl #16
     9a4:	52000100 	andpl	r0, r0, #0
     9a8:	00000068 	andeq	r0, r0, r8, rrx
     9ac:	00000078 	andeq	r0, r0, r8, ror r0
     9b0:	78530001 	ldmdavc	r3, {r0}^
     9b4:	7c000000 	stcvc	0, cr0, [r0], {-0}
     9b8:	01000000 	mrseq	r0, (UNDEF: 0)
     9bc:	007c5200 	rsbseq	r5, ip, r0, lsl #4
     9c0:	00880000 	addeq	r0, r8, r0
     9c4:	00010000 	andeq	r0, r1, r0
     9c8:	00008853 	andeq	r8, r0, r3, asr r8
     9cc:	00009000 	andeq	r9, r0, r0
     9d0:	52000100 	andpl	r0, r0, #0
     9d4:	00000090 	muleq	r0, r0, r0
     9d8:	00000098 	muleq	r0, r8, r0
     9dc:	98530001 	ldmdals	r3, {r0}^
     9e0:	9c000000 	stcls	0, cr0, [r0], {-0}
     9e4:	01000000 	mrseq	r0, (UNDEF: 0)
     9e8:	009c5200 	addseq	r5, ip, r0, lsl #4
     9ec:	00a80000 	adceq	r0, r8, r0
     9f0:	00010000 	andeq	r0, r1, r0
     9f4:	0000a853 	andeq	sl, r0, r3, asr r8
     9f8:	0000b400 	andeq	fp, r0, r0, lsl #8
     9fc:	f3000400 	vshl.u8	d0, d0, d0
     a00:	009f5201 	addseq	r5, pc, r1, lsl #4
     a04:	00000000 	andeq	r0, r0, r0
     a08:	01000000 	mrseq	r0, (UNDEF: 0)
     a0c:	02020000 	andeq	r0, r2, #0, 0
     a10:	38000000 	stmdacc	r0, {}	; <UNPREDICTABLE>
     a14:	40000000 	andmi	r0, r0, r0
     a18:	01000000 	mrseq	r0, (UNDEF: 0)
     a1c:	00a85000 	adceq	r5, r8, r0
     a20:	00a80000 	adceq	r0, r8, r0
     a24:	00010000 	andeq	r0, r1, r0
     a28:	0000a850 	andeq	sl, r0, r0, asr r8
     a2c:	0000ac00 	andeq	sl, r0, r0, lsl #24
     a30:	70000300 	andvc	r0, r0, r0, lsl #6
     a34:	00ac9f01 	adceq	r9, ip, r1, lsl #30
     a38:	00b40000 	adcseq	r0, r4, r0
     a3c:	00010000 	andeq	r0, r1, r0
     a40:	00000050 	andeq	r0, r0, r0, asr r0
	...
     a4c:	00003c00 	andeq	r3, r0, r0, lsl #24
     a50:	00004000 	andeq	r4, r0, r0
     a54:	52000100 	andpl	r0, r0, #0
     a58:	000000a8 	andeq	r0, r0, r8, lsr #1
     a5c:	000000b4 	strheq	r0, [r0], -r4
     a60:	00520001 	subseq	r0, r2, r1
     a64:	00000000 	andeq	r0, r0, r0
     a68:	01000000 	mrseq	r0, (UNDEF: 0)
     a6c:	00000101 	andeq	r0, r0, r1, lsl #2
     a70:	00006000 	andeq	r6, r0, r0
     a74:	00006800 	andeq	r6, r0, r0, lsl #16
     a78:	50000100 	andpl	r0, r0, r0, lsl #2
     a7c:	00000068 	andeq	r0, r0, r8, rrx
     a80:	00000074 	andeq	r0, r0, r4, ror r0
     a84:	08700003 	ldmdaeq	r0!, {r0, r1}^
     a88:	0000749f 	muleq	r0, pc, r4	; <UNPREDICTABLE>
     a8c:	00008800 	andeq	r8, r0, r0, lsl #16
     a90:	50000100 	andpl	r0, r0, r0, lsl #2
	...
     a9c:	00010102 	andeq	r0, r1, r2, lsl #2
     aa0:	00880000 	addeq	r0, r8, r0
     aa4:	00900000 	addseq	r0, r0, r0
     aa8:	00010000 	andeq	r0, r1, r0
     aac:	00009050 	andeq	r9, r0, r0, asr r0
     ab0:	00009400 	andeq	r9, r0, r0, lsl #8
     ab4:	70000300 	andvc	r0, r0, r0, lsl #6
     ab8:	00949f04 	addseq	r9, r4, r4, lsl #30
     abc:	00a80000 	adceq	r0, r8, r0
     ac0:	00010000 	andeq	r0, r1, r0
     ac4:	00000050 	andeq	r0, r0, r0, asr r0
     ac8:	00000000 	andeq	r0, r0, r0
     acc:	1c000000 	stcne	0, cr0, [r0], {-0}
     ad0:	2c000000 	stccs	0, cr0, [r0], {-0}
     ad4:	01000000 	mrseq	r0, (UNDEF: 0)
     ad8:	00005000 	andeq	r5, r0, r0
	...
     aec:	01300000 	teqeq	r0, r0
     af0:	01440000 	mrseq	r0, (UNDEF: 68)
     af4:	00010000 	andeq	r0, r1, r0
     af8:	00014450 	andeq	r4, r1, r0, asr r4
     afc:	00014c00 	andeq	r4, r1, r0, lsl #24
     b00:	54000100 	strpl	r0, [r0], #-256	; 0xffffff00
     b04:	0000014c 	andeq	r0, r0, ip, asr #2
     b08:	00000150 	andeq	r0, r0, r0, asr r1
     b0c:	50550001 	subspl	r0, r5, r1
     b10:	68000001 	stmdavs	r0, {r0}
     b14:	01000001 	tsteq	r0, r1
     b18:	01685400 	cmneq	r8, r0, lsl #8
     b1c:	02d40000 	sbcseq	r0, r4, #0, 0
     b20:	00010000 	andeq	r0, r1, r0
     b24:	0002d455 	andeq	sp, r2, r5, asr r4
     b28:	0002dc00 	andeq	sp, r2, r0, lsl #24
     b2c:	54000100 	strpl	r0, [r0], #-256	; 0xffffff00
	...
     b3c:	0000026c 	andeq	r0, r0, ip, ror #4
     b40:	0000027c 	andeq	r0, r0, ip, ror r2
     b44:	88540001 	ldmdahi	r4, {r0}^
     b48:	8c000002 	stchi	0, cr0, [r0], {2}
     b4c:	01000002 	tsteq	r0, r2
     b50:	00005400 	andeq	r5, r0, r0, lsl #8
	...
     b5c:	000002a0 	andeq	r0, r0, r0, lsr #5
     b60:	000002b8 			; <UNDEFINED> instruction: 0x000002b8
     b64:	00540001 	subseq	r0, r4, r1
	...
     b80:	00002c00 	andeq	r2, r0, r0, lsl #24
     b84:	00006000 	andeq	r6, r0, r0
     b88:	50000100 	andpl	r0, r0, r0, lsl #2
     b8c:	00000060 	andeq	r0, r0, r0, rrx
     b90:	00000063 	andeq	r0, r0, r3, rrx
     b94:	007d0002 	rsbseq	r0, sp, r2
     b98:	00000063 	andeq	r0, r0, r3, rrx
     b9c:	00000068 	andeq	r0, r0, r8, rrx
     ba0:	01f30004 	mvnseq	r0, r4
     ba4:	00689f50 	rsbeq	r9, r8, r0, asr pc
     ba8:	006c0000 	rsbeq	r0, ip, r0
     bac:	00010000 	andeq	r0, r1, r0
     bb0:	00006c50 	andeq	r6, r0, r0, asr ip
     bb4:	00009000 	andeq	r9, r0, r0
     bb8:	f3000400 	vshl.u8	d0, d0, d0
     bbc:	909f5001 	addsls	r5, pc, r1
     bc0:	94000000 	strls	r0, [r0], #-0
     bc4:	01000000 	mrseq	r0, (UNDEF: 0)
     bc8:	00945000 	addseq	r5, r4, r0
     bcc:	00d00000 	sbcseq	r0, r0, r0
     bd0:	00040000 	andeq	r0, r4, r0
     bd4:	9f5001f3 	svcls	0x005001f3
     bd8:	000000d0 	ldrdeq	r0, [r0], -r0	; <UNPREDICTABLE>
     bdc:	000000d4 	ldrdeq	r0, [r0], -r4
     be0:	d4500001 	ldrble	r0, [r0], #-1
     be4:	30000000 	andcc	r0, r0, r0
     be8:	04000001 	streq	r0, [r0], #-1
     bec:	5001f300 	andpl	pc, r1, r0, lsl #6
     bf0:	0000009f 	muleq	r0, pc, r0	; <UNPREDICTABLE>
	...
     c04:	00002c00 	andeq	r2, r0, r0, lsl #24
     c08:	00005c00 	andeq	r5, r0, r0, lsl #24
     c0c:	51000100 	mrspl	r0, (UNDEF: 16)
     c10:	0000005c 	andeq	r0, r0, ip, asr r0
     c14:	00000068 	andeq	r0, r0, r8, rrx
     c18:	01f30004 	mvnseq	r0, r4
     c1c:	00689f51 	rsbeq	r9, r8, r1, asr pc
     c20:	00880000 	addeq	r0, r8, r0
     c24:	00010000 	andeq	r0, r1, r0
     c28:	00009051 	andeq	r9, r0, r1, asr r0
     c2c:	0000c400 	andeq	ip, r0, r0, lsl #8
     c30:	51000100 	mrspl	r0, (UNDEF: 16)
     c34:	000000c4 	andeq	r0, r0, r4, asr #1
     c38:	000000d0 	ldrdeq	r0, [r0], -r0	; <UNPREDICTABLE>
     c3c:	d0500001 	subsle	r0, r0, r1
     c40:	f0000000 			; <UNDEFINED> instruction: 0xf0000000
     c44:	01000000 	mrseq	r0, (UNDEF: 0)
     c48:	00005100 	andeq	r5, r0, r0, lsl #2
     c4c:	00000000 	andeq	r0, r0, r0
     c50:	00010000 	andeq	r0, r1, r0
	...
     c64:	00010100 	andeq	r0, r1, r0, lsl #2
     c68:	00340000 	eorseq	r0, r4, r0
     c6c:	006c0000 	rsbeq	r0, ip, r0
     c70:	00030000 	andeq	r0, r3, r0
     c74:	6c9f4c91 	ldcvs	12, cr4, [pc], {145}	; 0x91
     c78:	80000000 	andhi	r0, r0, r0
     c7c:	01000000 	mrseq	r0, (UNDEF: 0)
     c80:	00805400 	addeq	r5, r0, r0, lsl #8
     c84:	00900000 	addseq	r0, r0, r0
     c88:	00030000 	andeq	r0, r3, r0
     c8c:	909f7f74 	addsls	r7, pc, r4, ror pc	; <UNPREDICTABLE>
     c90:	94000000 	strls	r0, [r0], #-0
     c94:	03000000 	movweq	r0, #0
     c98:	9f4c9100 	svcls	0x004c9100
     c9c:	00000094 	muleq	r0, r4, r0
     ca0:	000000bc 	strheq	r0, [r0], -ip
     ca4:	bc540001 	mrrclt	0, 0, r0, r4, cr1
     ca8:	d0000000 	andle	r0, r0, r0
     cac:	03000000 	movweq	r0, #0
     cb0:	9f7f7400 	svcls	0x007f7400
     cb4:	000000d0 	ldrdeq	r0, [r0], -r0	; <UNPREDICTABLE>
     cb8:	000000d4 	ldrdeq	r0, [r0], -r4
     cbc:	4c910003 	ldcmi	0, cr0, [r1], {3}
     cc0:	0000d49f 	muleq	r0, pc, r4	; <UNPREDICTABLE>
     cc4:	0000e800 	andeq	lr, r0, r0, lsl #16
     cc8:	54000100 	strpl	r0, [r0], #-256	; 0xffffff00
     ccc:	000000e8 	andeq	r0, r0, r8, ror #1
     cd0:	000000f8 	strdeq	r0, [r0], -r8
     cd4:	7f740003 	svcvc	0x00740003
     cd8:	0000f89f 	muleq	r0, pc, r8	; <UNPREDICTABLE>
     cdc:	0000f800 	andeq	pc, r0, r0, lsl #16
     ce0:	54000100 	strpl	r0, [r0], #-256	; 0xffffff00
     ce4:	000000f8 	strdeq	r0, [r0], -r8
     ce8:	000000fc 	strdeq	r0, [r0], -ip
     cec:	7f740003 	svcvc	0x00740003
     cf0:	0000fc9f 	muleq	r0, pc, ip	; <UNPREDICTABLE>
     cf4:	00011400 	andeq	r1, r1, r0, lsl #8
     cf8:	54000100 	strpl	r0, [r0], #-256	; 0xffffff00
	...
     d0c:	0000000b 	andeq	r0, r0, fp
     d10:	0b500001 	bleq	1400d1c <__bss_end__+0x13f751c>
     d14:	14000000 	strne	r0, [r0], #-0
     d18:	01000000 	mrseq	r0, (UNDEF: 0)
     d1c:	00005400 	andeq	r5, r0, r0, lsl #8
     d20:	00000000 	andeq	r0, r0, r0
     d24:	01000000 	mrseq	r0, (UNDEF: 0)
     d28:	00000001 	andeq	r0, r0, r1
     d2c:	00000008 	andeq	r0, r0, r8
     d30:	00000010 	andeq	r0, r0, r0, lsl r0
     d34:	10530001 	subsne	r0, r3, r1
     d38:	18000000 	stmdane	r0, {}	; <UNPREDICTABLE>
     d3c:	03000000 	movweq	r0, #0
     d40:	9f047300 	svcls	0x00047300
     d44:	00000018 	andeq	r0, r0, r8, lsl r0
     d48:	0000001f 	andeq	r0, r0, pc, lsl r0
     d4c:	00530001 	subseq	r0, r3, r1
     d50:	00000000 	andeq	r0, r0, r0
     d54:	01000000 	mrseq	r0, (UNDEF: 0)
     d58:	008de400 	addeq	lr, sp, r0, lsl #8
     d5c:	008e0000 	addeq	r0, lr, r0
     d60:	0c000600 	stceq	6, cr0, [r0], {-0}
     d64:	2010001c 	andscs	r0, r0, ip, lsl r0
     d68:	0000009f 	muleq	r0, pc, r0	; <UNPREDICTABLE>
     d6c:	00000000 	andeq	r0, r0, r0
     d70:	e4000200 	str	r0, [r0], #-512	; 0xfffffe00
     d74:	0000008d 	andeq	r0, r0, sp, lsl #1
     d78:	0600008e 	streq	r0, [r0], -lr, lsl #1
     d7c:	00240c00 	eoreq	r0, r4, r0, lsl #24
     d80:	009f2010 	addseq	r2, pc, r0, lsl r0	; <UNPREDICTABLE>
     d84:	00000000 	andeq	r0, r0, r0
     d88:	03000000 	movweq	r0, #0
     d8c:	008de400 	addeq	lr, sp, r0, lsl #8
     d90:	008e0000 	addeq	r0, lr, r0
     d94:	08000500 	stmdaeq	r0, {r8, sl}
     d98:	9f2447b4 	svcls	0x002447b4
	...
     da4:	8de40004 	stclhi	0, cr0, [r4, #16]!
     da8:	8e000000 	cdphi	0, 0, cr0, cr0, cr0, {0}
     dac:	00030000 	andeq	r0, r3, r0
     db0:	009f2008 	addseq	r2, pc, r8
     db4:	00000000 	andeq	r0, r0, r0
     db8:	02000000 	andeq	r0, r0, #0, 0
     dbc:	00000000 	andeq	r0, r0, r0
     dc0:	008db400 	addeq	fp, sp, r0, lsl #8
     dc4:	008db800 	addeq	fp, sp, r0, lsl #16
     dc8:	30000200 	andcc	r0, r0, r0, lsl #4
     dcc:	008db89f 	umulleq	fp, sp, pc, r8	; <UNPREDICTABLE>
     dd0:	008dbc00 	addeq	fp, sp, r0, lsl #24
     dd4:	53000100 	movwpl	r0, #256	; 0x100
     dd8:	00008dc0 	andeq	r8, r0, r0, asr #27
     ddc:	00008dc8 	andeq	r8, r0, r8, asr #27
     de0:	00530001 	subseq	r0, r3, r1
     de4:	00000000 	andeq	r0, r0, r0
     de8:	02000000 	andeq	r0, r0, #0, 0
     dec:	9c000000 	stcls	0, cr0, [r0], {-0}
     df0:	a000008d 	andge	r0, r0, sp, lsl #1
     df4:	0200008d 	andeq	r0, r0, #141, 0	; 0x8d
     df8:	a09f3000 	addsge	r3, pc, r0
     dfc:	a400008d 	strge	r0, [r0], #-141	; 0xffffff73
     e00:	0100008d 	smlabbeq	r0, sp, r0, r0
     e04:	00005000 	andeq	r5, r0, r0
	...
     e10:	006c0000 	rsbeq	r0, ip, r0
     e14:	00780000 	rsbseq	r0, r8, r0
     e18:	00010000 	andeq	r0, r1, r0
     e1c:	00007850 	andeq	r7, r0, r0, asr r8
     e20:	00008400 	andeq	r8, r0, r0, lsl #8
     e24:	f3000400 	vshl.u8	d0, d0, d0
     e28:	009f5001 	addseq	r5, pc, r1
	...
     e34:	54000000 	strpl	r0, [r0], #-0
     e38:	60000000 	andvs	r0, r0, r0
     e3c:	01000000 	mrseq	r0, (UNDEF: 0)
     e40:	00605000 	rsbeq	r5, r0, r0
     e44:	006c0000 	rsbeq	r0, ip, r0
     e48:	00040000 	andeq	r0, r4, r0
     e4c:	9f5001f3 	svcls	0x005001f3
	...
     e5c:	00000030 	andeq	r0, r0, r0, lsr r0
     e60:	0000003b 	andeq	r0, r0, fp, lsr r0
     e64:	3b500001 	blcc	1400e70 <__bss_end__+0x13f7670>
     e68:	54000000 	strpl	r0, [r0], #-0
     e6c:	01000000 	mrseq	r0, (UNDEF: 0)
     e70:	00005500 	andeq	r5, r0, r0, lsl #10
	...
     e7c:	00000040 	andeq	r0, r0, r0, asr #32
     e80:	00000054 	andeq	r0, r0, r4, asr r0
     e84:	00540001 	subseq	r0, r4, r1
	...
     e90:	00004400 	andeq	r4, r0, r0, lsl #8
     e94:	00004800 	andeq	r4, r0, r0, lsl #16
     e98:	50000100 	andpl	r0, r0, r0, lsl #2
	...
     ea8:	00000024 	andeq	r0, r0, r4, lsr #32
     eac:	00000027 	andeq	r0, r0, r7, lsr #32
     eb0:	27500001 	ldrbcs	r0, [r0, -r1]
     eb4:	30000000 	andcc	r0, r0, r0
     eb8:	01000000 	mrseq	r0, (UNDEF: 0)
     ebc:	00005400 	andeq	r5, r0, r0, lsl #8
	...
     ec8:	01580000 	cmpeq	r8, r0
     ecc:	01630000 	cmneq	r3, r0
     ed0:	00010000 	andeq	r0, r1, r0
     ed4:	00016350 	andeq	r6, r1, r0, asr r3
     ed8:	00018800 	andeq	r8, r1, r0, lsl #16
     edc:	54000100 	strpl	r0, [r0], #-256	; 0xffffff00
	...
     ee8:	01480000 	mrseq	r0, (UNDEF: 72)
     eec:	01580000 	cmpeq	r8, r0
     ef0:	00010000 	andeq	r0, r1, r0
     ef4:	00000054 	andeq	r0, r0, r4, asr r0
	...
     f04:	00000f00 	andeq	r0, r0, r0, lsl #30
     f08:	50000100 	andpl	r0, r0, r0, lsl #2
     f0c:	0000000f 	andeq	r0, r0, pc
     f10:	00000020 	andeq	r0, r0, r0, lsr #32
     f14:	00540001 	subseq	r0, r4, r1
	...
     f24:	0f000000 	svceq	0x00000000
     f28:	01000000 	mrseq	r0, (UNDEF: 0)
     f2c:	000f5100 	andeq	r5, pc, r0, lsl #2
     f30:	00200000 	eoreq	r0, r0, r0
     f34:	00010000 	andeq	r0, r1, r0
     f38:	00000055 	andeq	r0, r0, r5, asr r0
	...
     f44:	00002000 	andeq	r2, r0, r0
     f48:	00002f00 	andeq	r2, r0, r0, lsl #30
     f4c:	50000100 	andpl	r0, r0, r0, lsl #2
     f50:	0000002f 	andeq	r0, r0, pc, lsr #32
     f54:	00000040 	andeq	r0, r0, r0, asr #32
     f58:	00540001 	subseq	r0, r4, r1
	...
     f64:	20000000 	andcs	r0, r0, r0
     f68:	2f000000 	svccs	0x00000000
     f6c:	01000000 	mrseq	r0, (UNDEF: 0)
     f70:	002f5100 	eoreq	r5, pc, r0, lsl #2
     f74:	00400000 	subeq	r0, r0, r0
     f78:	00010000 	andeq	r0, r1, r0
     f7c:	00000055 	andeq	r0, r0, r5, asr r0
	...
     f88:	0000a400 	andeq	sl, r0, r0, lsl #8
     f8c:	0000f000 	andeq	pc, r0, r0
     f90:	50000100 	andpl	r0, r0, r0, lsl #2
     f94:	000000f0 	strdeq	r0, [r0], -r0	; <UNPREDICTABLE>
     f98:	0000010c 	andeq	r0, r0, ip, lsl #2
     f9c:	01f30004 	mvnseq	r0, r4
     fa0:	00009f50 	andeq	r9, r0, r0, asr pc
	...
     fac:	00a40000 	adceq	r0, r4, r0
     fb0:	00e80000 	rsceq	r0, r8, r0
     fb4:	00010000 	andeq	r0, r1, r0
     fb8:	0000e851 	andeq	lr, r0, r1, asr r8
     fbc:	00010c00 	andeq	r0, r1, r0, lsl #24
     fc0:	f3000400 	vshl.u8	d0, d0, d0
     fc4:	009f5101 	addseq	r5, pc, r1, lsl #2
	...
     fd0:	0000d800 	andeq	sp, r0, r0, lsl #16
     fd4:	00010c00 	andeq	r0, r1, r0, lsl #24
     fd8:	56000100 	strpl	r0, [r0], -r0, lsl #2
	...
     fe4:	00e40000 	rsceq	r0, r4, r0
     fe8:	010c0000 	mrseq	r0, (UNDEF: 12)
     fec:	00010000 	andeq	r0, r1, r0
     ff0:	00000054 	andeq	r0, r0, r4, asr r0
     ff4:	00000000 	andeq	r0, r0, r0
     ff8:	ec000000 	stc	0, cr0, [r0], {-0}
     ffc:	0c000000 	stceq	0, cr0, [r0], {-0}
    1000:	01000001 	tsteq	r0, r1
    1004:	00005700 	andeq	r5, r0, r0, lsl #14
	...
    1014:	006c0000 	rsbeq	r0, ip, r0
    1018:	00840000 	addeq	r0, r4, r0
    101c:	00010000 	andeq	r0, r1, r0
    1020:	00008450 	andeq	r8, r0, r0, asr r4
    1024:	00009800 	andeq	r9, r0, r0, lsl #16
    1028:	54000100 	strpl	r0, [r0], #-256	; 0xffffff00
    102c:	00000098 	muleq	r0, r8, r0
    1030:	0000009c 	muleq	r0, ip, r0
    1034:	9c500001 	mrrcls	0, 0, r0, r0, cr1	; <UNPREDICTABLE>
    1038:	a4000000 	strge	r0, [r0], #-0
    103c:	04000000 	streq	r0, [r0], #-0
    1040:	5001f300 	andpl	pc, r1, r0, lsl #6
    1044:	0000009f 	muleq	r0, pc, r0	; <UNPREDICTABLE>
	...
    1050:	00011c00 	andeq	r1, r1, r0, lsl #24
    1054:	00012700 	andeq	r2, r1, r0, lsl #14
    1058:	50000100 	andpl	r0, r0, r0, lsl #2
    105c:	00000127 	andeq	r0, r0, r7, lsr #2
    1060:	0000012c 	andeq	r0, r0, ip, lsr #2
    1064:	01f30004 	mvnseq	r0, r4
    1068:	00009f50 	andeq	r9, r0, r0, asr pc
	...
    1078:	00500000 	subseq	r0, r0, r0
    107c:	005f0000 	subseq	r0, pc, r0
    1080:	00010000 	andeq	r0, r1, r0
    1084:	00005f50 	andeq	r5, r0, r0, asr pc
    1088:	00006400 	andeq	r6, r0, r0, lsl #8
    108c:	f3000400 	vshl.u8	d0, d0, d0
    1090:	649f5001 	ldrvs	r5, [pc], #1	; 1098 <__code_start__-0x6f68>
    1094:	67000000 	strvs	r0, [r0, -r0]
    1098:	01000000 	mrseq	r0, (UNDEF: 0)
    109c:	00675000 	rsbeq	r5, r7, r0
    10a0:	006c0000 	rsbeq	r0, ip, r0
    10a4:	00040000 	andeq	r0, r4, r0
    10a8:	9f5001f3 	svcls	0x005001f3
	...
    10bc:	00000050 	andeq	r0, r0, r0, asr r0
    10c0:	0000005f 	andeq	r0, r0, pc, asr r0
    10c4:	5f510001 	svcpl	0x00510001
    10c8:	64000000 	strvs	r0, [r0], #-0
    10cc:	04000000 	streq	r0, [r0], #-0
    10d0:	5101f300 	mrspl	pc, SP_irq	; <UNPREDICTABLE>
    10d4:	0000649f 	muleq	r0, pc, r4	; <UNPREDICTABLE>
    10d8:	00006700 	andeq	r6, r0, r0, lsl #14
    10dc:	51000100 	mrspl	r0, (UNDEF: 16)
    10e0:	00000067 	andeq	r0, r0, r7, rrx
    10e4:	0000006c 	andeq	r0, r0, ip, rrx
    10e8:	01f30004 	mvnseq	r0, r4
    10ec:	00009f51 	andeq	r9, r0, r1, asr pc
	...
    10f8:	00280000 	eoreq	r0, r8, r0
    10fc:	00440000 	subeq	r0, r4, r0
    1100:	00010000 	andeq	r0, r1, r0
    1104:	00004450 	andeq	r4, r0, r0, asr r4
    1108:	00005000 	andeq	r5, r0, r0
    110c:	f3000400 	vshl.u8	d0, d0, d0
    1110:	009f5001 	addseq	r5, pc, r1
	...
    1120:	1c000000 	stcne	0, cr0, [r0], {-0}
    1124:	01000000 	mrseq	r0, (UNDEF: 0)
    1128:	001c5000 	andseq	r5, ip, r0
    112c:	00280000 	eoreq	r0, r8, r0
    1130:	00040000 	andeq	r0, r4, r0
    1134:	9f5001f3 	svcls	0x005001f3
	...
    1144:	0000010c 	andeq	r0, r0, ip, lsl #2
    1148:	00000117 	andeq	r0, r0, r7, lsl r1
    114c:	17500001 	ldrbne	r0, [r0, -r1]
    1150:	1c000001 	stcne	0, cr0, [r0], {1}
    1154:	04000001 	streq	r0, [r0], #-1
    1158:	5001f300 	andpl	pc, r1, r0, lsl #6
    115c:	0000009f 	muleq	r0, pc, r0	; <UNPREDICTABLE>
    1160:	00000000 	andeq	r0, r0, r0
    1164:	01010000 	mrseq	r0, (UNDEF: 1)
    1168:	00000000 	andeq	r0, r0, r0
    116c:	00000800 	andeq	r0, r0, r0, lsl #16
    1170:	50000100 	andpl	r0, r0, r0, lsl #2
    1174:	00000008 	andeq	r0, r0, r8
    1178:	00000028 	andeq	r0, r0, r8, lsr #32
    117c:	00540001 	subseq	r0, r4, r1
    1180:	00000000 	andeq	r0, r0, r0
    1184:	Address 0x0000000000001184 is out of bounds.


Disassembly of section .debug_aranges:

00000000 <.debug_aranges>:
   0:	0000001c 	andeq	r0, r0, ip, lsl r0
   4:	00000002 	andeq	r0, r0, r2
   8:	00040000 	andeq	r0, r4, r0
   c:	00000000 	andeq	r0, r0, r0
  10:	00008038 	andeq	r8, r0, r8, lsr r0
  14:	00000240 	andeq	r0, r0, r0, asr #4
	...
  20:	0000001c 	andeq	r0, r0, ip, lsl r0
  24:	0e150002 	cdpeq	0, 1, cr0, cr5, cr2, {0}
  28:	00040000 	andeq	r0, r4, r0
  2c:	00000000 	andeq	r0, r0, r0
  30:	00008278 	andeq	r8, r0, r8, ror r2
  34:	000001cc 	andeq	r0, r0, ip, asr #3
	...
  40:	0000001c 	andeq	r0, r0, ip, lsl r0
  44:	1c030002 	stcne	0, cr0, [r3], {2}
  48:	00040000 	andeq	r0, r4, r0
  4c:	00000000 	andeq	r0, r0, r0
  50:	00008444 	andeq	r8, r0, r4, asr #8
  54:	0000005c 	andeq	r0, r0, ip, asr r0
	...
  60:	0000001c 	andeq	r0, r0, ip, lsl r0
  64:	29ad0002 	stmibcs	sp!, {r1}
  68:	00040000 	andeq	r0, r4, r0
  6c:	00000000 	andeq	r0, r0, r0
  70:	00008570 	andeq	r8, r0, r0, ror r5
  74:	000003f4 	strdeq	r0, [r0], -r4
	...
  80:	0000001c 	andeq	r0, r0, ip, lsl r0
  84:	32c20002 	sbccc	r0, r2, #2, 0
  88:	00040000 	andeq	r0, r4, r0
  8c:	00000000 	andeq	r0, r0, r0
  90:	00008964 	andeq	r8, r0, r4, ror #18
  94:	000000cc 	andeq	r0, r0, ip, asr #1
	...
  a0:	0000001c 	andeq	r0, r0, ip, lsl r0
  a4:	34a60002 	strtcc	r0, [r6], #2
  a8:	00040000 	andeq	r0, r4, r0
  ac:	00000000 	andeq	r0, r0, r0
  b0:	00008a30 	andeq	r8, r0, r0, lsr sl
  b4:	000002e8 	andeq	r0, r0, r8, ror #5
	...
  c0:	0000001c 	andeq	r0, r0, ip, lsl r0
  c4:	38380002 	ldmdacc	r8!, {r1}
  c8:	00040000 	andeq	r0, r4, r0
  cc:	00000000 	andeq	r0, r0, r0
  d0:	00008d18 	andeq	r8, r0, r8, lsl sp
  d4:	00000014 	andeq	r0, r0, r4, lsl r0
	...
  e0:	0000001c 	andeq	r0, r0, ip, lsl r0
  e4:	38ed0002 	stmiacc	sp!, {r1}^
  e8:	00040000 	andeq	r0, r4, r0
  ec:	00000000 	andeq	r0, r0, r0
  f0:	00008d2c 	andeq	r8, r0, ip, lsr #26
  f4:	00000020 	andeq	r0, r0, r0, lsr #32
	...
 100:	0000001c 	andeq	r0, r0, ip, lsl r0
 104:	39dc0002 	ldmibcc	ip, {r1}^
 108:	00040000 	andeq	r0, r4, r0
 10c:	00000000 	andeq	r0, r0, r0
 110:	00008d4c 	andeq	r8, r0, ip, asr #26
 114:	00000038 	andeq	r0, r0, r8, lsr r0
	...
 120:	0000001c 	andeq	r0, r0, ip, lsl r0
 124:	3afe0002 	bcc	fff80134 <__bss_end__+0xfff76934>
 128:	00040000 	andeq	r0, r4, r0
 12c:	00000000 	andeq	r0, r0, r0
 130:	00008d9c 	muleq	r0, ip, sp
 134:	0000007c 	andeq	r0, r0, ip, ror r0
	...
 140:	0000001c 	andeq	r0, r0, ip, lsl r0
 144:	3cce0002 	stclcc	0, cr0, [lr], {2}
 148:	00040000 	andeq	r0, r4, r0
 14c:	00000000 	andeq	r0, r0, r0
 150:	00008e18 	andeq	r8, r0, r8, lsl lr
 154:	00000084 	andeq	r0, r0, r4, lsl #1
	...
 160:	0000001c 	andeq	r0, r0, ip, lsl r0
 164:	3ecb0002 	cdpcc	0, 12, cr0, cr11, cr2, {0}
 168:	00040000 	andeq	r0, r4, r0
 16c:	00000000 	andeq	r0, r0, r0
 170:	00008e9c 	muleq	r0, ip, lr
 174:	000001f0 	strdeq	r0, [r0], -r0	; <UNPREDICTABLE>
	...
 180:	0000001c 	andeq	r0, r0, ip, lsl r0
 184:	449c0002 	ldrmi	r0, [ip], #2
 188:	00040000 	andeq	r0, r4, r0
 18c:	00000000 	andeq	r0, r0, r0
 190:	0000908c 	andeq	r9, r0, ip, lsl #1
 194:	0000012c 	andeq	r0, r0, ip, lsr #2
	...
 1a0:	0000001c 	andeq	r0, r0, ip, lsl r0
 1a4:	481b0002 	ldmdami	fp, {r1}
 1a8:	00040000 	andeq	r0, r4, r0
 1ac:	00000000 	andeq	r0, r0, r0
 1b0:	000091b8 			; <UNDEFINED> instruction: 0x000091b8
 1b4:	00000028 	andeq	r0, r0, r8, lsr #32
	...

Disassembly of section .debug_line:

00000000 <.debug_line>:
       0:	00000317 	andeq	r0, r0, r7, lsl r3
       4:	01850003 	orreq	r0, r5, r3
       8:	01020000 	mrseq	r0, (UNDEF: 2)
       c:	000d0efb 	strdeq	r0, [sp], -fp
      10:	01010101 	tsteq	r1, r1, lsl #2
      14:	01000000 	mrseq	r0, (UNDEF: 0)
      18:	2f010000 	svccs	0x00010000
      1c:	2f727375 	svccs	0x00727375
      20:	61636f6c 	cmnvs	r3, ip, ror #30
      24:	65432f6c 	strbvs	r2, [r3, #-3948]	; 0xfffff094
      28:	72616c6c 	rsbvc	r6, r1, #108, 24	; 0x6c00
      2c:	6d72612f 	ldfvse	f6, [r2, #-188]!	; 0xffffff44
      30:	6e6f6e2d 	cdpvs	14, 6, cr6, cr15, cr13, {1}
      34:	61652d65 	cmnvs	r5, r5, ror #26
      38:	742d6962 	strtvc	r6, [sp], #-2402	; 0xfffff69e
      3c:	2f747365 	svccs	0x00747365
      40:	30322d39 	eorscc	r2, r2, r9, lsr sp
      44:	34713931 	ldrbtcc	r3, [r1], #-2353	; 0xfffff6cf
      48:	3173632d 	cmncc	r3, sp, lsr #6
      4c:	2f653730 	svccs	0x00653730
      50:	2f62696c 	svccs	0x0062696c
      54:	2f636367 	svccs	0x00636367
      58:	2d6d7261 	sfmcs	f7, 2, [sp, #-388]!	; 0xfffffe7c
      5c:	656e6f6e 	strbvs	r6, [lr, #-3950]!	; 0xfffff092
      60:	6261652d 	rsbvs	r6, r1, #188743680	; 0xb400000
      64:	2e392f69 	cdpcs	15, 3, cr2, cr9, cr9, {3}
      68:	2f312e32 	svccs	0x00312e32
      6c:	6c636e69 	stclvs	14, cr6, [r3], #-420	; 0xfffffe5c
      70:	00656475 	rsbeq	r6, r5, r5, ror r4
      74:	7273752f 	rsbsvc	r7, r3, #197132288	; 0xbc00000
      78:	636f6c2f 	cmnvs	pc, #12032	; 0x2f00
      7c:	432f6c61 			; <UNDEFINED> instruction: 0x432f6c61
      80:	616c6c65 	cmnvs	ip, r5, ror #24
      84:	72612f72 	rsbvc	r2, r1, #456	; 0x1c8
      88:	6f6e2d6d 	svcvs	0x006e2d6d
      8c:	652d656e 	strvs	r6, [sp, #-1390]!	; 0xfffffa92
      90:	2d696261 	sfmcs	f6, 2, [r9, #-388]!	; 0xfffffe7c
      94:	74736574 	ldrbtvc	r6, [r3], #-1396	; 0xfffffa8c
      98:	322d392f 	eorcc	r3, sp, #770048	; 0xbc000
      9c:	71393130 	teqvc	r9, r0, lsr r1
      a0:	73632d34 	cmnvc	r3, #52, 26	; 0xd00
      a4:	65373031 	ldrvs	r3, [r7, #-49]!	; 0xffffffcf
      a8:	6d72612f 	ldfvse	f6, [r2, #-188]!	; 0xffffff44
      ac:	6e6f6e2d 	cdpvs	14, 6, cr6, cr15, cr13, {1}
      b0:	61652d65 	cmnvs	r5, r5, ror #26
      b4:	692f6962 	stmdbvs	pc!, {r1, r5, r6, r8, fp, sp, lr}	; <UNPREDICTABLE>
      b8:	756c636e 	strbvc	r6, [ip, #-878]!	; 0xfffffc92
      bc:	732f6564 			; <UNDEFINED> instruction: 0x732f6564
      c0:	2f007379 	svccs	0x00007379
      c4:	72657355 	rsbvc	r7, r5, #1409286145	; 0x54000001
      c8:	75792f73 	ldrbvc	r2, [r9, #-3955]!	; 0xfffff08d
      cc:	706e6978 	rsbvc	r6, lr, r8, ror r9
      d0:	472f6965 	strmi	r6, [pc, -r5, ror #18]!
      d4:	75487469 	strbvc	r7, [r8, #-1129]	; 0xfffffb97
      d8:	73632f62 	cmnvc	r3, #392	; 0x188
      dc:	65303431 	ldrvs	r3, [r0, #-1073]!	; 0xfffffbcf
      e0:	7733322d 	ldrvc	r3, [r3, -sp, lsr #4]!
      e4:	6c2f6e69 	stcvs	14, cr6, [pc], #-420	; ffffff48 <__bss_end__+0xffff6748>
      e8:	69706269 	ldmdbvs	r0!, {r0, r3, r5, r6, r9, sp, lr}^
      ec:	636e692f 	cmnvs	lr, #770048	; 0xbc000
      f0:	6564756c 	strbvs	r7, [r4, #-1388]!	; 0xfffffa94
      f4:	70670000 	rsbvc	r0, r7, r0
      f8:	2e666f72 	mcrcs	15, 3, r6, cr6, cr2, {3}
      fc:	00000063 	andeq	r0, r0, r3, rrx
     100:	64747300 	ldrbtvs	r7, [r4], #-768	; 0xfffffd00
     104:	2e666564 	cdpcs	5, 6, cr6, cr6, cr4, {3}
     108:	00010068 	andeq	r0, r1, r8, rrx
     10c:	64747300 	ldrbtvs	r7, [r4], #-768	; 0xfffffd00
     110:	2d746e69 	ldclcs	14, cr6, [r4, #-420]!	; 0xfffffe5c
     114:	2e636367 	cdpcs	3, 6, cr6, cr3, cr7, {3}
     118:	00010068 	andeq	r0, r1, r8, rrx
     11c:	636f6c00 	cmnvs	pc, #0, 24
     120:	00682e6b 	rsbeq	r2, r8, fp, ror #28
     124:	5f000002 	svcpl	0x00000002
     128:	65707974 	ldrbvs	r7, [r0, #-2420]!	; 0xfffff68c
     12c:	00682e73 	rsbeq	r2, r8, r3, ror lr
     130:	72000002 	andvc	r0, r0, #2, 0
     134:	746e6565 	strbtvc	r6, [lr], #-1381	; 0xfffffa9b
     138:	0200682e 	andeq	r6, r0, #3014656	; 0x2e0000
     13c:	70720000 	rsbsvc	r0, r2, r0
     140:	72612d69 	rsbvc	r2, r1, #6720	; 0x1a40
     144:	6d69746d 	cfstrdvs	mvd7, [r9, #-436]!	; 0xfffffe4c
     148:	682e7265 	stmdavs	lr!, {r0, r2, r5, r6, r9, ip, sp, lr}
     14c:	00000300 	andeq	r0, r0, r0, lsl #6
     150:	2d697072 	stclcs	0, cr7, [r9, #-456]!	; 0xfffffe38
     154:	65746e69 	ldrbvs	r6, [r4, #-3689]!	; 0xfffff197
     158:	70757272 	rsbsvc	r7, r5, r2, ror r2
     15c:	682e7374 	stmdavs	lr!, {r2, r4, r5, r6, r8, r9, ip, sp, lr}
     160:	00000300 	andeq	r0, r0, r0, lsl #6
     164:	6d6d656d 	cfstr64vs	mvdx6, [sp, #-436]!	; 0xfffffe4c
     168:	682e7061 	stmdavs	lr!, {r0, r5, r6, ip, sp, lr}
     16c:	00000300 	andeq	r0, r0, r0, lsl #6
     170:	2e697072 	mcrcs	0, 3, r7, cr9, cr2, {3}
     174:	00030068 	andeq	r0, r3, r8, rrx
     178:	6d697400 	cfstrdvs	mvd7, [r9, #-0]
     17c:	692d7265 	pushvs	{r0, r2, r5, r6, r9, ip, sp, lr}
     180:	7265746e 	rsbvc	r7, r5, #1845493760	; 0x6e000000
     184:	74707572 	ldrbtvc	r7, [r0], #-1394	; 0xfffffa8e
     188:	0000682e 	andeq	r6, r0, lr, lsr #16
     18c:	05000000 	streq	r0, [r0, #-0]
     190:	02050024 	andeq	r0, r5, #36, 0	; 0x24
     194:	00008038 	andeq	r8, r0, r8, lsr r0
     198:	05012a03 	streq	r2, [r1, #-2563]	; 0xfffff5fd
     19c:	0e051305 	cdpeq	3, 0, cr1, cr5, cr5, {0}
     1a0:	0d050106 	stfeqs	f0, [r5, #-24]	; 0xffffffe8
     1a4:	2e09052e 	cfsh32cs	mvfx0, mvfx9, #30
     1a8:	6630052e 	ldrtvs	r0, [r0], -lr, lsr #10
     1ac:	054b0105 	strbeq	r0, [fp, #-261]	; 0xfffffefb
     1b0:	73030622 	movwvc	r0, #13858	; 0x3622
     1b4:	2f050566 	svccs	0x00050566
     1b8:	01061905 	tsteq	r6, r5, lsl #18
     1bc:	05820a05 	streq	r0, [r2, #2565]	; 0xa05
     1c0:	054b0605 	strbeq	r0, [fp, #-1541]	; 0xfffff9fb
     1c4:	05010618 	streq	r0, [r1, #-1560]	; 0xfffff9e8
     1c8:	0505660a 	streq	r6, [r5, #-1546]	; 0xfffff9f6
     1cc:	0a052f06 	beq	14bdec <__bss_end__+0x1425ec>
     1d0:	06130501 	ldreq	r0, [r3], -r1, lsl #10
     1d4:	001a0501 	andseq	r0, sl, r1, lsl #10
     1d8:	06010402 	streq	r0, [r1], -r2, lsl #8
     1dc:	001c052e 	andseq	r0, ip, lr, lsr #10
     1e0:	06010402 	streq	r0, [r1], -r2, lsl #8
     1e4:	00050501 	andeq	r0, r5, r1, lsl #10
     1e8:	4a010402 	bmi	411f8 <__bss_end__+0x379f8>
     1ec:	02000905 	andeq	r0, r0, #81920	; 0x14000
     1f0:	2f060304 	svccs	0x00060304
     1f4:	02001105 	andeq	r1, r0, #1073741825	; 0x40000001
     1f8:	01060304 	tsteq	r6, r4, lsl #6
     1fc:	02002405 	andeq	r2, r0, #83886080	; 0x5000000
     200:	49060304 	stmdbmi	r6, {r2, r8, r9}
     204:	02002505 	andeq	r2, r0, #20971520	; 0x1400000
     208:	01060304 	tsteq	r6, r4, lsl #6
     20c:	03040200 	movweq	r0, #16896	; 0x4200
     210:	0402002e 	streq	r0, [r2], #-46	; 0xffffffd2
     214:	05052e03 	streq	r2, [r5, #-3587]	; 0xfffff1fd
     218:	0c051506 	cfstr32eq	mvfx1, [r5], {6}
     21c:	052e0106 	streq	r0, [lr, #-262]!	; 0xfffffefa
     220:	2a052f01 	bcs	14be2c <__bss_end__+0x14262c>
     224:	820b0306 	andhi	r0, fp, #402653184	; 0x18000000
     228:	05050106 	streq	r0, [r5, #-262]	; 0xfffffefa
     22c:	052f4b06 	streq	r4, [pc, #-2822]!	; fffff72e <__bss_end__+0xffff5f2e>
     230:	1105010a 	tstne	r5, sl, lsl #2
     234:	05050106 	streq	r0, [r5, #-262]	; 0xfffffefa
     238:	060d052e 	streq	r0, [sp], -lr, lsr #10
     23c:	00220530 	eoreq	r0, r2, r0, lsr r5
     240:	9c020402 	cfstrsls	mvf0, [r2], {2}
     244:	02002405 	andeq	r2, r0, #83886080	; 0x5000000
     248:	01060204 	tsteq	r6, r4, lsl #4
     24c:	02001805 	andeq	r1, r0, #327680	; 0x50000
     250:	2e060104 	adfcss	f0, f6, f4
     254:	02001a05 	andeq	r1, r0, #20480	; 0x5000
     258:	01060104 	tsteq	r6, r4, lsl #2
     25c:	02000505 	andeq	r0, r0, #20971520	; 0x1400000
     260:	054a0104 	strbeq	r0, [sl, #-260]	; 0xfffffefc
     264:	054b0609 	strbeq	r0, [fp, #-1545]	; 0xfffff9f7
     268:	05010611 	streq	r0, [r1, #-1553]	; 0xfffff9ef
     26c:	0566820c 	strbeq	r8, [r6, #-524]!	; 0xfffffdf4
     270:	05160605 	ldreq	r0, [r6, #-1541]	; 0xfffff9fb
     274:	052f0601 	streq	r0, [pc, #-1537]!	; fffffc7b <__bss_end__+0xffff647b>
     278:	0b030624 	bleq	c1b10 <__bss_end__+0xb8310>
     27c:	05010682 	streq	r0, [r1, #-1666]	; 0xfffff97e
     280:	2f4b0605 	svccs	0x004b0605
     284:	01061805 	tsteq	r6, r5, lsl #16
     288:	4e060505 	cfsh32mi	mvfx0, mvfx6, #5
     28c:	01060705 	tsteq	r6, r5, lsl #14
     290:	03060505 	movweq	r0, #25861	; 0x6505
     294:	4a064a09 	bmi	192ac0 <__bss_end__+0x1892c0>
     298:	08052f06 	stmdaeq	r5, {r1, r2, r8, r9, sl, fp, sp}
     29c:	05050106 	streq	r0, [r5, #-262]	; 0xfffffefa
     2a0:	134d8506 	movtne	r8, #54534	; 0xd506
     2a4:	01061405 	tsteq	r6, r5, lsl #8
     2a8:	2f060505 	svccs	0x00060505
     2ac:	01061705 	tsteq	r6, r5, lsl #14
     2b0:	002e2805 	eoreq	r2, lr, r5, lsl #16
     2b4:	2e010402 	cdpcs	4, 0, cr0, cr1, cr2, {0}
     2b8:	02000c05 	andeq	r0, r0, #1280	; 0x500
     2bc:	052e0404 	streq	r0, [lr, #-1028]!	; 0xfffffbfc
     2c0:	04020005 	streq	r0, [r2], #-5
     2c4:	054b0604 	strbeq	r0, [fp, #-1540]	; 0xfffff9fc
     2c8:	0402000e 	streq	r0, [r2], #-14
     2cc:	05010604 	streq	r0, [r1, #-1540]	; 0xfffff9fc
     2d0:	04020001 	streq	r0, [r2], #-1
     2d4:	10053104 	andne	r3, r5, r4, lsl #2
     2d8:	05058606 	streq	r8, [r5, #-1542]	; 0xfffff9fa
     2dc:	4c304b4b 			; <UNDEFINED> instruction: 0x4c304b4b
     2e0:	6713694c 	ldrvs	r6, [r3, -ip, asr #18]
     2e4:	4d2f4b31 	fstmdbxmi	pc!, {d4-d27}	;@ Deprecated
     2e8:	060e0513 			; <UNDEFINED> instruction: 0x060e0513
     2ec:	2f0a0511 	svccs	0x000a0511
     2f0:	33060d05 	movwcc	r0, #27909	; 0x6d05
     2f4:	05450a05 	strbeq	r0, [r5, #-2565]	; 0xfffff5fb
     2f8:	0501060e 	streq	r0, [r1, #-1550]	; 0xfffff9f2
     2fc:	09054a0a 	stmdbeq	r5, {r1, r3, r9, fp, lr}
     300:	05f44b06 	ldrbeq	r4, [r4, #2822]!	; 0xb06
     304:	0501060d 	streq	r0, [r1, #-1549]	; 0xfffff9f3
     308:	052f0609 	streq	r0, [pc, #-1545]!	; fffffd07 <__bss_end__+0xffff6507>
     30c:	05010611 	streq	r0, [r1, #-1553]	; 0xfffff9ef
     310:	05059e0b 	streq	r9, [r5, #-3595]	; 0xfffff1f5
     314:	10026906 	andne	r6, r2, r6, lsl #18
     318:	06010100 	streq	r0, [r1], -r0, lsl #2
     31c:	03000002 	movweq	r0, #2
     320:	00014900 	andeq	r4, r1, r0, lsl #18
     324:	fb010200 	blx	40b2e <__bss_end__+0x3732e>
     328:	01000d0e 	tsteq	r0, lr, lsl #26
     32c:	00010101 	andeq	r0, r1, r1, lsl #2
     330:	00010000 	andeq	r0, r1, r0
     334:	752f0100 	strvc	r0, [pc, #-256]!	; 23c <__code_start__-0x7dc4>
     338:	6c2f7273 	sfmvs	f7, 4, [pc], #-460	; 174 <__code_start__-0x7e8c>
     33c:	6c61636f 	stclvs	3, cr6, [r1], #-444	; 0xfffffe44
     340:	6c65432f 	stclvs	3, cr4, [r5], #-188	; 0xffffff44
     344:	2f72616c 	svccs	0x0072616c
     348:	2d6d7261 	sfmcs	f7, 2, [sp, #-388]!	; 0xfffffe7c
     34c:	656e6f6e 	strbvs	r6, [lr, #-3950]!	; 0xfffff092
     350:	6261652d 	rsbvs	r6, r1, #188743680	; 0xb400000
     354:	65742d69 	ldrbvs	r2, [r4, #-3433]!	; 0xfffff297
     358:	392f7473 	stmdbcc	pc!, {r0, r1, r4, r5, r6, sl, ip, sp, lr}	; <UNPREDICTABLE>
     35c:	3130322d 	teqcc	r0, sp, lsr #4
     360:	2d347139 	ldfcss	f7, [r4, #-228]!	; 0xffffff1c
     364:	30317363 	eorscc	r7, r1, r3, ror #6
     368:	612f6537 			; <UNDEFINED> instruction: 0x612f6537
     36c:	6e2d6d72 	mcrvs	13, 1, r6, cr13, cr2, {3}
     370:	2d656e6f 	stclcs	14, cr6, [r5, #-444]!	; 0xfffffe44
     374:	69626165 	stmdbvs	r2!, {r0, r2, r5, r6, r8, sp, lr}^
     378:	636e692f 	cmnvs	lr, #770048	; 0xbc000
     37c:	6564756c 	strbvs	r7, [r4, #-1388]!	; 0xfffffa94
     380:	7379732f 	cmnvc	r9, #-1140850688	; 0xbc000000
     384:	73752f00 	cmnvc	r5, #0, 30
     388:	6f6c2f72 	svcvs	0x006c2f72
     38c:	2f6c6163 	svccs	0x006c6163
     390:	6c6c6543 	cfstr64vs	mvdx6, [ip], #-268	; 0xfffffef4
     394:	612f7261 			; <UNDEFINED> instruction: 0x612f7261
     398:	6e2d6d72 	mcrvs	13, 1, r6, cr13, cr2, {3}
     39c:	2d656e6f 	stclcs	14, cr6, [r5, #-444]!	; 0xfffffe44
     3a0:	69626165 	stmdbvs	r2!, {r0, r2, r5, r6, r8, sp, lr}^
     3a4:	7365742d 	cmnvc	r5, #754974720	; 0x2d000000
     3a8:	2d392f74 	ldccs	15, cr2, [r9, #-464]!	; 0xfffffe30
     3ac:	39313032 	ldmdbcc	r1!, {r1, r4, r5, ip, sp}
     3b0:	632d3471 			; <UNDEFINED> instruction: 0x632d3471
     3b4:	37303173 			; <UNDEFINED> instruction: 0x37303173
     3b8:	696c2f65 	stmdbvs	ip!, {r0, r2, r5, r6, r8, r9, sl, fp, sp}^
     3bc:	63672f62 	cmnvs	r7, #392	; 0x188
     3c0:	72612f63 	rsbvc	r2, r1, #396	; 0x18c
     3c4:	6f6e2d6d 	svcvs	0x006e2d6d
     3c8:	652d656e 	strvs	r6, [sp, #-1390]!	; 0xfffffa92
     3cc:	2f696261 	svccs	0x00696261
     3d0:	2e322e39 	mrccs	14, 1, r2, cr2, cr9, {1}
     3d4:	6e692f31 	mcrvs	15, 3, r2, cr9, cr1, {1}
     3d8:	64756c63 	ldrbtvs	r6, [r5], #-3171	; 0xfffff39d
     3dc:	552f0065 	strpl	r0, [pc, #-101]!	; 37f <__code_start__-0x7c81>
     3e0:	73726573 	cmnvc	r2, #482344960	; 0x1cc00000
     3e4:	7875792f 	ldmdavc	r5!, {r0, r1, r2, r3, r5, r8, fp, ip, sp, lr}^
     3e8:	65706e69 	ldrbvs	r6, [r0, #-3689]!	; 0xfffff197
     3ec:	69472f69 	stmdbvs	r7, {r0, r3, r5, r6, r8, r9, sl, fp, sp}^
     3f0:	62754874 	rsbsvs	r4, r5, #116, 16	; 0x740000
     3f4:	3173632f 	cmncc	r3, pc, lsr #6
     3f8:	2d653034 	stclcs	0, cr3, [r5, #-208]!	; 0xffffff30
     3fc:	69773332 	ldmdbvs	r7!, {r1, r4, r5, r8, r9, ip, sp}^
     400:	696c2f6e 	stmdbvs	ip!, {r1, r2, r3, r5, r6, r8, r9, sl, fp, sp}^
     404:	2f697062 	svccs	0x00697062
     408:	6c636e69 	stclvs	14, cr6, [r3], #-420	; 0xfffffe5c
     40c:	00656475 	rsbeq	r6, r5, r5, ror r4
     410:	746e6900 	strbtvc	r6, [lr], #-2304	; 0xfffff700
     414:	75727265 	ldrbvc	r7, [r2, #-613]!	; 0xfffffd9b
     418:	2d737470 	cfldrdcs	mvd7, [r3, #-448]!	; 0xfffffe40
     41c:	00632e63 	rsbeq	r2, r3, r3, ror #28
     420:	6c000000 	stcvs	0, cr0, [r0], {-0}
     424:	2e6b636f 	cdpcs	3, 6, cr6, cr11, cr15, {3}
     428:	00010068 	andeq	r0, r1, r8, rrx
     42c:	79745f00 	ldmdbvc	r4!, {r8, r9, sl, fp, ip, lr}^
     430:	2e736570 	mrccs	5, 3, r6, cr3, cr0, {3}
     434:	00010068 	andeq	r0, r1, r8, rrx
     438:	64747300 	ldrbtvs	r7, [r4], #-768	; 0xfffffd00
     43c:	2e666564 	cdpcs	5, 6, cr6, cr6, cr4, {3}
     440:	00020068 	andeq	r0, r2, r8, rrx
     444:	65657200 	strbvs	r7, [r5, #-512]!	; 0xfffffe00
     448:	682e746e 	stmdavs	lr!, {r1, r2, r3, r5, r6, sl, ip, sp, lr}
     44c:	00000100 	andeq	r0, r0, r0, lsl #2
     450:	2e697072 	mcrcs	0, 3, r7, cr9, cr2, {3}
     454:	00030068 	andeq	r0, r3, r8, rrx
     458:	69707200 	ldmdbvs	r0!, {r9, ip, sp, lr}^
     45c:	746e692d 	strbtvc	r6, [lr], #-2349	; 0xfffff6d3
     460:	75727265 	ldrbvc	r7, [r2, #-613]!	; 0xfffffd9b
     464:	2e737470 	mrccs	4, 3, r7, cr3, cr0, {3}
     468:	00030068 	andeq	r0, r3, r8, rrx
     46c:	15050000 	strne	r0, [r5, #-0]
     470:	78020500 	stmdavc	r2, {r8, sl}
     474:	16000082 	strne	r0, [r0], -r2, lsl #1
     478:	67310505 	ldrvs	r0, [r1, -r5, lsl #10]!
     47c:	16133567 	ldrne	r3, [r3], -r7, ror #10
     480:	14061205 	strne	r1, [r6], #-517	; 0xfffffdfb
     484:	83060505 	movwhi	r0, #25861	; 0x6505
     488:	05010905 	streq	r0, [r1, #-2309]	; 0xfffff6fb
     48c:	0501060d 	streq	r0, [r1, #-1549]	; 0xfffff9f3
     490:	04020014 	streq	r0, [r2], #-20	; 0xffffffec
     494:	052e0601 	streq	r0, [lr, #-1537]!	; 0xfffff9ff
     498:	04020005 	streq	r0, [r2], #-5
     49c:	05010601 	streq	r0, [r1, #-1537]	; 0xfffff9ff
     4a0:	04020009 	streq	r0, [r2], #-9
     4a4:	054b0603 	strbeq	r0, [fp, #-1539]	; 0xfffff9fd
     4a8:	04020015 	streq	r0, [r2], #-21	; 0xffffffeb
     4ac:	05010603 	streq	r0, [r1, #-1539]	; 0xfffff9fd
     4b0:	04020010 	streq	r0, [r2], #-16
     4b4:	1b056603 	blne	159cc8 <__bss_end__+0x1504c8>
     4b8:	03040200 	movweq	r0, #16896	; 0x4200
     4bc:	1c052d06 	stcne	13, cr2, [r5], {6}
     4c0:	03040200 	movweq	r0, #16896	; 0x4200
     4c4:	02000106 	andeq	r0, r0, #-2147483647	; 0x80000001
     4c8:	052e0304 	streq	r0, [lr, #-772]!	; 0xfffffcfc
     4cc:	06a40629 	strteq	r0, [r4], r9, lsr #12
     4d0:	06020501 	streq	r0, [r2], -r1, lsl #10
     4d4:	d606014b 	strle	r0, [r6], -fp, asr #2
     4d8:	2d052e06 	stccs	14, cr2, [r5, #-24]	; 0xffffffe8
     4dc:	050106a2 	streq	r0, [r1, #-1698]	; 0xfffff95e
     4e0:	014b0602 	cmpeq	fp, r2, lsl #12
     4e4:	2e06d606 	cfmadd32cs	mvax0, mvfx13, mvfx6, mvfx6
     4e8:	06a02005 	strteq	r2, [r0], r5
     4ec:	06020501 	streq	r0, [r2], -r1, lsl #10
     4f0:	d606014b 	strle	r0, [r6], -fp, asr #2
     4f4:	30052e06 	andcc	r2, r5, r6, lsl #28
     4f8:	050106a0 	streq	r0, [r1, #-1696]	; 0xfffff960
     4fc:	014b0602 	cmpeq	fp, r2, lsl #12
     500:	2e06d606 	cfmadd32cs	mvax0, mvfx13, mvfx6, mvfx6
     504:	06a02905 	strteq	r2, [r0], r5, lsl #18
     508:	06020501 	streq	r0, [r2], -r1, lsl #10
     50c:	d606014b 	strle	r0, [r6], -fp, asr #2
     510:	25052e06 	strcs	r2, [r5, #-3590]	; 0xfffff1fa
     514:	050106a0 	streq	r0, [r1, #-1696]	; 0xfffff960
     518:	014b0602 	cmpeq	fp, r2, lsl #12
     51c:	2e06d606 	cfmadd32cs	mvax0, mvfx13, mvfx6, mvfx6
     520:	01000a02 	tsteq	r0, r2, lsl #20
     524:	00021401 	andeq	r1, r2, r1, lsl #8
     528:	6e000300 	cdpvs	3, 0, cr0, cr0, cr0, {0}
     52c:	02000001 	andeq	r0, r0, #1, 0
     530:	0d0efb01 	vstreq	d15, [lr, #-4]
     534:	01010100 	mrseq	r0, (UNDEF: 17)
     538:	00000001 	andeq	r0, r0, r1
     53c:	01000001 	tsteq	r0, r1
     540:	7273752f 	rsbsvc	r7, r3, #197132288	; 0xbc00000
     544:	636f6c2f 	cmnvs	pc, #12032	; 0x2f00
     548:	432f6c61 			; <UNDEFINED> instruction: 0x432f6c61
     54c:	616c6c65 	cmnvs	ip, r5, ror #24
     550:	72612f72 	rsbvc	r2, r1, #456	; 0x1c8
     554:	6f6e2d6d 	svcvs	0x006e2d6d
     558:	652d656e 	strvs	r6, [sp, #-1390]!	; 0xfffffa92
     55c:	2d696261 	sfmcs	f6, 2, [r9, #-388]!	; 0xfffffe7c
     560:	74736574 	ldrbtvc	r6, [r3], #-1396	; 0xfffffa8c
     564:	322d392f 	eorcc	r3, sp, #770048	; 0xbc000
     568:	71393130 	teqvc	r9, r0, lsr r1
     56c:	73632d34 	cmnvc	r3, #52, 26	; 0xd00
     570:	65373031 	ldrvs	r3, [r7, #-49]!	; 0xffffffcf
     574:	62696c2f 	rsbvs	r6, r9, #12032	; 0x2f00
     578:	6363672f 	cmnvs	r3, #12320768	; 0xbc0000
     57c:	6d72612f 	ldfvse	f6, [r2, #-188]!	; 0xffffff44
     580:	6e6f6e2d 	cdpvs	14, 6, cr6, cr15, cr13, {1}
     584:	61652d65 	cmnvs	r5, r5, ror #26
     588:	392f6962 	stmdbcc	pc!, {r1, r5, r6, r8, fp, sp, lr}	; <UNPREDICTABLE>
     58c:	312e322e 			; <UNDEFINED> instruction: 0x312e322e
     590:	636e692f 	cmnvs	lr, #770048	; 0xbc000
     594:	6564756c 	strbvs	r7, [r4, #-1388]!	; 0xfffffa94
     598:	73752f00 	cmnvc	r5, #0, 30
     59c:	6f6c2f72 	svcvs	0x006c2f72
     5a0:	2f6c6163 	svccs	0x006c6163
     5a4:	6c6c6543 	cfstr64vs	mvdx6, [ip], #-268	; 0xfffffef4
     5a8:	612f7261 			; <UNDEFINED> instruction: 0x612f7261
     5ac:	6e2d6d72 	mcrvs	13, 1, r6, cr13, cr2, {3}
     5b0:	2d656e6f 	stclcs	14, cr6, [r5, #-444]!	; 0xfffffe44
     5b4:	69626165 	stmdbvs	r2!, {r0, r2, r5, r6, r8, sp, lr}^
     5b8:	7365742d 	cmnvc	r5, #754974720	; 0x2d000000
     5bc:	2d392f74 	ldccs	15, cr2, [r9, #-464]!	; 0xfffffe30
     5c0:	39313032 	ldmdbcc	r1!, {r1, r4, r5, ip, sp}
     5c4:	632d3471 			; <UNDEFINED> instruction: 0x632d3471
     5c8:	37303173 			; <UNDEFINED> instruction: 0x37303173
     5cc:	72612f65 	rsbvc	r2, r1, #404	; 0x194
     5d0:	6f6e2d6d 	svcvs	0x006e2d6d
     5d4:	652d656e 	strvs	r6, [sp, #-1390]!	; 0xfffffa92
     5d8:	2f696261 	svccs	0x00696261
     5dc:	6c636e69 	stclvs	14, cr6, [r3], #-420	; 0xfffffe5c
     5e0:	2f656475 	svccs	0x00656475
     5e4:	00737973 	rsbseq	r7, r3, r3, ror r9
     5e8:	6573552f 	ldrbvs	r5, [r3, #-1327]!	; 0xfffffad1
     5ec:	792f7372 	stmdbvc	pc!, {r1, r4, r5, r6, r8, r9, ip, sp, lr}	; <UNPREDICTABLE>
     5f0:	6e697875 	mcrvs	8, 3, r7, cr9, cr5, {3}
     5f4:	2f696570 	svccs	0x00696570
     5f8:	48746947 	ldmdami	r4!, {r0, r1, r2, r6, r8, fp, sp, lr}^
     5fc:	632f6275 			; <UNDEFINED> instruction: 0x632f6275
     600:	30343173 	eorscc	r3, r4, r3, ror r1
     604:	33322d65 	teqcc	r2, #6464	; 0x1940
     608:	2f6e6977 	svccs	0x006e6977
     60c:	7062696c 	rsbvc	r6, r2, ip, ror #18
     610:	6e692f69 	cdpvs	15, 6, cr2, cr9, cr9, {3}
     614:	64756c63 	ldrbtvs	r6, [r5], #-3171	; 0xfffff39d
     618:	74000065 	strvc	r0, [r0], #-101	; 0xffffff9b
     61c:	72656d69 	rsbvc	r6, r5, #6720	; 0x1a40
     620:	746e692d 	strbtvc	r6, [lr], #-2349	; 0xfffff6d3
     624:	75727265 	ldrbvc	r7, [r2, #-613]!	; 0xfffffd9b
     628:	632e7470 			; <UNDEFINED> instruction: 0x632e7470
     62c:	00000000 	andeq	r0, r0, r0
     630:	69647473 	stmdbvs	r4!, {r0, r1, r4, r5, r6, sl, ip, sp, lr}^
     634:	672d746e 	strvs	r7, [sp, -lr, ror #8]!
     638:	682e6363 	stmdavs	lr!, {r0, r1, r5, r6, r8, r9, sp, lr}
     63c:	00000100 	andeq	r0, r0, r0, lsl #2
     640:	6b636f6c 	blvs	18dc3f8 <__bss_end__+0x18d2bf8>
     644:	0200682e 	andeq	r6, r0, #3014656	; 0x2e0000
     648:	745f0000 	ldrbvc	r0, [pc], #-0	; 650 <__code_start__-0x79b0>
     64c:	73657079 	cmnvc	r5, #121, 0	; 0x79
     650:	0200682e 	andeq	r6, r0, #3014656	; 0x2e0000
     654:	74730000 	ldrbtvc	r0, [r3], #-0
     658:	66656464 	strbtvs	r6, [r5], -r4, ror #8
     65c:	0100682e 	tsteq	r0, lr, lsr #16
     660:	65720000 	ldrbvs	r0, [r2, #-0]!
     664:	2e746e65 	cdpcs	14, 7, cr6, cr4, cr5, {3}
     668:	00020068 	andeq	r0, r2, r8, rrx
     66c:	69707200 	ldmdbvs	r0!, {r9, ip, sp, lr}^
     670:	6d72612d 	ldfvse	f6, [r2, #-180]!	; 0xffffff4c
     674:	656d6974 	strbvs	r6, [sp, #-2420]!	; 0xfffff68c
     678:	00682e72 	rsbeq	r2, r8, r2, ror lr
     67c:	72000003 	andvc	r0, r0, #3, 0
     680:	692d6970 	pushvs	{r4, r5, r6, r8, fp, sp, lr}
     684:	7265746e 	rsbvc	r7, r5, #1845493760	; 0x6e000000
     688:	74707572 	ldrbtvc	r7, [r0], #-1394	; 0xfffffa8e
     68c:	00682e73 	rsbeq	r2, r8, r3, ror lr
     690:	72000003 	andvc	r0, r0, #3, 0
     694:	682e6970 	stmdavs	lr!, {r4, r5, r6, r8, fp, sp, lr}
     698:	00000300 	andeq	r0, r0, r0, lsl #6
     69c:	00270500 	eoreq	r0, r7, r0, lsl #10
     6a0:	84440205 	strbhi	r0, [r4], #-517	; 0xfffffdfb
     6a4:	3e030000 	cdpcc	0, 0, cr0, cr3, cr0, {0}
     6a8:	4e050501 	cfsh32mi	mvfx0, mvfx5, #1
     6ac:	01010101 	tsteq	r1, r1, lsl #2
     6b0:	01010101 	tsteq	r1, r1, lsl #2
     6b4:	01010101 	tsteq	r1, r1, lsl #2
     6b8:	01010101 	tsteq	r1, r1, lsl #2
     6bc:	01011301 	tsteq	r1, r1, lsl #6
     6c0:	01010101 	tsteq	r1, r1, lsl #2
     6c4:	01010101 	tsteq	r1, r1, lsl #2
     6c8:	01010101 	tsteq	r1, r1, lsl #2
     6cc:	13010101 	movwne	r0, #4353	; 0x1101
     6d0:	01010101 	tsteq	r1, r1, lsl #2
     6d4:	01010101 	tsteq	r1, r1, lsl #2
     6d8:	01010101 	tsteq	r1, r1, lsl #2
     6dc:	01010101 	tsteq	r1, r1, lsl #2
     6e0:	01011301 	tsteq	r1, r1, lsl #6
     6e4:	01010101 	tsteq	r1, r1, lsl #2
     6e8:	01010101 	tsteq	r1, r1, lsl #2
     6ec:	01010101 	tsteq	r1, r1, lsl #2
     6f0:	13010101 	movwne	r0, #4353	; 0x1101
     6f4:	01010101 	tsteq	r1, r1, lsl #2
     6f8:	01010101 	tsteq	r1, r1, lsl #2
     6fc:	01010101 	tsteq	r1, r1, lsl #2
     700:	01010101 	tsteq	r1, r1, lsl #2
     704:	01011301 	tsteq	r1, r1, lsl #6
     708:	01010101 	tsteq	r1, r1, lsl #2
     70c:	01010101 	tsteq	r1, r1, lsl #2
     710:	01010101 	tsteq	r1, r1, lsl #2
     714:	13010101 	movwne	r0, #4353	; 0x1101
     718:	01310501 	teqeq	r1, r1, lsl #10
     71c:	05130505 	ldreq	r0, [r3, #-1285]	; 0xfffffafb
     720:	054b0601 	strbeq	r0, [fp, #-1537]	; 0xfffff9ff
     724:	4603062d 	strmi	r0, [r3], -sp, lsr #12
     728:	05010666 	streq	r0, [r1, #-1638]	; 0xfffff99a
     72c:	324b0605 	subcc	r0, fp, #5242880	; 0x500000
     730:	01056a6a 	tsteq	r5, sl, ror #20
     734:	661d0306 	ldrvs	r0, [sp], -r6, lsl #6
     738:	01000802 	tsteq	r0, r2, lsl #16
     73c:	0003fa01 	andeq	pc, r3, r1, lsl #20
     740:	0f000300 	svceq	0x00000300
     744:	02000001 	andeq	r0, r0, #1, 0
     748:	0d0efb01 	vstreq	d15, [lr, #-4]
     74c:	01010100 	mrseq	r0, (UNDEF: 17)
     750:	00000001 	andeq	r0, r0, r1
     754:	01000001 	tsteq	r0, r1
     758:	6d6f682f 	stclvs	8, cr6, [pc, #-188]!	; 6a4 <__code_start__-0x795c>
     75c:	6e652f65 	cdpvs	15, 6, cr2, cr5, cr5, {3}
     760:	72656c67 	rsbvc	r6, r5, #26368	; 0x6700
     764:	616c632f 	cmnvs	ip, pc, lsr #6
     768:	632f7373 			; <UNDEFINED> instruction: 0x632f7373
     76c:	30343173 	eorscc	r3, r4, r3, ror r1
     770:	33322d65 	teqcc	r2, #6464	; 0x1940
     774:	2f6e6977 	svccs	0x006e6977
     778:	62696c2f 	rsbvs	r6, r9, #12032	; 0x2f00
     77c:	692f6970 	stmdbvs	pc!, {r4, r5, r6, r8, fp, sp, lr}	; <UNPREDICTABLE>
     780:	756c636e 	strbvc	r6, [ip, #-878]!	; 0xfffffc92
     784:	2f006564 	svccs	0x00006564
     788:	2f727375 	svccs	0x00727375
     78c:	72616873 	rsbvc	r6, r1, #7536640	; 0x730000
     790:	63672f65 	cmnvs	r7, #404	; 0x194
     794:	72612d63 	rsbvc	r2, r1, #6336	; 0x18c0
     798:	6f6e2d6d 	svcvs	0x006e2d6d
     79c:	652d656e 	strvs	r6, [sp, #-1390]!	; 0xfffffa92
     7a0:	2d696261 	sfmcs	f6, 2, [r9, #-388]!	; 0xfffffe7c
     7a4:	332e3031 			; <UNDEFINED> instruction: 0x332e3031
     7a8:	3230322d 	eorscc	r3, r0, #-805306366	; 0xd0000002
     7ac:	30312e31 	eorscc	r2, r1, r1, lsr lr
     7b0:	6d72612f 	ldfvse	f6, [r2, #-188]!	; 0xffffff44
     7b4:	6e6f6e2d 	cdpvs	14, 6, cr6, cr15, cr13, {1}
     7b8:	61652d65 	cmnvs	r5, r5, ror #26
     7bc:	692f6962 	stmdbvs	pc!, {r1, r5, r6, r8, fp, sp, lr}	; <UNPREDICTABLE>
     7c0:	756c636e 	strbvc	r6, [ip, #-878]!	; 0xfffffc92
     7c4:	2f006564 	svccs	0x00006564
     7c8:	2f727375 	svccs	0x00727375
     7cc:	72616873 	rsbvc	r6, r1, #7536640	; 0x730000
     7d0:	63672f65 	cmnvs	r7, #404	; 0x194
     7d4:	72612d63 	rsbvc	r2, r1, #6336	; 0x18c0
     7d8:	6f6e2d6d 	svcvs	0x006e2d6d
     7dc:	652d656e 	strvs	r6, [sp, #-1390]!	; 0xfffffa92
     7e0:	2d696261 	sfmcs	f6, 2, [r9, #-388]!	; 0xfffffe7c
     7e4:	332e3031 			; <UNDEFINED> instruction: 0x332e3031
     7e8:	3230322d 	eorscc	r3, r0, #-805306366	; 0xd0000002
     7ec:	30312e31 	eorscc	r2, r1, r1, lsr lr
     7f0:	62696c2f 	rsbvs	r6, r9, #12032	; 0x2f00
     7f4:	6363672f 	cmnvs	r3, #12320768	; 0xbc0000
     7f8:	6d72612f 	ldfvse	f6, [r2, #-188]!	; 0xffffff44
     7fc:	6e6f6e2d 	cdpvs	14, 6, cr6, cr15, cr13, {1}
     800:	61652d65 	cmnvs	r5, r5, ror #26
     804:	312f6962 			; <UNDEFINED> instruction: 0x312f6962
     808:	2e332e30 	mrccs	14, 1, r2, cr3, cr0, {1}
     80c:	6e692f31 	mcrvs	15, 3, r2, cr9, cr1, {1}
     810:	64756c63 	ldrbtvs	r6, [r5], #-3171	; 0xfffff39d
     814:	6b000065 	blvs	9b0 <__code_start__-0x7650>
     818:	6c6c616d 	stfvse	f6, [ip], #-436	; 0xfffffe4c
     81c:	632e636f 			; <UNDEFINED> instruction: 0x632e636f
     820:	00000000 	andeq	r0, r0, r0
     824:	6d6d656d 	cfstr64vs	mvdx6, [sp, #-436]!	; 0xfffffe4c
     828:	682e7061 	stmdavs	lr!, {r0, r5, r6, ip, sp, lr}
     82c:	00000100 	andeq	r0, r0, r0, lsl #2
     830:	2e697072 	mcrcs	0, 3, r7, cr9, cr2, {3}
     834:	00010068 	andeq	r0, r1, r8, rrx
     838:	72747300 	rsbsvc	r7, r4, #0, 6
     83c:	2e676e69 	cdpcs	14, 6, cr6, cr7, cr9, {3}
     840:	00020068 	andeq	r0, r2, r8, rrx
     844:	64747300 	ldrbtvs	r7, [r4], #-768	; 0xfffffd00
     848:	2d746e69 	ldclcs	14, cr6, [r4, #-420]!	; 0xfffffe5c
     84c:	2e636367 	cdpcs	3, 6, cr6, cr3, cr7, {3}
     850:	00030068 	andeq	r0, r3, r8, rrx
     854:	1e050000 	cdpne	0, 0, cr0, cr5, cr0, {0}
     858:	70020500 	andvc	r0, r2, r0, lsl #10
     85c:	03000085 	movweq	r0, #133	; 0x85
     860:	20050128 	andcs	r0, r5, r8, lsr #2
     864:	062d0501 	strteq	r0, [sp], -r1, lsl #10
     868:	06200501 	strteq	r0, [r0], -r1, lsl #10
     86c:	01220583 	smlawbeq	r2, r3, r5, r0
     870:	01063505 	tsteq	r6, r5, lsl #10
     874:	83061e05 	movwhi	r1, #28165	; 0x6e05
     878:	05012005 	streq	r2, [r1, #-5]
     87c:	0501062d 	streq	r0, [r1, #-1581]	; 0xfffff9d3
     880:	0685063f 			; <UNDEFINED> instruction: 0x0685063f
     884:	06050501 	streq	r0, [r5], -r1, lsl #10
     888:	0805134b 	stmdaeq	r5, {r0, r1, r3, r6, r8, r9, ip}
     88c:	07050106 	streq	r0, [r5, -r6, lsl #2]
     890:	0609054a 	streq	r0, [r9], -sl, asr #10
     894:	1305054b 	movwne	r0, #21835	; 0x554b
     898:	01060c05 	tsteq	r6, r5, lsl #24
     89c:	68060505 	stmdavs	r6, {r0, r2, r8, sl}
     8a0:	02000114 	andeq	r0, r0, #5
     8a4:	004a0204 	subeq	r0, sl, r4, lsl #4
     8a8:	15020402 	strne	r0, [r2, #-1026]	; 0xfffffbfe
     8ac:	02000d05 	andeq	r0, r0, #320	; 0x140
     8b0:	01060204 	tsteq	r6, r4, lsl #4
     8b4:	02000705 	andeq	r0, r0, #1310720	; 0x140000
     8b8:	054a0204 	strbeq	r0, [sl, #-516]	; 0xfffffdfc
     8bc:	054b0609 	strbeq	r0, [fp, #-1545]	; 0xfffff9f7
     8c0:	17051505 	strne	r1, [r5, -r5, lsl #10]
     8c4:	10050106 	andne	r0, r5, r6, lsl #2
     8c8:	0605054a 	streq	r0, [r5], -sl, asr #10
     8cc:	061b052f 	ldreq	r0, [fp], -pc, lsr #10
     8d0:	2e0e0501 	cfsh32cs	mvfx0, mvfx14, #1
     8d4:	052f0105 	streq	r0, [pc, #-261]!	; 7d7 <__code_start__-0x7829>
     8d8:	72030609 	andvc	r0, r3, #9437184	; 0x900000
     8dc:	6606014a 	strvs	r0, [r6], -sl, asr #2
     8e0:	052e062e 	streq	r0, [lr, #-1582]!	; 0xfffff9d2
     8e4:	04020005 	streq	r0, [r2], #-5
     8e8:	02003301 	andeq	r3, r0, #67108864	; 0x4000000
     8ec:	9e060104 	adflss	f0, f6, f4
     8f0:	01040200 	mrseq	r0, R12_usr
     8f4:	0402002e 	streq	r0, [r2], #-46	; 0xffffffd2
     8f8:	052e0601 	streq	r0, [lr, #-1537]!	; 0xfffff9ff
     8fc:	06013209 	streq	r3, [r1], -r9, lsl #4
     900:	2e062ed6 	mcrcs	14, 0, r2, cr6, cr6, {6}
     904:	28081905 	stmdacs	r8, {r0, r2, r8, fp, ip}
     908:	142f0505 	strtne	r0, [pc], #-1285	; 910 <__code_start__-0x76f0>
     90c:	01060805 	tsteq	r6, r5, lsl #16
     910:	054a0705 	strbeq	r0, [sl, #-1797]	; 0xfffff8fb
     914:	054b0609 	strbeq	r0, [fp, #-1545]	; 0xfffff9f7
     918:	0c051305 	stceq	3, cr1, [r5], {5}
     91c:	05050106 	streq	r0, [r5, #-262]	; 0xfffffefa
     920:	05166706 	ldreq	r6, [r6, #-1798]	; 0xfffff8fa
     924:	05670601 	strbeq	r0, [r7, #-1537]!	; 0xfffff9ff
     928:	79030609 	stmdbvc	r3, {r0, r3, r9, sl}
     92c:	059e012e 	ldreq	r0, [lr, #302]	; 0x12e
     930:	9e0a0328 	cdpls	3, 0, cr0, cr10, cr8, {1}
     934:	05050106 	streq	r0, [r5, #-262]	; 0xfffffefa
     938:	06014b06 	streq	r4, [r1], -r6, lsl #22
     93c:	132e062e 			; <UNDEFINED> instruction: 0x132e062e
     940:	be031805 	cdplt	8, 0, cr1, cr3, cr5, {0}
     944:	0505017f 	streq	r0, [r5, #-383]	; 0xfffffe81
     948:	01060113 	tsteq	r6, r3, lsl r1
     94c:	13150f06 	tstne	r5, #6, 30
     950:	01060e05 	tsteq	r6, r5, lsl #28
     954:	2e2e1605 	cfmadda32cs	mvax0, mvax1, mvfx14, mvfx5
     958:	03060505 	movweq	r0, #25861	; 0x6505
     95c:	050100c2 	streq	r0, [r1, #-194]	; 0xffffff3e
     960:	0501060b 	streq	r0, [r1, #-1547]	; 0xfffff9f5
     964:	054b0605 	strbeq	r0, [fp, #-1541]	; 0xfffff9fb
     968:	0501060a 	streq	r0, [r1, #-1546]	; 0xfffff9f6
     96c:	054b0605 	strbeq	r0, [fp, #-1541]	; 0xfffff9fb
     970:	0501060d 	streq	r0, [r1, #-1549]	; 0xfffff9f3
     974:	01052e07 	tsteq	r5, r7, lsl #28
     978:	0005054e 	andeq	r0, r5, lr, asr #10
     97c:	06010402 	streq	r0, [r1], -r2, lsl #8
     980:	004a7703 	subeq	r7, sl, r3, lsl #14
     984:	06010402 	streq	r0, [r1], -r2, lsl #8
     988:	040200ba 	streq	r0, [r2], #-186	; 0xffffff46
     98c:	052e0601 	streq	r0, [lr, #-1537]!	; 0xfffff9ff
     990:	06013409 	streq	r3, [r1], -r9, lsl #8
     994:	2e066682 	cfmadd32cs	mvax4, mvfx6, mvfx6, mvfx2
     998:	06dc2005 	ldrbeq	r2, [ip], r5
     99c:	06050501 	streq	r0, [r5], -r1, lsl #10
     9a0:	0200014b 	andeq	r0, r0, #-1073741806	; 0xc0000012
     9a4:	004a0204 	subeq	r0, sl, r4, lsl #4
     9a8:	13020402 	movwne	r0, #9218	; 0x2402
     9ac:	02001205 	andeq	r1, r0, #1342177280	; 0x50000000
     9b0:	01060204 	tsteq	r6, r4, lsl #4
     9b4:	02040200 	andeq	r0, r4, #0, 4
     9b8:	0402002e 	streq	r0, [r2], #-46	; 0xffffffd2
     9bc:	05052e02 	streq	r2, [r5, #-3586]	; 0xfffff1fe
     9c0:	02040200 	andeq	r0, r4, #0, 4
     9c4:	02002f06 	andeq	r2, r0, #6, 30
     9c8:	05670204 	strbeq	r0, [r7, #-516]!	; 0xfffffdfc
     9cc:	04020001 	streq	r0, [r2], #-1
     9d0:	05130602 	ldreq	r0, [r3, #-1538]	; 0xfffff9fe
     9d4:	04020005 	streq	r0, [r2], #-5
     9d8:	00620601 	rsbeq	r0, r2, r1, lsl #12
     9dc:	06010402 	streq	r0, [r1], -r2, lsl #8
     9e0:	040200ba 	streq	r0, [r2], #-186	; 0xffffff46
     9e4:	052e0601 	streq	r0, [lr, #-1537]!	; 0xfffff9ff
     9e8:	9e0a033c 	mcrls	3, 0, r0, cr10, cr12, {1}
     9ec:	05050106 	streq	r0, [r5, #-262]	; 0xfffffefa
     9f0:	06014b06 	streq	r4, [r1], -r6, lsl #22
     9f4:	132e062e 			; <UNDEFINED> instruction: 0x132e062e
     9f8:	03180501 	tsteq	r8, #4194304	; 0x400000
     9fc:	05017fa3 	streq	r7, [r1, #-4003]	; 0xfffff05d
     a00:	11051305 	tstne	r5, r5, lsl #6
     a04:	052e0106 	streq	r0, [lr, #-262]!	; 0xfffffefa
     a08:	00dc0305 	sbcseq	r0, ip, r5, lsl #6
     a0c:	134a0601 	movtne	r0, #42497	; 0xa601
     a10:	99031805 	stmdbls	r3, {r0, r2, fp, ip}
     a14:	0505017f 	streq	r0, [r5, #-383]	; 0xfffffe81
     a18:	06160513 			; <UNDEFINED> instruction: 0x06160513
     a1c:	05054a01 	streq	r4, [r5, #-2561]	; 0xfffff5ff
     a20:	00eb0306 	rsceq	r0, fp, r6, lsl #6
     a24:	06120501 	ldreq	r0, [r2], -r1, lsl #10
     a28:	06050501 	streq	r0, [r5], -r1, lsl #10
     a2c:	0318054b 	tsteq	r8, #314572800	; 0x12c00000
     a30:	05017f9f 	streq	r7, [r1, #-3999]	; 0xfffff061
     a34:	05011305 	streq	r1, [r1, #-773]	; 0xfffffcfb
     a38:	05050e18 	streq	r0, [r5, #-3608]	; 0xfffff1e8
     a3c:	06110513 			; <UNDEFINED> instruction: 0x06110513
     a40:	05052e01 	streq	r2, [r5, #-3585]	; 0xfffff1ff
     a44:	134a0615 	movtne	r0, #42517	; 0xa615
     a48:	01060e05 	tsteq	r6, r5, lsl #28
     a4c:	2e16052e 	cfmul64cs	mvdx0, mvdx6, mvdx14
     a50:	0605052e 	streq	r0, [r5], -lr, lsr #10
     a54:	0100e003 	tsteq	r0, r3
     a58:	03180501 	tsteq	r8, #4194304	; 0x400000
     a5c:	05017f95 	streq	r7, [r1, #-3989]	; 0xfffff06b
     a60:	19051305 	stmdbne	r5, {r0, r2, r8, r9, ip}
     a64:	052e0106 	streq	r0, [lr, #-262]!	; 0xfffffefa
     a68:	00ea0305 	rsceq	r0, sl, r5, lsl #6
     a6c:	04020001 	streq	r0, [r2], #-1
     a70:	004a0602 	subeq	r0, sl, r2, lsl #12
     a74:	14020402 	strne	r0, [r2], #-1026	; 0xfffffbfe
     a78:	02000a05 	andeq	r0, r0, #20480	; 0x5000
     a7c:	01060204 	tsteq	r6, r4, lsl #4
     a80:	02000505 	andeq	r0, r0, #20971520	; 0x1400000
     a84:	4b060204 	blmi	18129c <__bss_end__+0x177a9c>
     a88:	02000c05 	andeq	r0, r0, #1280	; 0x500
     a8c:	01060204 	tsteq	r6, r4, lsl #4
     a90:	02000105 	andeq	r0, r0, #1073741825	; 0x40000001
     a94:	052f0204 	streq	r0, [pc, #-516]!	; 898 <__code_start__-0x7768>
     a98:	04020005 	streq	r0, [r2], #-5
     a9c:	73030601 	movwvc	r0, #13825	; 0x3601
     aa0:	0402004a 	streq	r0, [r2], #-74	; 0xffffffb6
     aa4:	009e0601 	addseq	r0, lr, r1, lsl #12
     aa8:	2e010402 	cdpcs	4, 0, cr0, cr1, cr2, {0}
     aac:	01040200 	mrseq	r0, R12_usr
     ab0:	02002e06 	andeq	r2, r0, #96	; 0x60
     ab4:	002f0104 	eoreq	r0, pc, r4, lsl #2
     ab8:	06010402 	streq	r0, [r1], -r2, lsl #8
     abc:	040200d6 	streq	r0, [r2], #-214	; 0xffffff2a
     ac0:	02002e01 	andeq	r2, r0, #1, 28
     ac4:	2e060104 	adfcss	f0, f6, f4
     ac8:	2e7fa703 	cdpcs	7, 7, cr10, cr15, cr3, {0}
     acc:	2e2e8206 	cdpcs	2, 2, cr8, cr14, cr6, {0}
     ad0:	2e062e06 	cdpcs	14, 0, cr2, cr6, cr6, {0}
     ad4:	01040200 	mrseq	r0, R12_usr
     ad8:	00e10306 	rsceq	r0, r1, r6, lsl #6
     adc:	04020001 	streq	r0, [r2], #-1
     ae0:	002e0601 	eoreq	r0, lr, r1, lsl #12
     ae4:	9e010402 	cdpls	4, 0, cr0, cr1, cr2, {0}
     ae8:	01040200 	mrseq	r0, R12_usr
     aec:	0402004a 	streq	r0, [r2], #-74	; 0xffffffb6
     af0:	052e0601 	streq	r0, [lr, #-1537]!	; 0xfffff9ff
     af4:	080a0316 	stmdaeq	sl, {r1, r2, r4, r8, r9}
     af8:	01180590 			; <UNDEFINED> instruction: 0x01180590
     afc:	01061d05 	tsteq	r6, r5, lsl #26
     b00:	05662b05 	strbeq	r2, [r6, #-2821]!	; 0xfffff4fb
     b04:	054d0619 	strbeq	r0, [sp, #-1561]	; 0xfffff9e7
     b08:	0c051305 	stceq	3, cr1, [r5], {5}
     b0c:	07050106 	streq	r0, [r5, -r6, lsl #2]
     b10:	0025054a 	eoreq	r0, r5, sl, asr #10
     b14:	4a010402 	bmi	41b24 <__bss_end__+0x38324>
     b18:	02001e05 	andeq	r1, r0, #80	; 0x50
     b1c:	054a0104 	strbeq	r0, [sl, #-260]	; 0xfffffefc
     b20:	054b0609 	strbeq	r0, [fp, #-1545]	; 0xfffff9f7
     b24:	0a051305 	beq	145740 <__bss_end__+0x13bf40>
     b28:	19050106 	stmdbne	r5, {r1, r2, r8}
     b2c:	06090563 	streq	r0, [r9], -r3, ror #10
     b30:	9e06014c 	adflssm	f0, f6, #4.0
     b34:	0a022e06 	beq	8c354 <__bss_end__+0x82b54>
     b38:	b8010100 	stmdalt	r1, {r8}
     b3c:	03000001 	movweq	r0, #1
     b40:	0000d600 	andeq	sp, r0, r0, lsl #12
     b44:	fb010200 	blx	4134e <__bss_end__+0x37b4e>
     b48:	01000d0e 	tsteq	r0, lr, lsl #26
     b4c:	00010101 	andeq	r0, r1, r1, lsl #2
     b50:	00010000 	andeq	r0, r1, r0
     b54:	2f2e0100 	svccs	0x002e0100
     b58:	6362696c 	cmnvs	r2, #108, 18	; 0x1b0000
     b5c:	73752f00 	cmnvc	r5, #0, 30
     b60:	6f6c2f72 	svcvs	0x006c2f72
     b64:	2f6c6163 	svccs	0x006c6163
     b68:	6c6c6543 	cfstr64vs	mvdx6, [ip], #-268	; 0xfffffef4
     b6c:	612f7261 			; <UNDEFINED> instruction: 0x612f7261
     b70:	6e2d6d72 	mcrvs	13, 1, r6, cr13, cr2, {3}
     b74:	2d656e6f 	stclcs	14, cr6, [r5, #-444]!	; 0xfffffe44
     b78:	69626165 	stmdbvs	r2!, {r0, r2, r5, r6, r8, sp, lr}^
     b7c:	7365742d 	cmnvc	r5, #754974720	; 0x2d000000
     b80:	2d392f74 	ldccs	15, cr2, [r9, #-464]!	; 0xfffffe30
     b84:	39313032 	ldmdbcc	r1!, {r1, r4, r5, ip, sp}
     b88:	632d3471 			; <UNDEFINED> instruction: 0x632d3471
     b8c:	37303173 			; <UNDEFINED> instruction: 0x37303173
     b90:	696c2f65 	stmdbvs	ip!, {r0, r2, r5, r6, r8, r9, sl, fp, sp}^
     b94:	63672f62 	cmnvs	r7, #392	; 0x188
     b98:	72612f63 	rsbvc	r2, r1, #396	; 0x18c
     b9c:	6f6e2d6d 	svcvs	0x006e2d6d
     ba0:	652d656e 	strvs	r6, [sp, #-1390]!	; 0xfffffa92
     ba4:	2f696261 	svccs	0x00696261
     ba8:	2e322e39 	mrccs	14, 1, r2, cr2, cr9, {1}
     bac:	6e692f31 	mcrvs	15, 3, r2, cr9, cr1, {1}
     bb0:	64756c63 	ldrbtvs	r6, [r5], #-3171	; 0xfffff39d
     bb4:	552f0065 	strpl	r0, [pc, #-101]!	; b57 <__code_start__-0x74a9>
     bb8:	73726573 	cmnvc	r2, #482344960	; 0x1cc00000
     bbc:	7875792f 	ldmdavc	r5!, {r0, r1, r2, r3, r5, r8, fp, ip, sp, lr}^
     bc0:	65706e69 	ldrbvs	r6, [r0, #-3689]!	; 0xfffff197
     bc4:	69472f69 	stmdbvs	r7, {r0, r3, r5, r6, r8, r9, sl, fp, sp}^
     bc8:	62754874 	rsbsvs	r4, r5, #116, 16	; 0x740000
     bcc:	3173632f 	cmncc	r3, pc, lsr #6
     bd0:	2d653034 	stclcs	0, cr3, [r5, #-208]!	; 0xffffff30
     bd4:	69773332 	ldmdbvs	r7!, {r1, r4, r5, r8, r9, ip, sp}^
     bd8:	696c2f6e 	stmdbvs	ip!, {r1, r2, r3, r5, r6, r8, r9, sl, fp, sp}^
     bdc:	2f697062 	svccs	0x00697062
     be0:	6c636e69 	stclvs	14, cr6, [r3], #-420	; 0xfffffe5c
     be4:	00656475 	rsbeq	r6, r5, r5, ror r4
     be8:	6d656d00 	stclvs	13, cr6, [r5, #-0]
     bec:	2e746573 	mrccs	5, 3, r6, cr4, cr3, {3}
     bf0:	00010063 	andeq	r0, r1, r3, rrx
     bf4:	64747300 	ldrbtvs	r7, [r4], #-768	; 0xfffffd00
     bf8:	2e666564 	cdpcs	5, 6, cr6, cr6, cr4, {3}
     bfc:	00020068 	andeq	r0, r2, r8, rrx
     c00:	64747300 	ldrbtvs	r7, [r4], #-768	; 0xfffffd00
     c04:	2d746e69 	ldclcs	14, cr6, [r4, #-420]!	; 0xfffffe5c
     c08:	2e636367 	cdpcs	3, 6, cr6, cr3, cr7, {3}
     c0c:	00020068 	andeq	r0, r2, r8, rrx
     c10:	69707200 	ldmdbvs	r0!, {r9, ip, sp, lr}^
     c14:	0300682e 	movweq	r6, #2094	; 0x82e
     c18:	05000000 	streq	r0, [r0, #-0]
     c1c:	0205002a 	andeq	r0, r5, #42, 0	; 0x2a
     c20:	00008964 	andeq	r8, r0, r4, ror #18
     c24:	05010618 	streq	r0, [r1, #-1560]	; 0xfffff9e8
     c28:	014b0605 	cmpeq	fp, r5, lsl #12
     c2c:	02002e06 	andeq	r2, r0, #96	; 0x60
     c30:	2e060204 	cdpcs	2, 0, cr0, cr6, cr4, {0}
     c34:	02040200 	andeq	r0, r4, #0, 4
     c38:	00070514 	andeq	r0, r7, r4, lsl r5
     c3c:	06020402 	streq	r0, [r2], -r2, lsl #8
     c40:	06090501 	streq	r0, [r9], -r1, lsl #10
     c44:	060b054b 	streq	r0, [fp], -fp, asr #10
     c48:	001a0501 	andseq	r0, sl, r1, lsl #10
     c4c:	4a010402 	bmi	41c5c <__bss_end__+0x3845c>
     c50:	50061005 	andpl	r1, r6, r5
     c54:	01061205 	tsteq	r6, r5, lsl #4
     c58:	02002105 	andeq	r2, r0, #1073741825	; 0x40000001
     c5c:	054a0104 	strbeq	r0, [sl, #-260]	; 0xfffffefc
     c60:	0a030605 	beq	c247c <__bss_end__+0xb8c7c>
     c64:	0615054a 	ldreq	r0, [r5], -sl, asr #10
     c68:	06050501 	streq	r0, [r5], -r1, lsl #10
     c6c:	060a052f 	streq	r0, [sl], -pc, lsr #10
     c70:	00050501 	andeq	r0, r5, r1, lsl #10
     c74:	06010402 	streq	r0, [r1], -r2, lsl #8
     c78:	002e6c03 	eoreq	r6, lr, r3, lsl #24
     c7c:	06010402 	streq	r0, [r1], -r2, lsl #8
     c80:	04020082 	streq	r0, [r2], #-130	; 0xffffff7e
     c84:	02002e01 	andeq	r2, r0, #1, 28
     c88:	002e0104 	eoreq	r0, lr, r4, lsl #2
     c8c:	06010402 	streq	r0, [r1], -r2, lsl #8
     c90:	320d052e 	andcc	r0, sp, #192937984	; 0xb800000
     c94:	060f0513 			; <UNDEFINED> instruction: 0x060f0513
     c98:	060d0501 	streq	r0, [sp], -r1, lsl #10
     c9c:	0612052f 	ldreq	r0, [r2], -pc, lsr #10
     ca0:	06110501 	ldreq	r0, [r1], -r1, lsl #10
     ca4:	0616052f 	ldreq	r0, [r6], -pc, lsr #10
     ca8:	65140501 	ldrvs	r0, [r4, #-1281]	; 0xfffffaff
     cac:	2e061205 	cdpcs	2, 0, cr1, cr6, cr5, {0}
     cb0:	01061405 	tsteq	r6, r5, lsl #8
     cb4:	4a2e1205 	bmi	b854d0 <__bss_end__+0xb7bcd0>
     cb8:	060d052e 	streq	r0, [sp], -lr, lsr #10
     cbc:	0f051317 	svceq	0x00051317
     cc0:	0d050106 	stfeqs	f0, [r5, #-24]	; 0xffffffe8
     cc4:	12052f06 	andne	r2, r5, #6, 30
     cc8:	11050106 	tstne	r5, r6, lsl #2
     ccc:	16052f06 	strne	r2, [r5], -r6, lsl #30
     cd0:	14050106 	strne	r0, [r5], #-262	; 0xfffffefa
     cd4:	0612052d 	ldreq	r0, [r2], -sp, lsr #10
     cd8:	0614052e 	ldreq	r0, [r4], -lr, lsr #10
     cdc:	2e120501 	cfmul32cs	mvfx0, mvfx2, mvfx1
     ce0:	09052e4a 	stmdbeq	r5, {r1, r3, r6, r9, sl, fp, sp}
     ce4:	0e051a06 	vmlaeq.f32	s2, s10, s12
     ce8:	0a050106 	beq	141108 <__bss_end__+0x137908>
     cec:	01052d06 	tsteq	r5, r6, lsl #26
     cf0:	0c024d06 	stceq	13, cr4, [r2], {6}
     cf4:	cf010100 	svcgt	0x00010100
     cf8:	03000002 	movweq	r0, #2
     cfc:	0000e400 	andeq	lr, r0, r0, lsl #8
     d00:	fb010200 	blx	4150a <__bss_end__+0x37d0a>
     d04:	01000d0e 	tsteq	r0, lr, lsl #26
     d08:	00010101 	andeq	r0, r1, r1, lsl #2
     d0c:	00010000 	andeq	r0, r1, r0
     d10:	2f2e0100 	svccs	0x002e0100
     d14:	6362696c 	cmnvs	r2, #108, 18	; 0x1b0000
     d18:	73752f00 	cmnvc	r5, #0, 30
     d1c:	6f6c2f72 	svcvs	0x006c2f72
     d20:	2f6c6163 	svccs	0x006c6163
     d24:	6c6c6543 	cfstr64vs	mvdx6, [ip], #-268	; 0xfffffef4
     d28:	612f7261 			; <UNDEFINED> instruction: 0x612f7261
     d2c:	6e2d6d72 	mcrvs	13, 1, r6, cr13, cr2, {3}
     d30:	2d656e6f 	stclcs	14, cr6, [r5, #-444]!	; 0xfffffe44
     d34:	69626165 	stmdbvs	r2!, {r0, r2, r5, r6, r8, sp, lr}^
     d38:	7365742d 	cmnvc	r5, #754974720	; 0x2d000000
     d3c:	2d392f74 	ldccs	15, cr2, [r9, #-464]!	; 0xfffffe30
     d40:	39313032 	ldmdbcc	r1!, {r1, r4, r5, ip, sp}
     d44:	632d3471 			; <UNDEFINED> instruction: 0x632d3471
     d48:	37303173 			; <UNDEFINED> instruction: 0x37303173
     d4c:	696c2f65 	stmdbvs	ip!, {r0, r2, r5, r6, r8, r9, sl, fp, sp}^
     d50:	63672f62 	cmnvs	r7, #392	; 0x188
     d54:	72612f63 	rsbvc	r2, r1, #396	; 0x18c
     d58:	6f6e2d6d 	svcvs	0x006e2d6d
     d5c:	652d656e 	strvs	r6, [sp, #-1390]!	; 0xfffffa92
     d60:	2f696261 	svccs	0x00696261
     d64:	2e322e39 	mrccs	14, 1, r2, cr2, cr9, {1}
     d68:	6e692f31 	mcrvs	15, 3, r2, cr9, cr1, {1}
     d6c:	64756c63 	ldrbtvs	r6, [r5], #-3171	; 0xfffff39d
     d70:	552f0065 	strpl	r0, [pc, #-101]!	; d13 <__code_start__-0x72ed>
     d74:	73726573 	cmnvc	r2, #482344960	; 0x1cc00000
     d78:	7875792f 	ldmdavc	r5!, {r0, r1, r2, r3, r5, r8, fp, ip, sp, lr}^
     d7c:	65706e69 	ldrbvs	r6, [r0, #-3689]!	; 0xfffff197
     d80:	69472f69 	stmdbvs	r7, {r0, r3, r5, r6, r8, r9, sl, fp, sp}^
     d84:	62754874 	rsbsvs	r4, r5, #116, 16	; 0x740000
     d88:	3173632f 	cmncc	r3, pc, lsr #6
     d8c:	2d653034 	stclcs	0, cr3, [r5, #-208]!	; 0xffffff30
     d90:	69773332 	ldmdbvs	r7!, {r1, r4, r5, r8, r9, ip, sp}^
     d94:	696c2f6e 	stmdbvs	ip!, {r1, r2, r3, r5, r6, r8, r9, sl, fp, sp}^
     d98:	2f697062 	svccs	0x00697062
     d9c:	6c636e69 	stclvs	14, cr6, [r3], #-420	; 0xfffffe5c
     da0:	00656475 	rsbeq	r6, r5, r5, ror r4
     da4:	69727000 	ldmdbvs	r2!, {ip, sp, lr}^
     da8:	2e6b746e 	cdpcs	4, 6, cr7, cr11, cr14, {3}
     dac:	00010063 	andeq	r0, r1, r3, rrx
     db0:	64747300 	ldrbtvs	r7, [r4], #-768	; 0xfffffd00
     db4:	2d746e69 	ldclcs	14, cr6, [r4, #-420]!	; 0xfffffe5c
     db8:	2e636367 	cdpcs	3, 6, cr6, cr3, cr7, {3}
     dbc:	00020068 	andeq	r0, r2, r8, rrx
     dc0:	64747300 	ldrbtvs	r7, [r4], #-768	; 0xfffffd00
     dc4:	2e677261 	cdpcs	2, 6, cr7, cr7, cr1, {3}
     dc8:	00020068 	andeq	r0, r2, r8, rrx
     dcc:	69707200 	ldmdbvs	r0!, {r9, ip, sp, lr}^
     dd0:	0300682e 	movweq	r6, #2094	; 0x82e
     dd4:	623c0000 	eorsvs	r0, ip, #0, 0
     dd8:	746c6975 	strbtvc	r6, [ip], #-2421	; 0xfffff68b
     ddc:	3e6e692d 	vmulcc.f16	s13, s28, s27	; <UNPREDICTABLE>
     de0:	00000000 	andeq	r0, r0, r0
     de4:	00220500 	eoreq	r0, r2, r0, lsl #10
     de8:	8a300205 	bhi	c01604 <__bss_end__+0xbf7e04>
     dec:	cf030000 	svcgt	0x00030000
     df0:	01060100 	mrseq	r0, (UNDEF: 22)
     df4:	67060505 	strvs	r0, [r6, -r5, lsl #10]
     df8:	08051314 	stmdaeq	r5, {r2, r4, r8, r9, ip}
     dfc:	060e054b 	streq	r0, [lr], -fp, asr #10
     e00:	06050501 	streq	r0, [r5], -r1, lsl #10
     e04:	0105134b 	tsteq	r5, fp, asr #6
     e08:	31051306 	tstcc	r5, r6, lsl #6
     e0c:	7fad0306 	svcvc	0x00ad0306
     e10:	05010682 	streq	r0, [r1, #-1666]	; 0xfffff97e
     e14:	144b0605 	strbne	r0, [fp], #-1541	; 0xfffff9fb
     e18:	11030905 	tstne	r3, r5, lsl #18
     e1c:	820601ba 	andhi	r0, r6, #-2147483602	; 0x8000002e
     e20:	052e062e 	streq	r0, [lr, #-1582]!	; 0xfffff9d2
     e24:	6f030605 	svcvs	0x00030605
     e28:	0009052e 	andeq	r0, r9, lr, lsr #10
     e2c:	06010402 	streq	r0, [r1], -r2, lsl #8
     e30:	000d0530 	andeq	r0, sp, r0, lsr r5
     e34:	13010402 	movwne	r0, #5122	; 0x1402
     e38:	02001b05 	andeq	r1, r0, #5120	; 0x1400
     e3c:	01060104 	tsteq	r6, r4, lsl #2
     e40:	02001805 	andeq	r1, r0, #327680	; 0x50000
     e44:	052e0104 	streq	r0, [lr, #-260]!	; 0xfffffefc
     e48:	04020012 	streq	r0, [r2], #-18	; 0xffffffee
     e4c:	10054a01 	andne	r4, r5, r1, lsl #20
     e50:	01040200 	mrseq	r0, R12_usr
     e54:	09054b06 	stmdbeq	r5, {r1, r2, r8, r9, fp, lr}
     e58:	01040200 	mrseq	r0, R12_usr
     e5c:	02000106 	andeq	r0, r0, #-2147483647	; 0x80000001
     e60:	054a0104 	strbeq	r0, [sl, #-260]	; 0xfffffefc
     e64:	09054605 	stmdbeq	r5, {r0, r2, r9, sl, lr}
     e68:	01040200 	mrseq	r0, R12_usr
     e6c:	0d053506 	cfstr32eq	mvfx3, [r5, #-24]	; 0xffffffe8
     e70:	01040200 	mrseq	r0, R12_usr
     e74:	00230513 	eoreq	r0, r3, r3, lsl r5
     e78:	06010402 	streq	r0, [r1], -r2, lsl #8
     e7c:	00200501 	eoreq	r0, r0, r1, lsl #10
     e80:	ba010402 	blt	41e90 <__bss_end__+0x38690>
     e84:	02001205 	andeq	r1, r0, #1342177280	; 0x50000000
     e88:	054a0104 	strbeq	r0, [sl, #-260]	; 0xfffffefc
     e8c:	04020010 	streq	r0, [r2], #-16
     e90:	054b0601 	strbeq	r0, [fp, #-1537]	; 0xfffff9ff
     e94:	04020013 	streq	r0, [r2], #-19	; 0xffffffed
     e98:	052e0601 	streq	r0, [lr, #-1537]!	; 0xfffff9ff
     e9c:	04020009 	streq	r0, [r2], #-9
     ea0:	05052e01 	streq	r2, [r5, #-3585]	; 0xfffff1ff
     ea4:	05667703 	strbeq	r7, [r6, #-1795]!	; 0xfffff8fd
     ea8:	04020009 	streq	r0, [r2], #-9
     eac:	0c030601 	stceq	6, cr0, [r3], {1}
     eb0:	000d052e 	andeq	r0, sp, lr, lsr #10
     eb4:	13010402 	movwne	r0, #5122	; 0x1402
     eb8:	02002905 	andeq	r2, r0, #81920	; 0x14000
     ebc:	01060104 	tsteq	r6, r4, lsl #2
     ec0:	02002605 	andeq	r2, r0, #5242880	; 0x500000
     ec4:	052e0104 	streq	r0, [lr, #-260]!	; 0xfffffefc
     ec8:	04020012 	streq	r0, [r2], #-18	; 0xffffffee
     ecc:	10054a01 	andne	r4, r5, r1, lsl #20
     ed0:	01040200 	mrseq	r0, R12_usr
     ed4:	09054b06 	stmdbeq	r5, {r1, r2, r8, r9, fp, lr}
     ed8:	01040200 	mrseq	r0, R12_usr
     edc:	02000106 	andeq	r0, r0, #-2147483647	; 0x80000001
     ee0:	064a0104 	strbeq	r0, [sl], -r4, lsl #2
     ee4:	2e061352 	mcrcs	3, 0, r1, cr6, cr2, {2}
     ee8:	02000a05 	andeq	r0, r0, #20480	; 0x5000
     eec:	2c060104 	stfcss	f0, [r6], {4}
     ef0:	6a060105 	bvs	18130c <__bss_end__+0x177b0c>
     ef4:	062a054a 	strteq	r0, [sl], -sl, asr #10
     ef8:	60020500 	andvs	r0, r2, r0, lsl #10
     efc:	1500008b 	strne	r0, [r0, #-139]	; 0xffffff75
     f00:	05050106 	streq	r0, [r5, #-262]	; 0xfffffefa
     f04:	0d058306 	stceq	3, cr8, [r5, #-24]	; 0xffffffe8
     f08:	03160530 	tsteq	r6, #48, 10	; 0xc000000
     f0c:	11054a22 	tstne	r5, r2, lsr #20
     f10:	05015c03 	streq	r5, [r1, #-3075]	; 0xfffff3fd
     f14:	05010614 	streq	r0, [r1, #-1556]	; 0xfffff9ec
     f18:	0402000b 	streq	r0, [r2], #-11
     f1c:	052e0601 	streq	r0, [lr, #-1537]!	; 0xfffff9ff
     f20:	04020005 	streq	r0, [r2], #-5
     f24:	052e0601 	streq	r0, [lr, #-1537]!	; 0xfffff9ff
     f28:	054b0609 	strbeq	r0, [fp, #-1545]	; 0xfffff9f7
     f2c:	0501060b 	streq	r0, [r1, #-1547]	; 0xfffff9f5
     f30:	054d060d 	strbeq	r0, [sp, #-1549]	; 0xfffff9f3
     f34:	05010610 	streq	r0, [r1, #-1552]	; 0xfffff9f0
     f38:	1330060d 	teqne	r0, #13631488	; 0xd00000
     f3c:	14051413 	strne	r1, [r5], #-1043	; 0xfffffbed
     f40:	17050106 	strne	r0, [r5, -r6, lsl #2]
     f44:	13380206 	teqne	r8, #1610612736	; 0x60000000
     f48:	05ba3a05 	ldreq	r3, [sl, #2565]!	; 0xa05
     f4c:	0501060d 	streq	r0, [r1, #-1549]	; 0xfffff9f3
     f50:	052f0617 	streq	r0, [pc, #-1559]!	; 941 <__code_start__-0x76bf>
     f54:	0d05ba3b 	vstreq	s22, [r5, #-236]	; 0xffffff14
     f58:	17050106 	strne	r0, [r5, -r6, lsl #2]
     f5c:	31052f06 	tstcc	r5, r6, lsl #30
     f60:	060d059e 			; <UNDEFINED> instruction: 0x060d059e
     f64:	06110501 	ldreq	r0, [r1], -r1, lsl #10
     f68:	bb4b4b33 	bllt	12d3c3c <__bss_end__+0x12ca43c>
     f6c:	06130531 			; <UNDEFINED> instruction: 0x06130531
     f70:	06110501 	ldreq	r0, [r1], -r1, lsl #10
     f74:	06130583 	ldreq	r0, [r3], -r3, lsl #11
     f78:	06110501 	ldreq	r0, [r1], -r1, lsl #10
     f7c:	1505674e 	strne	r6, [r5, #-1870]	; 0xfffff8b2
     f80:	17054b2a 	strne	r4, [r5, -sl, lsr #22]
     f84:	052e0106 	streq	r0, [lr, #-262]!	; 0xfffffefa
     f88:	05340611 	ldreq	r0, [r4, #-1553]!	; 0xfffff9ef
     f8c:	05010617 	streq	r0, [r1, #-1559]	; 0xfffff9e9
     f90:	15058211 	strne	r8, [r5, #-529]	; 0xfffffdef
     f94:	03040200 	movweq	r0, #16896	; 0x4200
     f98:	31052f06 	tstcc	r5, r6, lsl #30
     f9c:	03040200 	movweq	r0, #16896	; 0x4200
     fa0:	0032052d 	eorseq	r0, r2, sp, lsr #10
     fa4:	06030402 	streq	r0, [r3], -r2, lsl #8
     fa8:	002d0501 	eoreq	r0, sp, r1, lsl #10
     fac:	06010402 	streq	r0, [r1], -r2, lsl #8
     fb0:	0011052e 	andseq	r0, r1, lr, lsr #10
     fb4:	06010402 	streq	r0, [r1], -r2, lsl #8
     fb8:	0616052e 	ldreq	r0, [r6], -lr, lsr #10
     fbc:	06ba0169 	ldrteq	r0, [sl], r9, ror #2
     fc0:	1701052e 	strne	r0, [r1, -lr, lsr #10]
     fc4:	0006024a 	andeq	r0, r6, sl, asr #4
     fc8:	00840101 	addeq	r0, r4, r1, lsl #2
     fcc:	00030000 	andeq	r0, r3, r0
     fd0:	00000062 	andeq	r0, r0, r2, rrx
     fd4:	0efb0102 	cdpeq	1, 15, cr0, cr11, cr2, {0}
     fd8:	0101000d 	tsteq	r1, sp
     fdc:	00000101 	andeq	r0, r0, r1, lsl #2
     fe0:	00000100 	andeq	r0, r0, r0, lsl #2
     fe4:	6c2f2e01 	stcvs	14, cr2, [pc], #-4	; fe8 <__code_start__-0x7018>
     fe8:	00636269 	rsbeq	r6, r3, r9, ror #4
     fec:	6573552f 	ldrbvs	r5, [r3, #-1327]!	; 0xfffffad1
     ff0:	792f7372 	stmdbvc	pc!, {r1, r4, r5, r6, r8, r9, ip, sp, lr}	; <UNPREDICTABLE>
     ff4:	6e697875 	mcrvs	8, 3, r7, cr9, cr5, {3}
     ff8:	2f696570 	svccs	0x00696570
     ffc:	48746947 	ldmdami	r4!, {r0, r1, r2, r6, r8, fp, sp, lr}^
    1000:	632f6275 			; <UNDEFINED> instruction: 0x632f6275
    1004:	30343173 	eorscc	r3, r4, r3, ror r1
    1008:	33322d65 	teqcc	r2, #6464	; 0x1940
    100c:	2f6e6977 	svccs	0x006e6977
    1010:	7062696c 	rsbvc	r6, r2, ip, ror #18
    1014:	6e692f69 	cdpvs	15, 6, cr2, cr9, cr9, {3}
    1018:	64756c63 	ldrbtvs	r6, [r5], #-3171	; 0xfffff39d
    101c:	70000065 	andvc	r0, r0, r5, rrx
    1020:	68637475 	stmdavs	r3!, {r0, r2, r4, r5, r6, sl, ip, sp, lr}^
    1024:	632e7261 			; <UNDEFINED> instruction: 0x632e7261
    1028:	00000100 	andeq	r0, r0, r0, lsl #2
    102c:	2e697072 	mcrcs	0, 3, r7, cr9, cr2, {3}
    1030:	00020068 	andeq	r0, r2, r8, rrx
    1034:	18050000 	stmdane	r5, {}	; <UNPREDICTABLE>
    1038:	18020500 	stmdane	r2, {r8, sl}
    103c:	1400008d 	strne	r0, [r0], #-141	; 0xffffff73
    1040:	1a050106 	bne	141460 <__bss_end__+0x137c60>
    1044:	28054a06 	stmdacs	r5, {r1, r2, r9, fp, lr}
    1048:	0601052e 	streq	r0, [r1], -lr, lsr #10
    104c:	00040201 	andeq	r0, r4, r1, lsl #4
    1050:	00870101 	addeq	r0, r7, r1, lsl #2
    1054:	00030000 	andeq	r0, r3, r0
    1058:	0000006c 	andeq	r0, r0, ip, rrx
    105c:	0efb0102 	cdpeq	1, 15, cr0, cr11, cr2, {0}
    1060:	0101000d 	tsteq	r1, sp
    1064:	00000101 	andeq	r0, r0, r1, lsl #2
    1068:	00000100 	andeq	r0, r0, r0, lsl #2
    106c:	732f2e01 			; <UNDEFINED> instruction: 0x732f2e01
    1070:	66666174 			; <UNDEFINED> instruction: 0x66666174
    1074:	6372732d 	cmnvs	r2, #-1275068416	; 0xb4000000
    1078:	73552f00 	cmpvc	r5, #0, 30
    107c:	2f737265 	svccs	0x00737265
    1080:	69787579 	ldmdbvs	r8!, {r0, r3, r4, r5, r6, r8, sl, ip, sp, lr}^
    1084:	6965706e 	stmdbvs	r5!, {r1, r2, r3, r5, r6, ip, sp, lr}^
    1088:	7469472f 	strbtvc	r4, [r9], #-1839	; 0xfffff8d1
    108c:	2f627548 	svccs	0x00627548
    1090:	34317363 	ldrtcc	r7, [r1], #-867	; 0xfffffc9d
    1094:	322d6530 	eorcc	r6, sp, #48, 10	; 0xc000000
    1098:	6e697733 	mcrvs	7, 3, r7, cr9, cr3, {1}
    109c:	62696c2f 	rsbvs	r6, r9, #12032	; 0x2f00
    10a0:	692f6970 	stmdbvs	pc!, {r4, r5, r6, r8, fp, sp, lr}	; <UNPREDICTABLE>
    10a4:	756c636e 	strbvc	r6, [ip, #-878]!	; 0xfffffc92
    10a8:	00006564 	andeq	r6, r0, r4, ror #10
    10ac:	61656c63 	cmnvs	r5, r3, ror #24
    10b0:	65722d6e 	ldrbvs	r2, [r2, #-3438]!	; 0xfffff292
    10b4:	746f6f62 	strbtvc	r6, [pc], #-3938	; 10bc <__code_start__-0x6f44>
    10b8:	0100632e 	tsteq	r0, lr, lsr #6
    10bc:	70720000 	rsbsvc	r0, r2, r0
    10c0:	00682e69 	rsbeq	r2, r8, r9, ror #28
    10c4:	00000002 	andeq	r0, r0, r2
    10c8:	05001905 	streq	r1, [r0, #-2309]	; 0xfffff6fb
    10cc:	008d2c02 	addeq	r2, sp, r2, lsl #24
    10d0:	05051500 	streq	r1, [r5, #-1280]	; 0xfffffb00
    10d4:	4b2f4b2f 	blmi	bd3d98 <__bss_end__+0xbca598>
    10d8:	01000402 	tsteq	r0, r2, lsl #8
    10dc:	0000a001 	andeq	sl, r0, r1
    10e0:	66000300 	strvs	r0, [r0], -r0, lsl #6
    10e4:	02000000 	andeq	r0, r0, #0, 0
    10e8:	0d0efb01 	vstreq	d15, [lr, #-4]
    10ec:	01010100 	mrseq	r0, (UNDEF: 17)
    10f0:	00000001 	andeq	r0, r0, r1
    10f4:	01000001 	tsteq	r0, r1
    10f8:	74732f2e 	ldrbtvc	r2, [r3], #-3886	; 0xfffff0d2
    10fc:	2d666661 	stclcs	6, cr6, [r6, #-388]!	; 0xfffffe7c
    1100:	00637273 	rsbeq	r7, r3, r3, ror r2
    1104:	6573552f 	ldrbvs	r5, [r3, #-1327]!	; 0xfffffad1
    1108:	792f7372 	stmdbvc	pc!, {r1, r4, r5, r6, r8, r9, ip, sp, lr}	; <UNPREDICTABLE>
    110c:	6e697875 	mcrvs	8, 3, r7, cr9, cr5, {3}
    1110:	2f696570 	svccs	0x00696570
    1114:	48746947 	ldmdami	r4!, {r0, r1, r2, r6, r8, fp, sp, lr}^
    1118:	632f6275 			; <UNDEFINED> instruction: 0x632f6275
    111c:	30343173 	eorscc	r3, r4, r3, ror r1
    1120:	33322d65 	teqcc	r2, #6464	; 0x1940
    1124:	2f6e6977 	svccs	0x006e6977
    1128:	7062696c 	rsbvc	r6, r2, ip, ror #18
    112c:	6e692f69 	cdpvs	15, 6, cr2, cr9, cr9, {3}
    1130:	64756c63 	ldrbtvs	r6, [r5], #-3171	; 0xfffff39d
    1134:	63000065 	movwvs	r0, #101	; 0x65
    1138:	72617473 	rsbvc	r7, r1, #1929379840	; 0x73000000
    113c:	00632e74 	rsbeq	r2, r3, r4, ror lr
    1140:	72000001 	andvc	r0, r0, #1, 0
    1144:	682e6970 	stmdavs	lr!, {r4, r5, r6, r8, fp, sp, lr}
    1148:	00000200 	andeq	r0, r0, r0, lsl #4
    114c:	00100500 	andseq	r0, r0, r0, lsl #10
    1150:	8d4c0205 	sfmhi	f0, 2, [ip, #-20]	; 0xffffffec
    1154:	05150000 	ldreq	r0, [r5, #-0]
    1158:	02052f05 	andeq	r2, r5, #5, 30
    115c:	15050513 	strne	r0, [r5, #-1299]	; 0xfffffaed
    1160:	0a051413 	beq	1461b4 <__bss_end__+0x13c9b4>
    1164:	31060f06 	tstcc	r6, r6, lsl #30
    1168:	054b0905 	strbeq	r0, [fp, #-2309]	; 0xfffff6fb
    116c:	4a010610 	bmi	429b4 <__bss_end__+0x391b4>
    1170:	30060505 	andcc	r0, r6, r5, lsl #10
    1174:	4a010132 	bmi	41644 <__bss_end__+0x37e44>
    1178:	2f020514 	svccs	0x00020514
    117c:	01000602 	tsteq	r0, r2, lsl #12
    1180:	0000d401 	andeq	sp, r0, r1, lsl #8
    1184:	66000300 	strvs	r0, [r0], -r0, lsl #6
    1188:	02000000 	andeq	r0, r0, #0, 0
    118c:	0d0efb01 	vstreq	d15, [lr, #-4]
    1190:	01010100 	mrseq	r0, (UNDEF: 17)
    1194:	00000001 	andeq	r0, r0, r1
    1198:	01000001 	tsteq	r0, r1
    119c:	74732f2e 	ldrbtvc	r2, [r3], #-3886	; 0xfffff0d2
    11a0:	2d666661 	stclcs	6, cr6, [r6, #-388]!	; 0xfffffe7c
    11a4:	00637273 	rsbeq	r7, r3, r3, ror r2
    11a8:	6573552f 	ldrbvs	r5, [r3, #-1327]!	; 0xfffffad1
    11ac:	792f7372 	stmdbvc	pc!, {r1, r4, r5, r6, r8, r9, ip, sp, lr}	; <UNPREDICTABLE>
    11b0:	6e697875 	mcrvs	8, 3, r7, cr9, cr5, {3}
    11b4:	2f696570 	svccs	0x00696570
    11b8:	48746947 	ldmdami	r4!, {r0, r1, r2, r6, r8, fp, sp, lr}^
    11bc:	632f6275 			; <UNDEFINED> instruction: 0x632f6275
    11c0:	30343173 	eorscc	r3, r4, r3, ror r1
    11c4:	33322d65 	teqcc	r2, #6464	; 0x1940
    11c8:	2f6e6977 	svccs	0x006e6977
    11cc:	7062696c 	rsbvc	r6, r2, ip, ror #18
    11d0:	6e692f69 	cdpvs	15, 6, cr2, cr9, cr9, {3}
    11d4:	64756c63 	ldrbtvs	r6, [r5], #-3171	; 0xfffff39d
    11d8:	72000065 	andvc	r0, r0, #101, 0	; 0x65
    11dc:	6f6f6265 	svcvs	0x006f6265
    11e0:	00632e74 	rsbeq	r2, r3, r4, ror lr
    11e4:	72000001 	andvc	r0, r0, #1, 0
    11e8:	682e6970 	stmdavs	lr!, {r4, r5, r6, r8, fp, sp, lr}
    11ec:	00000200 	andeq	r0, r0, r0, lsl #4
    11f0:	00190500 	andseq	r0, r9, r0, lsl #10
    11f4:	8d9c0205 	lfmhi	f0, 4, [ip, #20]
    11f8:	0d030000 	stceq	0, cr0, [r3, #-0]
    11fc:	13050501 	movwne	r0, #21761	; 0x5501
    1200:	13053113 	movwne	r3, #20755	; 0x5113
    1204:	01050106 	tsteq	r5, r6, lsl #2
    1208:	061b052f 	ldreq	r0, [fp], -pc, lsr #10
    120c:	13050585 	movwne	r0, #21893	; 0x5585
    1210:	2f090514 	svccs	0x00090514
    1214:	01061605 	tsteq	r6, r5, lsl #12
    1218:	052e0e05 	streq	r0, [lr, #-3589]!	; 0xfffff1fb
    121c:	052f0605 	streq	r0, [pc, #-1541]!	; c1f <__code_start__-0x73e1>
    1220:	052f0601 	streq	r0, [pc, #-1537]!	; c27 <__code_start__-0x73d9>
    1224:	05300617 	ldreq	r0, [r0, #-1559]!	; 0xfffff9e9
    1228:	08052f05 	stmdaeq	r5, {r0, r2, r8, r9, sl, fp, sp}
    122c:	07050106 	streq	r0, [r5, -r6, lsl #2]
    1230:	0605052e 	streq	r0, [r5], -lr, lsr #10
    1234:	134d2f50 	movtne	r2, #57168	; 0xdf50
    1238:	67151313 			; <UNDEFINED> instruction: 0x67151313
    123c:	01040200 	mrseq	r0, R12_usr
    1240:	000d0567 	andeq	r0, sp, r7, ror #10
    1244:	01010402 	tsteq	r1, r2, lsl #8
    1248:	02000a05 	andeq	r0, r0, #20480	; 0x5000
    124c:	05010104 	streq	r0, [r1, #-260]	; 0xfffffefc
    1250:	2e6f0309 	cdpcs	3, 6, cr0, cr15, cr9, {0}
    1254:	01000c02 	tsteq	r0, r2, lsl #24
    1258:	0000dc01 	andeq	sp, r0, r1, lsl #24
    125c:	65000300 	strvs	r0, [r0, #-768]	; 0xfffffd00
    1260:	02000000 	andeq	r0, r0, #0, 0
    1264:	0d0efb01 	vstreq	d15, [lr, #-4]
    1268:	01010100 	mrseq	r0, (UNDEF: 17)
    126c:	00000001 	andeq	r0, r0, r1
    1270:	01000001 	tsteq	r0, r1
    1274:	74732f2e 	ldrbtvc	r2, [r3], #-3886	; 0xfffff0d2
    1278:	2d666661 	stclcs	6, cr6, [r6, #-388]!	; 0xfffffe7c
    127c:	00637273 	rsbeq	r7, r3, r3, ror r2
    1280:	6573552f 	ldrbvs	r5, [r3, #-1327]!	; 0xfffffad1
    1284:	792f7372 	stmdbvc	pc!, {r1, r4, r5, r6, r8, r9, ip, sp, lr}	; <UNPREDICTABLE>
    1288:	6e697875 	mcrvs	8, 3, r7, cr9, cr5, {3}
    128c:	2f696570 	svccs	0x00696570
    1290:	48746947 	ldmdami	r4!, {r0, r1, r2, r6, r8, fp, sp, lr}^
    1294:	632f6275 			; <UNDEFINED> instruction: 0x632f6275
    1298:	30343173 	eorscc	r3, r4, r3, ror r1
    129c:	33322d65 	teqcc	r2, #6464	; 0x1940
    12a0:	2f6e6977 	svccs	0x006e6977
    12a4:	7062696c 	rsbvc	r6, r2, ip, ror #18
    12a8:	6e692f69 	cdpvs	15, 6, cr2, cr9, cr9, {3}
    12ac:	64756c63 	ldrbtvs	r6, [r5], #-3171	; 0xfffff39d
    12b0:	74000065 	strvc	r0, [r0], #-101	; 0xffffff9b
    12b4:	72656d69 	rsbvc	r6, r5, #6720	; 0x1a40
    12b8:	0100632e 	tsteq	r0, lr, lsr #6
    12bc:	70720000 	rsbsvc	r0, r2, r0
    12c0:	00682e69 	rsbeq	r2, r8, r9, ror #28
    12c4:	00000002 	andeq	r0, r0, r2
    12c8:	05002305 	streq	r2, [r0, #-773]	; 0xfffffcfb
    12cc:	008e1802 	addeq	r1, lr, r2, lsl #16
    12d0:	05051500 	streq	r1, [r5, #-1280]	; 0xfffffb00
    12d4:	060c052f 	streq	r0, [ip], -pc, lsr #10
    12d8:	4b010501 	blmi	426e4 <__bss_end__+0x38ee4>
    12dc:	4d061f05 	stcmi	15, cr1, [r6, #-20]	; 0xffffffec
    12e0:	2f310505 	svccs	0x00310505
    12e4:	01061205 	tsteq	r6, r5, lsl #4
    12e8:	4b060505 	blmi	182704 <__bss_end__+0x178f04>
    12ec:	0601052f 	streq	r0, [r1], -pc, lsr #10
    12f0:	061c0513 			; <UNDEFINED> instruction: 0x061c0513
    12f4:	0501064c 	streq	r0, [r1, #-1612]	; 0xfffff9b4
    12f8:	054b0605 	strbeq	r0, [fp, #-1541]	; 0xfffff9fb
    12fc:	2e010613 	mcrcs	6, 0, r0, cr1, cr3, {0}
    1300:	2f060505 	svccs	0x00060505
    1304:	05130905 	ldreq	r0, [r3, #-2309]	; 0xfffff6fb
    1308:	05010617 	streq	r0, [r1, #-1559]	; 0xfffff9e9
    130c:	052f0609 	streq	r0, [pc, #-1545]!	; d0b <__code_start__-0x72f5>
    1310:	05010611 	streq	r0, [r1, #-1553]	; 0xfffff9ef
    1314:	1c052e0c 	stcne	14, cr2, [r5], {12}
    1318:	01066b06 	tsteq	r6, r6, lsl #22
    131c:	2f060505 	svccs	0x00060505
    1320:	01054a06 	tsteq	r5, r6, lsl #20
    1324:	061e054b 	ldreq	r0, [lr], -fp, asr #10
    1328:	0501062f 	streq	r0, [r1, #-1583]	; 0xfffff9d1
    132c:	062f0605 	strteq	r0, [pc], -r5, lsl #12
    1330:	4b01054a 	blmi	42860 <__bss_end__+0x39060>
    1334:	01000202 	tsteq	r0, r2, lsl #4
    1338:	00020401 	andeq	r0, r2, r1, lsl #8
    133c:	c8000300 	stmdagt	r0, {r8, r9}
    1340:	02000000 	andeq	r0, r0, #0, 0
    1344:	0d0efb01 	vstreq	d15, [lr, #-4]
    1348:	01010100 	mrseq	r0, (UNDEF: 17)
    134c:	00000001 	andeq	r0, r0, r1
    1350:	01000001 	tsteq	r0, r1
    1354:	6d6f682f 	stclvs	8, cr6, [pc, #-188]!	; 12a0 <__code_start__-0x6d60>
    1358:	6e652f65 	cdpvs	15, 6, cr2, cr5, cr5, {3}
    135c:	72656c67 	rsbvc	r6, r5, #26368	; 0x6700
    1360:	616c632f 	cmnvs	ip, pc, lsr #6
    1364:	632f7373 			; <UNDEFINED> instruction: 0x632f7373
    1368:	30343173 	eorscc	r3, r4, r3, ror r1
    136c:	33322d65 	teqcc	r2, #6464	; 0x1940
    1370:	2f6e6977 	svccs	0x006e6977
    1374:	62696c2f 	rsbvs	r6, r9, #12032	; 0x2f00
    1378:	692f6970 	stmdbvs	pc!, {r4, r5, r6, r8, fp, sp, lr}	; <UNPREDICTABLE>
    137c:	756c636e 	strbvc	r6, [ip, #-878]!	; 0xfffffc92
    1380:	2f006564 	svccs	0x00006564
    1384:	2f727375 	svccs	0x00727375
    1388:	72616873 	rsbvc	r6, r1, #7536640	; 0x730000
    138c:	63672f65 	cmnvs	r7, #404	; 0x194
    1390:	72612d63 	rsbvc	r2, r1, #6336	; 0x18c0
    1394:	6f6e2d6d 	svcvs	0x006e2d6d
    1398:	652d656e 	strvs	r6, [sp, #-1390]!	; 0xfffffa92
    139c:	2d696261 	sfmcs	f6, 2, [r9, #-388]!	; 0xfffffe7c
    13a0:	332e3031 			; <UNDEFINED> instruction: 0x332e3031
    13a4:	3230322d 	eorscc	r3, r0, #-805306366	; 0xd0000002
    13a8:	30312e31 	eorscc	r2, r1, r1, lsr lr
    13ac:	62696c2f 	rsbvs	r6, r9, #12032	; 0x2f00
    13b0:	6363672f 	cmnvs	r3, #12320768	; 0xbc0000
    13b4:	6d72612f 	ldfvse	f6, [r2, #-188]!	; 0xffffff44
    13b8:	6e6f6e2d 	cdpvs	14, 6, cr6, cr15, cr13, {1}
    13bc:	61652d65 	cmnvs	r5, r5, ror #26
    13c0:	312f6962 			; <UNDEFINED> instruction: 0x312f6962
    13c4:	2e332e30 	mrccs	14, 1, r2, cr3, cr0, {1}
    13c8:	6e692f31 	mcrvs	15, 3, r2, cr9, cr1, {1}
    13cc:	64756c63 	ldrbtvs	r6, [r5], #-3171	; 0xfffff39d
    13d0:	75000065 	strvc	r0, [r0, #-101]	; 0xffffff9b
    13d4:	2e747261 	cdpcs	2, 7, cr7, cr4, cr1, {3}
    13d8:	00000063 	andeq	r0, r0, r3, rrx
    13dc:	72617500 	rsbvc	r7, r1, #0, 10
    13e0:	00682e74 	rsbeq	r2, r8, r4, ror lr
    13e4:	72000000 	andvc	r0, r0, #0, 0
    13e8:	682e6970 	stmdavs	lr!, {r4, r5, r6, r8, fp, sp, lr}
    13ec:	00000100 	andeq	r0, r0, r0, lsl #2
    13f0:	6f697067 	svcvs	0x00697067
    13f4:	0100682e 	tsteq	r0, lr, lsr #16
    13f8:	74730000 	ldrbtvc	r0, [r3], #-0
    13fc:	746e6964 	strbtvc	r6, [lr], #-2404	; 0xfffff69c
    1400:	6363672d 	cmnvs	r3, #11796480	; 0xb40000
    1404:	0200682e 	andeq	r6, r0, #3014656	; 0x2e0000
    1408:	05000000 	streq	r0, [r0, #-0]
    140c:	02050039 	andeq	r0, r5, #57, 0	; 0x39
    1410:	00008e9c 	muleq	r0, ip, lr
    1414:	06013003 	streq	r3, [r1], -r3
    1418:	06050501 	streq	r0, [r5], -r1, lsl #10
    141c:	06110567 	ldreq	r0, [r1], -r7, ror #10
    1420:	2e050501 	cfsh32cs	mvfx0, mvfx5, #1
    1424:	05670105 	strbeq	r0, [r7, #-261]!	; 0xfffffefb
    1428:	06290638 			; <UNDEFINED> instruction: 0x06290638
    142c:	06050501 	streq	r0, [r5], -r1, lsl #10
    1430:	06110567 	ldreq	r0, [r1], -r7, ror #10
    1434:	2e050501 	cfsh32cs	mvfx0, mvfx5, #1
    1438:	05670105 	strbeq	r0, [r7, #-261]!	; 0xfffffefb
    143c:	15030616 	strne	r0, [r3, #-1558]	; 0xfffff9ea
    1440:	3505052e 	strcc	r0, [r5, #-1326]	; 0xfffffad2
    1444:	68356867 	ldmdavs	r5!, {r0, r1, r2, r5, r6, fp, sp, lr}
    1448:	852e0c03 	strhi	r0, [lr, #-3075]!	; 0xfffff3fd
    144c:	0369696b 	cmneq	r9, #1753088	; 0x1ac000
    1450:	6b13660c 	blvs	4dac88 <__bss_end__+0x4d1488>
    1454:	06010567 	streq	r0, [r1], -r7, ror #10
    1458:	0619052f 	ldreq	r0, [r9], -pc, lsr #10
    145c:	05052508 	streq	r2, [r5, #-1288]	; 0xfffffaf8
    1460:	060d0534 			; <UNDEFINED> instruction: 0x060d0534
    1464:	4c010501 	cfstr32mi	mvfx0, [r1], {1}
    1468:	67061905 	strvs	r1, [r6, -r5, lsl #18]
    146c:	05360505 	ldreq	r0, [r6, #-1285]!	; 0xfffffafb
    1470:	0501060d 	streq	r0, [r1, #-1549]	; 0xfffff9f3
    1474:	01054a28 	tsteq	r5, r8, lsr #20
    1478:	06150530 			; <UNDEFINED> instruction: 0x06150530
    147c:	2f050587 	svccs	0x00050587
    1480:	0009052f 	andeq	r0, r9, pc, lsr #10
    1484:	13010402 	movwne	r0, #5122	; 0x1402
    1488:	02000a05 	andeq	r0, r0, #20480	; 0x5000
    148c:	05110104 	ldreq	r0, [r1, #-260]	; 0xfffffefc
    1490:	0402000c 	streq	r0, [r2], #-12
    1494:	05010601 	streq	r0, [r1, #-1537]	; 0xfffff9ff
    1498:	0402000a 	streq	r0, [r2], #-10
    149c:	05052e01 	streq	r2, [r5, #-3585]	; 0xfffff1ff
    14a0:	0e054c06 	cdpeq	12, 0, cr4, cr5, cr6, {0}
    14a4:	09050106 	stmdbeq	r5, {r1, r2, r8}
    14a8:	0605054a 	streq	r0, [r5], -sl, asr #10
    14ac:	01052f2f 	tsteq	r5, pc, lsr #30
    14b0:	1c051306 	stcne	3, cr1, [r5], {6}
    14b4:	01066706 	tsteq	r6, r6, lsl #14
    14b8:	4b060505 	blmi	1828d4 <__bss_end__+0x1790d4>
    14bc:	0009052f 	andeq	r0, r9, pc, lsr #10
    14c0:	13010402 	movwne	r0, #5122	; 0x1402
    14c4:	02000a05 	andeq	r0, r0, #20480	; 0x5000
    14c8:	05110104 	ldreq	r0, [r1, #-260]	; 0xfffffefc
    14cc:	0402000c 	streq	r0, [r2], #-12
    14d0:	05010601 	streq	r0, [r1, #-1537]	; 0xfffff9ff
    14d4:	0402000a 	streq	r0, [r2], #-10
    14d8:	05052e01 	streq	r2, [r5, #-3585]	; 0xfffff1ff
    14dc:	05674c06 	strbeq	r4, [r7, #-3078]!	; 0xfffff3fa
    14e0:	052f0601 	streq	r0, [pc, #-1537]!	; ee7 <__code_start__-0x7119>
    14e4:	054c0619 	strbeq	r0, [ip, #-1561]	; 0xfffff9e7
    14e8:	2a052e1b 	bcs	14cd5c <__bss_end__+0x14355c>
    14ec:	0631052e 	ldrteq	r0, [r1], -lr, lsr #10
    14f0:	2e420501 	cdpcs	5, 4, cr0, cr2, cr1, {0}
    14f4:	31061c05 	tstcc	r6, r5, lsl #24
    14f8:	032f0505 			; <UNDEFINED> instruction: 0x032f0505
    14fc:	0e052e09 	cdpeq	14, 0, cr2, cr5, cr9, {0}
    1500:	21050106 	tstcs	r5, r6, lsl #2
    1504:	0301054a 	movweq	r0, #5450	; 0x154a
    1508:	1a052e0a 	bne	14cd38 <__bss_end__+0x143538>
    150c:	09056806 	stmdbeq	r5, {r1, r2, fp, sp, lr}
    1510:	01040200 	mrseq	r0, R12_usr
    1514:	000a0530 	andeq	r0, sl, r0, lsr r5
    1518:	11010402 	tstne	r1, r2, lsl #8
    151c:	02000c05 	andeq	r0, r0, #1280	; 0x500
    1520:	01060104 	tsteq	r6, r4, lsl #2
    1524:	02000a05 	andeq	r0, r0, #20480	; 0x5000
    1528:	052e0104 	streq	r0, [lr, #-260]!	; 0xfffffefc
    152c:	e8030619 	stmda	r3, {r0, r3, r4, r9, sl}
    1530:	0505667e 	streq	r6, [r5, #-1662]	; 0xfffff982
    1534:	672f2f2f 	strvs	r2, [pc, -pc, lsr #30]!
    1538:	2f060105 	svccs	0x00060105
    153c:	01000402 	tsteq	r0, r2, lsl #8
    1540:	0001c501 	andeq	ip, r1, r1, lsl #10
    1544:	cb000300 	blgt	214c <__code_start__-0x5eb4>
    1548:	02000000 	andeq	r0, r0, #0, 0
    154c:	0d0efb01 	vstreq	d15, [lr, #-4]
    1550:	01010100 	mrseq	r0, (UNDEF: 17)
    1554:	00000001 	andeq	r0, r0, r1
    1558:	01000001 	tsteq	r0, r1
    155c:	6573552f 	ldrbvs	r5, [r3, #-1327]!	; 0xfffffad1
    1560:	792f7372 	stmdbvc	pc!, {r1, r4, r5, r6, r8, r9, ip, sp, lr}	; <UNPREDICTABLE>
    1564:	6e697875 	mcrvs	8, 3, r7, cr9, cr5, {3}
    1568:	2f696570 	svccs	0x00696570
    156c:	48746947 	ldmdami	r4!, {r0, r1, r2, r6, r8, fp, sp, lr}^
    1570:	632f6275 			; <UNDEFINED> instruction: 0x632f6275
    1574:	30343173 	eorscc	r3, r4, r3, ror r1
    1578:	33322d65 	teqcc	r2, #6464	; 0x1940
    157c:	2f6e6977 	svccs	0x006e6977
    1580:	7062696c 	rsbvc	r6, r2, ip, ror #18
    1584:	6e692f69 	cdpvs	15, 6, cr2, cr9, cr9, {3}
    1588:	64756c63 	ldrbtvs	r6, [r5], #-3171	; 0xfffff39d
    158c:	752f0065 	strvc	r0, [pc, #-101]!	; 152f <__code_start__-0x6ad1>
    1590:	6c2f7273 	sfmvs	f7, 4, [pc], #-460	; 13cc <__code_start__-0x6c34>
    1594:	6c61636f 	stclvs	3, cr6, [r1], #-444	; 0xfffffe44
    1598:	6c65432f 	stclvs	3, cr4, [r5], #-188	; 0xffffff44
    159c:	2f72616c 	svccs	0x0072616c
    15a0:	2d6d7261 	sfmcs	f7, 2, [sp, #-388]!	; 0xfffffe7c
    15a4:	656e6f6e 	strbvs	r6, [lr, #-3950]!	; 0xfffff092
    15a8:	6261652d 	rsbvs	r6, r1, #188743680	; 0xb400000
    15ac:	65742d69 	ldrbvs	r2, [r4, #-3433]!	; 0xfffff297
    15b0:	392f7473 	stmdbcc	pc!, {r0, r1, r4, r5, r6, sl, ip, sp, lr}	; <UNPREDICTABLE>
    15b4:	3130322d 	teqcc	r0, sp, lsr #4
    15b8:	2d347139 	ldfcss	f7, [r4, #-228]!	; 0xffffff1c
    15bc:	30317363 	eorscc	r7, r1, r3, ror #6
    15c0:	6c2f6537 	cfstr32vs	mvfx6, [pc], #-220	; 14ec <__code_start__-0x6b14>
    15c4:	672f6269 	strvs	r6, [pc, -r9, ror #4]!
    15c8:	612f6363 			; <UNDEFINED> instruction: 0x612f6363
    15cc:	6e2d6d72 	mcrvs	13, 1, r6, cr13, cr2, {3}
    15d0:	2d656e6f 	stclcs	14, cr6, [r5, #-444]!	; 0xfffffe44
    15d4:	69626165 	stmdbvs	r2!, {r0, r2, r5, r6, r8, sp, lr}^
    15d8:	322e392f 	eorcc	r3, lr, #770048	; 0xbc000
    15dc:	692f312e 	stmdbvs	pc!, {r1, r2, r3, r5, r8, ip, sp}	; <UNPREDICTABLE>
    15e0:	756c636e 	strbvc	r6, [ip, #-878]!	; 0xfffffc92
    15e4:	00006564 	andeq	r6, r0, r4, ror #10
    15e8:	6f697067 	svcvs	0x00697067
    15ec:	0000632e 	andeq	r6, r0, lr, lsr #6
    15f0:	70720000 	rsbsvc	r0, r2, r0
    15f4:	00682e69 	rsbeq	r2, r8, r9, ror #28
    15f8:	73000001 	movwvc	r0, #1
    15fc:	6e696474 	mcrvs	4, 3, r6, cr9, cr4, {3}
    1600:	63672d74 	cmnvs	r7, #116, 26	; 0x1d00
    1604:	00682e63 	rsbeq	r2, r8, r3, ror #28
    1608:	67000002 	strvs	r0, [r0, -r2]
    160c:	2e6f6970 			; <UNDEFINED> instruction: 0x2e6f6970
    1610:	00010068 	andeq	r0, r1, r8, rrx
    1614:	20050000 	andcs	r0, r5, r0
    1618:	8c020500 	cfstr32hi	mvfx0, [r2], {-0}
    161c:	03000090 	movweq	r0, #144	; 0x90
    1620:	05050121 	streq	r0, [r5, #-289]	; 0xfffffedf
    1624:	06070513 			; <UNDEFINED> instruction: 0x06070513
    1628:	65200501 	strvs	r0, [r0, #-1281]!	; 0xfffffaff
    162c:	31060505 	tstcc	r6, r5, lsl #10
    1630:	01056606 	tsteq	r5, r6, lsl #12
    1634:	0621052f 	strteq	r0, [r1], -pc, lsr #10
    1638:	1305054d 	movwne	r0, #21837	; 0x554d
    163c:	01060705 	tsteq	r6, r5, lsl #14
    1640:	05652105 	strbeq	r2, [r5, #-261]!	; 0xfffffefb
    1644:	06310605 	ldrteq	r0, [r1], -r5, lsl #12
    1648:	31010566 	tstcc	r1, r6, ror #10
    164c:	4d062b05 	vstrmi	d2, [r6, #-20]	; 0xffffffec
    1650:	05050106 	streq	r0, [r5, #-262]	; 0xfffffefa
    1654:	07052f06 	streq	r2, [r5, -r6, lsl #30]
    1658:	09050106 	stmdbeq	r5, {r1, r2, r8}
    165c:	2e064b06 	vmlacs.f64	d4, d6, d6
    1660:	01053006 	tsteq	r5, r6
    1664:	1d052f06 	stcne	15, cr2, [r5, #-24]	; 0xffffffe8
    1668:	2e0d0306 	cdpcs	3, 0, cr0, cr13, cr6, {0}
    166c:	05130305 	ldreq	r0, [r3, #-773]	; 0xfffffcfb
    1670:	05010605 	streq	r0, [r1, #-1541]	; 0xfffff9fb
    1674:	0305651d 	movweq	r6, #21789	; 0x551d
    1678:	15054f06 	strne	r4, [r5, #-3846]	; 0xfffff0fa
    167c:	052e0106 	streq	r0, [lr, #-262]!	; 0xfffffefa
    1680:	36052e26 	strcc	r2, [r5], -r6, lsr #28
    1684:	0502044a 	streq	r0, [r2, #-1098]	; 0xfffffbb6
    1688:	3f030634 	svccc	0x00030634
    168c:	0501042e 	streq	r0, [r1, #-1070]	; 0xfffffbd2
    1690:	43030601 	movwmi	r0, #13825	; 0x3601
    1694:	29100501 	ldmdbcs	r0, {r0, r8, sl}
    1698:	05330105 	ldreq	r0, [r3, #-261]!	; 0xfffffefb
    169c:	054c063c 	strbeq	r0, [ip, #-1596]	; 0xfffff9c4
    16a0:	07051305 	streq	r1, [r5, -r5, lsl #6]
    16a4:	3c050106 	stfccs	f0, [r5], {6}
    16a8:	06050565 	streq	r0, [r5], -r5, ror #10
    16ac:	0608054c 	streq	r0, [r8], -ip, asr #10
    16b0:	06050501 	streq	r0, [r5], -r1, lsl #10
    16b4:	0627054b 	strteq	r0, [r7], -fp, asr #10
    16b8:	66200501 	strtvs	r0, [r0], -r1, lsl #10
    16bc:	054a0e05 	strbeq	r0, [sl, #-3589]	; 0xfffff1fb
    16c0:	052f0605 	streq	r0, [pc, #-1541]!	; 10c3 <__code_start__-0x6f3d>
    16c4:	0501061b 	streq	r0, [r1, #-1563]	; 0xfffff9e5
    16c8:	05054a0e 	streq	r4, [r5, #-2574]	; 0xfffff5f2
    16cc:	19052f06 	stmdbne	r5, {r1, r2, r8, r9, sl, fp, sp}
    16d0:	052e0106 	streq	r0, [lr, #-262]!	; 0xfffffefa
    16d4:	05300605 	ldreq	r0, [r0, #-1541]!	; 0xfffff9fb
    16d8:	2e010612 	mcrcs	6, 0, r0, cr1, cr2, {0}
    16dc:	052e1e05 	streq	r1, [lr, #-3589]!	; 0xfffff1fb
    16e0:	01052e05 	tsteq	r5, r5, lsl #28
    16e4:	06240567 	strteq	r0, [r4], -r7, ror #10
    16e8:	064a4803 	strbeq	r4, [sl], -r3, lsl #16
    16ec:	06050501 	streq	r0, [r5], -r1, lsl #10
    16f0:	0601052f 	streq	r0, [r1], -pc, lsr #10
    16f4:	0623054b 	strteq	r0, [r3], -fp, asr #10
    16f8:	062e1f03 	strteq	r1, [lr], -r3, lsl #30
    16fc:	06030501 	streq	r0, [r3], -r1, lsl #10
    1700:	06010530 			; <UNDEFINED> instruction: 0x06010530
    1704:	0002024b 	andeq	r0, r2, fp, asr #4
    1708:	00ad0101 	adceq	r0, sp, r1, lsl #2
    170c:	00030000 	andeq	r0, r3, r0
    1710:	0000005f 	andeq	r0, r0, pc, asr r0
    1714:	0efb0102 	cdpeq	1, 15, cr0, cr11, cr2, {0}
    1718:	0101000d 	tsteq	r1, sp
    171c:	00000101 	andeq	r0, r0, r1, lsl #2
    1720:	00000100 	andeq	r0, r0, r0, lsl #2
    1724:	6c2f2e01 	stcvs	14, cr2, [pc], #-4	; 1728 <__code_start__-0x68d8>
    1728:	00636269 	rsbeq	r6, r3, r9, ror #4
    172c:	6573552f 	ldrbvs	r5, [r3, #-1327]!	; 0xfffffad1
    1730:	792f7372 	stmdbvc	pc!, {r1, r4, r5, r6, r8, r9, ip, sp, lr}	; <UNPREDICTABLE>
    1734:	6e697875 	mcrvs	8, 3, r7, cr9, cr5, {3}
    1738:	2f696570 	svccs	0x00696570
    173c:	48746947 	ldmdami	r4!, {r0, r1, r2, r6, r8, fp, sp, lr}^
    1740:	632f6275 			; <UNDEFINED> instruction: 0x632f6275
    1744:	30343173 	eorscc	r3, r4, r3, ror r1
    1748:	33322d65 	teqcc	r2, #6464	; 0x1940
    174c:	2f6e6977 	svccs	0x006e6977
    1750:	7062696c 	rsbvc	r6, r2, ip, ror #18
    1754:	6e692f69 	cdpvs	15, 6, cr2, cr9, cr9, {3}
    1758:	64756c63 	ldrbtvs	r6, [r5], #-3171	; 0xfffff39d
    175c:	70000065 	andvc	r0, r0, r5, rrx
    1760:	2e6b7475 	mcrcs	4, 3, r7, cr11, cr5, {3}
    1764:	00010063 	andeq	r0, r1, r3, rrx
    1768:	69707200 	ldmdbvs	r0!, {r9, ip, sp, lr}^
    176c:	0200682e 	andeq	r6, r0, #3014656	; 0x2e0000
    1770:	05000000 	streq	r0, [r0, #-0]
    1774:	02050019 	andeq	r0, r5, #25, 0
    1778:	000091b8 			; <UNDEFINED> instruction: 0x000091b8
    177c:	05010614 	streq	r0, [r1, #-1556]	; 0xfffff9ec
    1780:	054b0605 	strbeq	r0, [fp, #-1541]	; 0xfffff9fb
    1784:	0402000b 	streq	r0, [r2], #-11
    1788:	05050101 	streq	r0, [r5, #-257]	; 0xfffffeff
    178c:	01040200 	mrseq	r0, R12_usr
    1790:	09052e06 	stmdbeq	r5, {r1, r2, r9, sl, fp, sp}
    1794:	02040200 	andeq	r0, r4, #0, 4
    1798:	0f054b06 	svceq	0x00054b06
    179c:	02040200 	andeq	r0, r4, #0, 4
    17a0:	0010052d 	andseq	r0, r0, sp, lsr #10
    17a4:	06020402 	streq	r0, [r2], -r2, lsl #8
    17a8:	04020001 	streq	r0, [r2], #-1
    17ac:	05052e02 	streq	r2, [r5, #-3586]	; 0xfffff1fe
    17b0:	01053206 	tsteq	r5, r6, lsl #4
    17b4:	04021306 	streq	r1, [r2], #-774	; 0xfffffcfa
    17b8:	Address 0x00000000000017b8 is out of bounds.


Disassembly of section .debug_str:

00000000 <.debug_str>:
   0:	6f73645f 	svcvs	0x0073645f
   4:	6e61685f 	mcrvs	8, 3, r6, cr1, cr15, {2}
   8:	00656c64 	rsbeq	r6, r5, r4, ror #24
   c:	7a69735f 	bvc	1a5cd90 <__bss_end__+0x1a53590>
  10:	69730065 	ldmdbvs	r3!, {r0, r2, r5, r6}^
  14:	745f657a 	ldrbvc	r6, [pc], #-1402	; 1c <__code_start__-0x7fe4>
  18:	61725f00 	cmnvs	r2, r0, lsl #30
  1c:	3834646e 	ldmdacc	r4!, {r1, r2, r3, r5, r6, sl, sp, lr}
  20:	554e4700 	strbpl	r4, [lr, #-1792]	; 0xfffff900
  24:	39394320 	ldmdbcc	r9!, {r5, r8, r9, lr}
  28:	322e3920 	eorcc	r3, lr, #32, 18	; 0x80000
  2c:	3220312e 	eorcc	r3, r0, #-2147483637	; 0x8000000b
  30:	31393130 	teqcc	r9, r0, lsr r1
  34:	20353230 	eorscs	r3, r5, r0, lsr r2
  38:	6c657228 	sfmvs	f7, 2, [r5], #-160	; 0xffffff60
  3c:	65736165 	ldrbvs	r6, [r3, #-357]!	; 0xfffffe9b
  40:	415b2029 	cmpmi	fp, r9, lsr #32
  44:	612f4d52 			; <UNDEFINED> instruction: 0x612f4d52
  48:	392d6d72 	pushcc	{r1, r4, r5, r6, r8, sl, fp, sp, lr}
  4c:	6172622d 	cmnvs	r2, sp, lsr #4
  50:	2068636e 	rsbcs	r6, r8, lr, ror #6
  54:	69766572 	ldmdbvs	r6!, {r1, r4, r5, r6, r8, sl, sp, lr}^
  58:	6e6f6973 			; <UNDEFINED> instruction: 0x6e6f6973
  5c:	37373220 	ldrcc	r3, [r7, -r0, lsr #4]!
  60:	5d393935 			; <UNDEFINED> instruction: 0x5d393935
  64:	636d2d20 	cmnvs	sp, #32, 26	; 0x800
  68:	613d7570 	teqvs	sp, r0, ror r5
  6c:	31316d72 	teqcc	r1, r2, ror sp
  70:	7a6a3637 	bvc	1a8d954 <__bss_end__+0x1a84154>
  74:	20732d66 	rsbscs	r2, r3, r6, ror #26
  78:	75746d2d 	ldrbvc	r6, [r4, #-3373]!	; 0xfffff2d3
  7c:	613d656e 	teqvs	sp, lr, ror #10
  80:	31316d72 	teqcc	r1, r2, ror sp
  84:	7a6a3637 	bvc	1a8d968 <__bss_end__+0x1a84168>
  88:	20732d66 	rsbscs	r2, r3, r6, ror #26
  8c:	70746d2d 	rsbsvc	r6, r4, sp, lsr #26
  90:	666f733d 			; <UNDEFINED> instruction: 0x666f733d
  94:	6d2d2074 	stcvs	0, cr2, [sp, #-464]!	; 0xfffffe30
  98:	616f6c66 	cmnvs	pc, r6, ror #24
  9c:	62612d74 	rsbvs	r2, r1, #116, 26	; 0x1d00
  a0:	6f733d69 	svcvs	0x00733d69
  a4:	2d207466 	cfstrscs	mvf7, [r0, #-408]!	; 0xfffffe68
  a8:	6d72616d 	ldfvse	f6, [r2, #-436]!	; 0xfffffe4c
  ac:	616d2d20 	cmnvs	sp, r0, lsr #26
  b0:	3d686372 	stclcc	3, cr6, [r8, #-456]!	; 0xfffffe38
  b4:	766d7261 	strbtvc	r7, [sp], -r1, ror #4
  b8:	207a6b36 	rsbscs	r6, sl, r6, lsr fp
  bc:	6467672d 	strbtvs	r6, [r7], #-1837	; 0xfffff8d3
  c0:	4f2d2062 	svcmi	0x002d2062
  c4:	732d2067 			; <UNDEFINED> instruction: 0x732d2067
  c8:	673d6474 			; <UNDEFINED> instruction: 0x673d6474
  cc:	3939756e 	ldmdbcc	r9!, {r1, r2, r3, r5, r6, r8, sl, ip, sp, lr}
  d0:	66662d20 	strbtvs	r2, [r6], -r0, lsr #26
  d4:	73656572 	cmnvc	r5, #478150656	; 0x1c800000
  d8:	646e6174 	strbtvs	r6, [lr], #-372	; 0xfffffe8c
  dc:	00676e69 	rsbeq	r6, r7, r9, ror #28
  e0:	6d746f6e 	ldclvs	15, cr6, [r4, #-440]!	; 0xfffffe48
  e4:	006e6961 	rsbeq	r6, lr, r1, ror #18
  e8:	5f6d7261 	svcpl	0x006d7261
  ec:	656d6974 	strbvs	r6, [sp, #-2420]!	; 0xfffff68c
  f0:	41525f72 	cmpmi	r2, r2, ror pc
  f4:	51524957 	cmppl	r2, r7, asr r9
  f8:	63775f00 	cmnvs	r7, #0, 30
  fc:	6d6f7472 	cfstrdvs	mvd7, [pc, #-456]!	; ffffff3c <__bss_end__+0xffff673c>
 100:	74735f62 	ldrbtvc	r5, [r3], #-3938	; 0xfffff09e
 104:	00657461 	rsbeq	r7, r5, r1, ror #8
 108:	7363775f 	cmnvc	r3, #24903680	; 0x17c0000
 10c:	6d6f7472 	cfstrdvs	mvd7, [pc, #-456]!	; ffffff4c <__bss_end__+0xffff674c>
 110:	735f7362 	cmpvc	pc, #-2013265919	; 0x88000001
 114:	65746174 	ldrbvs	r6, [r4, #-372]!	; 0xfffffe8c
 118:	6e6f6c00 	cdpvs	12, 6, cr6, cr15, cr0, {0}
 11c:	6f6c2067 	svcvs	0x006c2067
 120:	7520676e 	strvc	r6, [r0, #-1902]!	; 0xfffff892
 124:	6769736e 	strbvs	r7, [r9, -lr, ror #6]!
 128:	2064656e 	rsbcs	r6, r4, lr, ror #10
 12c:	00746e69 	rsbseq	r6, r4, r9, ror #28
 130:	6f727067 	svcvs	0x00727067
 134:	75645f66 	strbvc	r5, [r4, #-3942]!	; 0xfffff09a
 138:	5f00706d 	svcpl	0x0000706d
 13c:	7366626c 	cmnvc	r6, #108, 4	; 0xc0000006
 140:	00657a69 	rsbeq	r7, r5, r9, ror #20
 144:	6f6c5f5f 	svcvs	0x006c5f5f
 148:	656c6163 	strbvs	r6, [ip, #-355]!	; 0xfffffe9d
 14c:	4400745f 	strmi	r7, [r0], #-1119	; 0xfffffba1
 150:	62617369 	rsbvs	r7, r1, #-1543503871	; 0xa4000001
 154:	495f656c 	ldmdbmi	pc, {r2, r3, r5, r6, r8, sl, sp, lr}^	; <UNPREDICTABLE>
 158:	5f735152 	svcpl	0x00735152
 15c:	6d5f0032 	ldclvs	0, cr0, [pc, #-200]	; 9c <__code_start__-0x7f64>
 160:	6f747262 	svcvs	0x00747262
 164:	735f6377 	cmpvc	pc, #-603979775	; 0xdc000001
 168:	65746174 	ldrbvs	r6, [r4, #-372]!	; 0xfffffe8c
 16c:	6e696d00 	cdpvs	13, 6, cr6, cr9, cr0, {0}
 170:	6c61765f 	stclvs	6, cr7, [r1], #-380	; 0xfffffe84
 174:	745f5f00 	ldrbvc	r5, [pc], #-3840	; 17c <__code_start__-0x7e84>
 178:	65735f6d 	ldrbvs	r5, [r3, #-3949]!	; 0xfffff093
 17c:	6f6c0063 	svcvs	0x006c0063
 180:	6c20676e 	stcvs	7, cr6, [r0], #-440	; 0xfffffe48
 184:	20676e6f 	rsbcs	r6, r7, pc, ror #28
 188:	00746e69 	rsbseq	r6, r4, r9, ror #28
 18c:	7562755f 	strbvc	r7, [r2, #-1375]!	; 0xfffffaa1
 190:	625f0066 	subsvs	r0, pc, #102, 0	; 0x66
 194:	00657361 	rsbeq	r7, r5, r1, ror #6
 198:	6d745f5f 	ldclvs	15, cr5, [r4, #-380]!	; 0xfffffe84
 19c:	756f685f 	strbvc	r6, [pc, #-2143]!	; fffff945 <__bss_end__+0xffff6145>
 1a0:	79730072 	ldmdbvc	r3!, {r1, r4, r5, r6}^
 1a4:	6d657473 	cfstrdvs	mvd7, [r5, #-460]!	; 0xfffffe34
 1a8:	616e655f 	cmnvs	lr, pc, asr r5
 1ac:	5f656c62 	svcpl	0x00656c62
 1b0:	65746e69 	ldrbvs	r6, [r4, #-3689]!	; 0xfffff197
 1b4:	70757272 	rsbsvc	r7, r5, r2, ror r2
 1b8:	5f007374 	svcpl	0x00007374
 1bc:	0066735f 	rsbeq	r7, r6, pc, asr r3
 1c0:	5f6e6f5f 	svcpl	0x006e6f5f
 1c4:	74697865 	strbtvc	r7, [r9], #-2149	; 0xfffff79b
 1c8:	6772615f 			; <UNDEFINED> instruction: 0x6772615f
 1cc:	69740073 	ldmdbvs	r4!, {r0, r1, r4, r5, r6}^
 1d0:	5f72656d 	svcpl	0x0072656d
 1d4:	65746e69 	ldrbvs	r6, [r4, #-3689]!	; 0xfffff197
 1d8:	70757272 	rsbsvc	r7, r5, r2, ror r2
 1dc:	6e695f74 	mcrvs	15, 3, r5, cr9, cr4, {3}
 1e0:	50007469 	andpl	r7, r0, r9, ror #8
 1e4:	32335455 	eorscc	r5, r3, #1426063360	; 0x55000000
 1e8:	6f635f00 	svcvs	0x00635f00
 1ec:	65696b6f 	strbvs	r6, [r9, #-2927]!	; 0xfffff491
 1f0:	735f5f00 	cmpvc	pc, #0, 30
 1f4:	65756c67 	ldrbvs	r6, [r5, #-3175]!	; 0xfffff399
 1f8:	6c665f00 	stclvs	15, cr5, [r6], #-0
 1fc:	00736761 	rsbseq	r6, r3, r1, ror #14
 200:	5f73695f 	svcpl	0x0073695f
 204:	00617863 	rsbeq	r7, r1, r3, ror #16
 208:	6474735f 	ldrbtvs	r7, [r4], #-863	; 0xfffffca1
 20c:	6b006e69 	blvs	1bbb8 <__bss_end__+0x123b8>
 210:	6c6c616d 	stfvse	f6, [ip], #-436	; 0xfffffe4c
 214:	5f00636f 	svcpl	0x0000636f
 218:	736b6c62 	cmnvc	fp, #25088	; 0x6200
 21c:	00657a69 	rsbeq	r7, r5, r9, ror #20
 220:	5f6d7261 	svcpl	0x006d7261
 224:	656d6974 	strbvs	r6, [sp, #-2420]!	; 0xfffff68c
 228:	6f4c5f72 	svcvs	0x004c5f72
 22c:	61006461 	tstvs	r0, r1, ror #8
 230:	745f6d72 	ldrbvc	r6, [pc], #-3442	; 238 <__code_start__-0x7dc8>
 234:	72656d69 	rsbvc	r6, r5, #6720	; 0x1a40
 238:	7361425f 	cmnvc	r1, #-268435451	; 0xf0000005
 23c:	52490065 	subpl	r0, r9, #101, 0	; 0x65
 240:	61425f51 	cmpvs	r2, r1, asr pc
 244:	5f006573 	svcpl	0x00006573
 248:	62747663 	rsbsvs	r7, r4, #103809024	; 0x6300000
 24c:	5f006675 	svcpl	0x00006675
 250:	7366666f 	cmnvc	r6, #116391936	; 0x6f00000
 254:	6b007465 	blvs	1d3f0 <__bss_end__+0x13bf0>
 258:	6c6c616d 	stfvse	f6, [ip], #-436	; 0xfffffe4c
 25c:	695f636f 	ldmdbvs	pc, {r0, r1, r2, r3, r5, r6, r8, r9, sp, lr}^	; <UNPREDICTABLE>
 260:	5f74696e 	svcpl	0x0074696e
 264:	5f746573 	svcpl	0x00746573
 268:	72617473 	rsbvc	r7, r1, #1929379840	; 0x73000000
 26c:	6d5f0074 	ldclvs	0, cr0, [pc, #-464]	; a4 <__code_start__-0x7f5c>
 270:	74727362 	ldrbtvc	r7, [r2], #-866	; 0xfffffc9e
 274:	7363776f 	cmnvc	r3, #29097984	; 0x1bc0000
 278:	6174735f 	cmnvs	r4, pc, asr r3
 27c:	5f006574 	svcpl	0x00006574
 280:	6c72626d 	lfmvs	f6, 2, [r2], #-436	; 0xfffffe4c
 284:	735f6e65 	cmpvc	pc, #1616	; 0x650
 288:	65746174 	ldrbvs	r6, [r4, #-372]!	; 0xfffffe8c
 28c:	6e665f00 	cdpvs	15, 6, cr5, cr6, cr0, {0}
 290:	73677261 	cmnvc	r7, #268435462	; 0x10000006
 294:	6e665f00 	cdpvs	15, 6, cr5, cr6, cr0, {0}
 298:	735f0073 	cmpvc	pc, #115, 0	; 0x73
 29c:	006e6769 	rsbeq	r6, lr, r9, ror #14
 2a0:	6f727067 	svcvs	0x00727067
 2a4:	6e695f66 	cdpvs	15, 6, cr5, cr9, cr6, {3}
 2a8:	5f007469 	svcpl	0x00007469
 2ac:	636f6c66 	cmnvs	pc, #26112	; 0x6600
 2b0:	00745f6b 	rsbseq	r5, r4, fp, ror #30
 2b4:	6474735f 	ldrbtvs	r7, [r4], #-863	; 0xfffffca1
 2b8:	00727265 	rsbseq	r7, r2, r5, ror #4
 2bc:	6769425f 			; <UNDEFINED> instruction: 0x6769425f
 2c0:	00746e69 	rsbseq	r6, r4, r9, ror #28
 2c4:	6d61675f 	stclvs	7, cr6, [r1, #-380]!	; 0xfffffe84
 2c8:	735f616d 	cmpvc	pc, #1073741851	; 0x4000001b
 2cc:	676e6769 	strbvs	r6, [lr, -r9, ror #14]!
 2d0:	5f006d61 	svcpl	0x00006d61
 2d4:	75736572 	ldrbvc	r6, [r3, #-1394]!	; 0xfffffa8e
 2d8:	6b5f746c 	blvs	17dd490 <__bss_end__+0x17d3c90>
 2dc:	6d726100 	ldfvse	f6, [r2, #-0]
 2e0:	6d69745f 	cfstrdvs	mvd7, [r9, #-380]!	; 0xfffffe84
 2e4:	4d5f7265 	lfmmi	f7, 2, [pc, #-404]	; 158 <__code_start__-0x7ea8>
 2e8:	656b7361 	strbvs	r7, [fp, #-865]!	; 0xfffffc9f
 2ec:	51524964 	cmppl	r2, r4, ror #18
 2f0:	745f5f00 	ldrbvc	r5, [pc], #-3840	; 2f8 <__code_start__-0x7d08>
 2f4:	5f5f006d 	svcpl	0x005f006d
 2f8:	62686377 	rsbvs	r6, r8, #-603979775	; 0xdc000001
 2fc:	74735f00 	ldrbtvc	r5, [r3], #-3840	; 0xfffff100
 300:	74756f64 	ldrbtvc	r6, [r5], #-3940	; 0xfffff09c
 304:	76635f00 	strbtvc	r5, [r3], -r0, lsl #30
 308:	6e656c74 	mcrvs	12, 3, r6, cr5, cr4, {3}
 30c:	69665f00 	stmdbvs	r6!, {r8, r9, sl, fp, ip, lr}^
 310:	6100656c 	tstvs	r0, ip, ror #10
 314:	745f6d72 	ldrbvc	r6, [pc], #-3442	; 31c <__code_start__-0x7ce4>
 318:	72656d69 	rsbvc	r6, r5, #6720	; 0x1a40
 31c:	6e6f435f 	mcrvs	3, 3, r4, cr15, cr15, {2}
 320:	6c6f7274 	sfmvs	f7, 2, [pc], #-464	; 158 <__code_start__-0x7ea8>
 324:	51524900 	cmppl	r2, r0, lsl #18
 328:	6e65705f 	mcrvs	0, 3, r7, cr5, cr15, {2}
 32c:	676e6964 	strbvs	r6, [lr, -r4, ror #18]!
 330:	4900315f 	stmdbmi	r0, {r0, r1, r2, r3, r4, r6, r8, ip, sp}
 334:	705f5152 	subsvc	r5, pc, r2, asr r1	; <UNPREDICTABLE>
 338:	69646e65 	stmdbvs	r4!, {r0, r2, r5, r6, r9, sl, fp, sp, lr}^
 33c:	325f676e 	subscc	r6, pc, #28835840	; 0x1b80000
 340:	696e5f00 	stmdbvs	lr!, {r8, r9, sl, fp, ip, lr}^
 344:	0073626f 	rsbseq	r6, r3, pc, ror #4
 348:	61736944 	cmnvs	r3, r4, asr #18
 34c:	5f656c62 	svcpl	0x00656c62
 350:	69736142 	ldmdbvs	r3!, {r1, r6, r8, sp, lr}^
 354:	52495f63 	subpl	r5, r9, #396	; 0x18c
 358:	73007351 	movwvc	r7, #849	; 0x351
 35c:	74726f68 	ldrbtvc	r6, [r2], #-3944	; 0xfffff098
 360:	736e7520 	cmnvc	lr, #32, 10	; 0x8000000
 364:	656e6769 	strbvs	r6, [lr, #-1897]!	; 0xfffff897
 368:	6e692064 	cdpvs	0, 6, cr2, cr9, cr4, {3}
 36c:	615f0074 	cmpvs	pc, r4, ror r0	; <UNPREDICTABLE>
 370:	69786574 	ldmdbvs	r8!, {r2, r4, r5, r6, r8, sl, sp, lr}^
 374:	5f003074 	svcpl	0x00003074
 378:	6e676973 			; <UNDEFINED> instruction: 0x6e676973
 37c:	625f6c61 	subsvs	r6, pc, #24832	; 0x6100
 380:	5f006675 	svcpl	0x00006675
 384:	74637361 	strbtvc	r7, [r3], #-865	; 0xfffffc9f
 388:	5f656d69 	svcpl	0x00656d69
 38c:	00667562 	rsbeq	r7, r6, r2, ror #10
 390:	5f766564 	svcpl	0x00766564
 394:	72726162 	rsbsvc	r6, r2, #-2147483624	; 0x80000018
 398:	00726569 	rsbseq	r6, r2, r9, ror #10
 39c:	7365725f 	cmnvc	r5, #-268435451	; 0xf0000005
 3a0:	00746c75 	rsbseq	r6, r4, r5, ror ip
 3a4:	63775f5f 	cmnvs	r7, #380	; 0x17c
 3a8:	70670068 	rsbvc	r0, r7, r8, rrx
 3ac:	2e666f72 	mcrcs	15, 3, r6, cr6, cr2, {3}
 3b0:	6e450063 	cdpvs	0, 4, cr0, cr5, cr3, {3}
 3b4:	656c6261 	strbvs	r6, [ip, #-609]!	; 0xfffffd9f
 3b8:	5152495f 	cmppl	r2, pc, asr r9
 3bc:	00315f73 	eorseq	r5, r1, r3, ror pc
 3c0:	434f4c5f 	movtmi	r4, #64607	; 0xfc5f
 3c4:	00545f4b 	subseq	r5, r4, fp, asr #30
 3c8:	746e6977 	strbtvc	r6, [lr], #-2423	; 0xfffff689
 3cc:	5f00745f 	svcpl	0x0000745f
 3d0:	67616c66 	strbvs	r6, [r1, -r6, ror #24]!
 3d4:	69003273 	stmdbvs	r0, {r0, r1, r4, r5, r6, r9, ip, sp}
 3d8:	00726574 	rsbseq	r6, r2, r4, ror r5
 3dc:	6d745f5f 	ldclvs	15, cr5, [r4, #-380]!	; 0xfffffe84
 3e0:	6165795f 	cmnvs	r5, pc, asr r9
 3e4:	6c630072 	stclvs	0, cr0, [r3], #-456	; 0xfffffe38
 3e8:	5f6e6165 	svcpl	0x006e6165
 3ec:	6f626572 	svcvs	0x00626572
 3f0:	4500746f 	strmi	r7, [r0, #-1135]	; 0xfffffb91
 3f4:	6c62616e 	stfvse	f6, [r2], #-440	; 0xfffffe48
 3f8:	52495f65 	subpl	r5, r9, #404	; 0x194
 3fc:	325f7351 	subscc	r7, pc, #1140850689	; 0x44000001
 400:	645f5f00 	ldrbvs	r5, [pc], #-3840	; 408 <__code_start__-0x7bf8>
 404:	5f617461 	svcpl	0x00617461
 408:	5f646e65 	svcpl	0x00646e65
 40c:	6944005f 	stmdbvs	r4, {r0, r1, r2, r3, r4, r6}^
 410:	6c626173 	stfvse	f6, [r2], #-460	; 0xfffffe34
 414:	52495f65 	subpl	r5, r9, #404	; 0x194
 418:	315f7351 	cmpcc	pc, r1, asr r3	; <UNPREDICTABLE>
 41c:	51524900 	cmppl	r2, r0, lsl #18
 420:	7361625f 	cmnvc	r1, #-268435451	; 0xf0000005
 424:	705f6369 	subsvc	r6, pc, r9, ror #6
 428:	69646e65 	stmdbvs	r4!, {r0, r2, r5, r6, r9, sl, fp, sp, lr}^
 42c:	5f00676e 	svcpl	0x0000676e
 430:	7478656e 	ldrbtvc	r6, [r8], #-1390	; 0xfffffa92
 434:	72610066 	rsbvc	r0, r1, #102, 0	; 0x66
 438:	69745f6d 	ldmdbvs	r4!, {r0, r2, r3, r5, r6, r8, r9, sl, fp, ip, lr}^
 43c:	5f72656d 	svcpl	0x0072656d
 440:	6f6c6552 	svcvs	0x006c6552
 444:	47006461 	strmi	r6, [r0, -r1, ror #8]
 448:	32335445 	eorscc	r5, r3, #1157627904	; 0x45000000
 44c:	625f5f00 	subsvs	r5, pc, #0, 30
 450:	735f7373 	cmpvc	pc, #-872415231	; 0xcc000001
 454:	74726174 	ldrbtvc	r6, [r2], #-372	; 0xfffffe8c
 458:	5f005f5f 	svcpl	0x00005f5f
 45c:	5f6d745f 	svcpl	0x006d745f
 460:	006e6f6d 	rsbeq	r6, lr, sp, ror #30
 464:	5f746e69 	svcpl	0x00746e69
 468:	74696e69 	strbtvc	r6, [r9], #-3689	; 0xfffff197
 46c:	74615f00 	strbtvc	r5, [r1], #-3840	; 0xfffff100
 470:	74697865 	strbtvc	r7, [r9], #-2149	; 0xfffff79b
 474:	625f5f00 	subsvs	r5, pc, #0, 30
 478:	655f7373 	ldrbvs	r7, [pc, #-883]	; 10d <__code_start__-0x7ef3>
 47c:	5f5f646e 	svcpl	0x005f646e
 480:	735f5f00 	cmpvc	pc, #0, 30
 484:	69646964 	stmdbvs	r4!, {r2, r5, r6, r8, fp, sp, lr}^
 488:	0074696e 	rsbseq	r6, r4, lr, ror #18
 48c:	66666f5f 	uqsaxvs	r6, r6, pc	; <UNPREDICTABLE>
 490:	5f00745f 	svcpl	0x0000745f
 494:	646f635f 	strbtvs	r6, [pc], #-863	; 49c <__code_start__-0x7b64>
 498:	6e655f65 	cdpvs	15, 6, cr5, cr5, cr5, {3}
 49c:	005f5f64 	subseq	r5, pc, r4, ror #30
 4a0:	6572665f 	ldrbvs	r6, [r2, #-1631]!	; 0xfffff9a1
 4a4:	73696c65 	cmnvc	r9, #25856	; 0x6500
 4a8:	6e450074 	mcrvs	0, 2, r0, cr5, cr4, {3}
 4ac:	656c6261 	strbvs	r6, [ip, #-609]!	; 0xfffffd9f
 4b0:	7361425f 	cmnvc	r1, #-268435451	; 0xf0000005
 4b4:	495f6369 	ldmdbmi	pc, {r0, r3, r5, r6, r8, r9, sp, lr}^	; <UNPREDICTABLE>
 4b8:	00735152 	rsbseq	r5, r3, r2, asr r1
 4bc:	7463775f 	strbtvc	r7, [r3], #-1887	; 0xfffff8a1
 4c0:	5f626d6f 	svcpl	0x00626d6f
 4c4:	74617473 	strbtvc	r7, [r1], #-1139	; 0xfffffb8d
 4c8:	6e6f0065 	cdpvs	0, 6, cr0, cr15, cr5, {3}
 4cc:	00424d65 	subeq	r4, r2, r5, ror #26
 4d0:	65685f5f 	strbvs	r5, [r8, #-3935]!	; 0xfffff0a1
 4d4:	735f7061 	cmpvc	pc, #97, 0	; 0x61
 4d8:	74726174 	ldrbtvc	r6, [r2], #-372	; 0xfffffe8c
 4dc:	75005f5f 	strvc	r5, [r0, #-3935]	; 0xfffff0a1
 4e0:	6769736e 	strbvs	r7, [r9, -lr, ror #6]!
 4e4:	2064656e 	rsbcs	r6, r4, lr, ror #10
 4e8:	72616863 	rsbvc	r6, r1, #6488064	; 0x630000
 4ec:	656e5f00 	strbvs	r5, [lr, #-3840]!	; 0xfffff100
 4f0:	685f0077 	ldmdavs	pc, {r0, r1, r2, r4, r5, r6}^	; <UNPREDICTABLE>
 4f4:	7272655f 	rsbsvc	r6, r2, #398458880	; 0x17c00000
 4f8:	73006f6e 	movwvc	r6, #3950	; 0xf6e
 4fc:	74726f68 	ldrbtvc	r6, [r2], #-3944	; 0xfffff098
 500:	746e6920 	strbtvc	r6, [lr], #-2336	; 0xfffff6e0
 504:	745f5f00 	ldrbvc	r5, [pc], #-3840	; 50c <__code_start__-0x7af4>
 508:	64795f6d 	ldrbtvs	r5, [r9], #-3949	; 0xfffff093
 50c:	5f007961 	svcpl	0x00007961
 510:	7562735f 	strbvc	r7, [r2, #-863]!	; 0xfffffca1
 514:	695f0066 	ldmdbvs	pc, {r1, r2, r5, r6}^	; <UNPREDICTABLE>
 518:	0073626f 	rsbseq	r6, r3, pc, ror #4
 51c:	49465f5f 	stmdbmi	r6, {r0, r1, r2, r3, r4, r6, r8, r9, sl, fp, ip, lr}^
 520:	5f00454c 	svcpl	0x0000454c
 524:	7473626d 	ldrbtvc	r6, [r3], #-621	; 0xfffffd93
 528:	5f657461 	svcpl	0x00657461
 52c:	5f5f0074 	svcpl	0x005f0074
 530:	4c494673 	mcrrmi	6, 7, r4, r9, cr3
 534:	6d5f0045 	ldclvs	0, cr0, [pc, #-276]	; 428 <__code_start__-0x7bd8>
 538:	61747362 	cmnvs	r4, r2, ror #6
 53c:	5f006574 	svcpl	0x00006574
 540:	646e6172 	strbtvs	r6, [lr], #-370	; 0xfffffe8e
 544:	78656e5f 	stmdavc	r5!, {r0, r1, r2, r3, r4, r6, r9, sl, fp, sp, lr}^
 548:	6d5f0074 	ldclvs	0, cr0, [pc, #-464]	; 380 <__code_start__-0x7c80>
 54c:	6e656c62 	cdpvs	12, 6, cr6, cr5, cr2, {3}
 550:	6174735f 	cmnvs	r4, pc, asr r3
 554:	5f006574 	svcpl	0x00006574
 558:	00646e69 	rsbeq	r6, r4, r9, ror #28
 55c:	636f6c5f 	cmnvs	pc, #24320	; 0x5f00
 560:	00656c61 	rsbeq	r6, r5, r1, ror #24
 564:	6c635f5f 	stclvs	15, cr5, [r3], #-380	; 0xfffffe84
 568:	756e6165 	strbvc	r6, [lr, #-357]!	; 0xfffffe9b
 56c:	755f0070 	ldrbvc	r0, [pc, #-112]	; 504 <__code_start__-0x7afc>
 570:	6570736e 	ldrbvs	r7, [r0, #-878]!	; 0xfffffc92
 574:	69666963 	stmdbvs	r6!, {r0, r1, r5, r6, r8, fp, sp, lr}^
 578:	6c5f6465 	cfldrdvs	mvd6, [pc], {101}	; 0x65
 57c:	6c61636f 	stclvs	3, cr6, [r1], #-444	; 0xfffffe44
 580:	6e695f65 	cdpvs	15, 6, cr5, cr9, cr5, {3}
 584:	5f006f66 	svcpl	0x00006f66
 588:	7778616d 	ldrbvc	r6, [r8, -sp, ror #2]!
 58c:	5f007364 	svcpl	0x00007364
 590:	6e656572 	mcrvs	5, 3, r6, cr5, cr2, {3}
 594:	735f0074 	cmpvc	pc, #116, 0	; 0x74
 598:	00646565 	rsbeq	r6, r4, r5, ror #10
 59c:	6f635f5f 	svcvs	0x00635f5f
 5a0:	00746e75 	rsbseq	r6, r4, r5, ror lr
 5a4:	6f6c5f5f 	svcvs	0x006c5f5f
 5a8:	75006b63 	strvc	r6, [r0, #-2915]	; 0xfffff49d
 5ac:	33746e69 	cmncc	r4, #1680	; 0x690
 5b0:	00745f32 	rsbseq	r5, r4, r2, lsr pc
 5b4:	6565735f 	strbvs	r7, [r5, #-863]!	; 0xfffffca1
 5b8:	6968006b 	stmdbvs	r8!, {r0, r1, r3, r5, r6}^
 5bc:	5f007473 	svcpl	0x00007473
 5c0:	736f7066 	cmnvc	pc, #102, 0	; 0x66
 5c4:	5f00745f 	svcpl	0x0000745f
 5c8:	5f6d745f 	svcpl	0x006d745f
 5cc:	006e696d 	rsbeq	r6, lr, sp, ror #18
 5d0:	72705f5f 	rsbsvc	r5, r0, #380	; 0x17c
 5d4:	655f676f 	ldrbvs	r6, [pc, #-1903]	; fffffe6d <__bss_end__+0xffff666d>
 5d8:	5f5f646e 	svcpl	0x005f646e
 5dc:	72706700 	rsbsvc	r6, r0, #0, 14
 5e0:	695f666f 	ldmdbvs	pc, {r0, r1, r2, r3, r5, r6, r9, sl, sp, lr}^	; <UNPREDICTABLE>
 5e4:	5f00636e 	svcpl	0x0000636e
 5e8:	7461645f 	strbtvc	r6, [r1], #-1119	; 0xfffffba1
 5ec:	74735f61 	ldrbtvc	r5, [r3], #-3937	; 0xfffff09f
 5f0:	5f747261 	svcpl	0x00747261
 5f4:	655f005f 	ldrbvs	r0, [pc, #-95]	; 59d <__code_start__-0x7a63>
 5f8:	6772656d 	ldrbvs	r6, [r2, -sp, ror #10]!
 5fc:	79636e65 	stmdbvc	r3!, {r0, r2, r5, r6, r9, sl, fp, sp, lr}^
 600:	756d5f00 	strbvc	r5, [sp, #-3840]!	; 0xfffff100
 604:	7000746c 	andvc	r7, r0, ip, ror #8
 608:	6f697265 	svcvs	0x00697265
 60c:	735f0064 	cmpvc	pc, #100, 0	; 0x64
 610:	6f747274 	svcvs	0x00747274
 614:	616c5f6b 	cmnvs	ip, fp, ror #30
 618:	5f007473 	svcpl	0x00007473
 61c:	6c61765f 	stclvs	6, cr7, [r1], #-380	; 0xfffffe84
 620:	5f006575 	svcpl	0x00006575
 624:	79746e66 	ldmdbvc	r4!, {r1, r2, r5, r6, r9, sl, fp, sp, lr}^
 628:	00736570 	rsbseq	r6, r3, r0, ror r5
 62c:	5f6d7261 	svcpl	0x006d7261
 630:	656d6974 	strbvs	r6, [sp, #-2420]!	; 0xfffff68c
 634:	72505f72 	subsvc	r5, r0, #456	; 0x1c8
 638:	76694465 	strbtvc	r4, [r9], -r5, ror #8
 63c:	72656469 	rsbvc	r6, r5, #1761607680	; 0x69000000
 640:	64615f00 	strbtvs	r5, [r1], #-3840	; 0xfffff100
 644:	552f0064 	strpl	r0, [pc, #-100]!	; 5e8 <__code_start__-0x7a18>
 648:	73726573 	cmnvc	r2, #482344960	; 0x1cc00000
 64c:	7875792f 	ldmdavc	r5!, {r0, r1, r2, r3, r5, r8, fp, ip, sp, lr}^
 650:	65706e69 	ldrbvs	r6, [r0, #-3689]!	; 0xfffff197
 654:	69472f69 	stmdbvs	r7, {r0, r3, r5, r6, r8, r9, sl, fp, sp}^
 658:	62754874 	rsbsvs	r4, r5, #116, 16	; 0x740000
 65c:	3173632f 	cmncc	r3, pc, lsr #6
 660:	2d653034 	stclcs	0, cr3, [r5, #-208]!	; 0xffffff30
 664:	69773332 	ldmdbvs	r7!, {r1, r4, r5, r8, r9, ip, sp}^
 668:	616c2f6e 	cmnvs	ip, lr, ror #30
 66c:	352f7362 	strcc	r7, [pc, #-866]!	; 312 <__code_start__-0x7cee>
 670:	746e692d 	strbtvc	r6, [lr], #-2349	; 0xfffff6d3
 674:	75727265 	ldrbvc	r7, [r2, #-613]!	; 0xfffffd9b
 678:	2f737470 	svccs	0x00737470
 67c:	70672d31 	rsbvc	r2, r7, r1, lsr sp
 680:	00666f72 	rsbeq	r6, r6, r2, ror pc
 684:	4c555f5f 	mrrcmi	15, 5, r5, r5, cr15	; <UNPREDICTABLE>
 688:	00676e6f 	rsbeq	r6, r7, pc, ror #28
 68c:	7465675f 	strbtvc	r6, [r5], #-1887	; 0xfffff8a1
 690:	65746164 	ldrbvs	r6, [r4, #-356]!	; 0xfffffe9c
 694:	7272655f 	rsbsvc	r6, r2, #398458880	; 0x17c00000
 698:	6c675f00 	stclvs	15, cr5, [r7], #-0
 69c:	6c61626f 	sfmvs	f6, 2, [r1], #-444	; 0xfffffe44
 6a0:	706d695f 	rsbvc	r6, sp, pc, asr r9
 6a4:	5f657275 	svcpl	0x00657275
 6a8:	00727470 	rsbseq	r7, r2, r0, ror r4
 6ac:	5f6d7261 	svcpl	0x006d7261
 6b0:	656d6974 	strbvs	r6, [sp, #-2420]!	; 0xfffff68c
 6b4:	61565f72 	cmpvs	r6, r2, ror pc
 6b8:	0065756c 	rsbeq	r7, r5, ip, ror #10
 6bc:	5f6d7261 	svcpl	0x006d7261
 6c0:	656d6974 	strbvs	r6, [sp, #-2420]!	; 0xfffff68c
 6c4:	52495f72 	subpl	r5, r9, #456	; 0x1c8
 6c8:	656c4351 	strbvs	r4, [ip, #-849]!	; 0xfffffcaf
 6cc:	5f007261 	svcpl	0x00007261
 6d0:	73756e75 	cmnvc	r5, #1872	; 0x750
 6d4:	725f6465 	subsvc	r6, pc, #1694498816	; 0x65000000
 6d8:	00646e61 	rsbeq	r6, r4, r1, ror #28
 6dc:	656d6974 	strbvs	r6, [sp, #-2420]!	; 0xfffff68c
 6e0:	65675f72 	strbvs	r5, [r7, #-3954]!	; 0xfffff08e
 6e4:	73755f74 	cmnvc	r5, #116, 30	; 0x1d0
 6e8:	5f006365 	svcpl	0x00006365
 6ec:	00736477 	rsbseq	r6, r3, r7, ror r4
 6f0:	6d745f5f 	ldclvs	15, cr5, [r4, #-380]!	; 0xfffffe84
 6f4:	6164775f 	cmnvs	r4, pc, asr r7
 6f8:	675f0079 			; <UNDEFINED> instruction: 0x675f0079
 6fc:	0065756c 	rsbeq	r7, r5, ip, ror #10
 700:	5f514946 	svcpl	0x00514946
 704:	746e6f63 	strbtvc	r6, [lr], #-3939	; 0xfffff09d
 708:	006c6f72 	rsbeq	r6, ip, r2, ror pc
 70c:	616d6e5f 	cmnvs	sp, pc, asr lr
 710:	636f6c6c 	cmnvs	pc, #108, 24	; 0x6c00
 714:	366c5f00 	strbtcc	r5, [ip], -r0, lsl #30
 718:	625f6134 	subsvs	r6, pc, #13
 71c:	5f006675 	svcpl	0x00006675
 720:	5f676973 	svcpl	0x00676973
 724:	636e7566 	cmnvs	lr, #427819008	; 0x19800000
 728:	73616c00 	cmnvc	r1, #0, 24
 72c:	6c635f74 	stclvs	15, cr5, [r3], #-464	; 0xfffffe30
 730:	6e5f006b 	cdpvs	0, 5, cr0, cr15, cr11, {3}
 734:	00667562 	rsbeq	r7, r6, r2, ror #10
 738:	756e755f 	strbvc	r7, [lr, #-1375]!	; 0xfffffaa1
 73c:	00646573 	rsbeq	r6, r4, r3, ror r5
 740:	6f635f5f 	svcvs	0x00635f5f
 744:	735f6564 	cmpvc	pc, #100, 10	; 0x19000000
 748:	74726174 	ldrbtvc	r6, [r2], #-372	; 0xfffffe8c
 74c:	5f005f5f 	svcpl	0x00005f5f
 750:	5f6d745f 	svcpl	0x006d745f
 754:	73647369 	cmnvc	r4, #-1543503871	; 0xa4000001
 758:	6c5f0074 	mrrcvs	0, 7, r0, pc, cr4	; <UNPREDICTABLE>
 75c:	6c61636f 	stclvs	3, cr6, [r1], #-444	; 0xfffffe44
 760:	656d6974 	strbvs	r6, [sp, #-2420]!	; 0xfffff68c
 764:	6675625f 			; <UNDEFINED> instruction: 0x6675625f
 768:	6c635f00 	stclvs	15, cr5, [r3], #-0
 76c:	0065736f 	rsbeq	r7, r5, pc, ror #6
 770:	3834725f 	ldmdacc	r4!, {r0, r1, r2, r3, r4, r6, r9, ip, sp, lr}
 774:	626d5f00 	rsbvs	r5, sp, #0, 30
 778:	63776f74 	cmnvs	r7, #116, 30	; 0x1d0
 77c:	6174735f 	cmnvs	r4, pc, asr r3
 780:	5f006574 	svcpl	0x00006574
 784:	00733570 	rsbseq	r3, r3, r0, ror r5
 788:	74737973 	ldrbtvc	r7, [r3], #-2419	; 0xfffff68d
 78c:	645f6d65 	ldrbvs	r6, [pc], #-3429	; 794 <__code_start__-0x786c>
 790:	62617369 	rsbvs	r7, r1, #-1543503871	; 0xa4000001
 794:	695f656c 	ldmdbvs	pc, {r2, r3, r5, r6, r8, sl, sp, lr}^	; <UNPREDICTABLE>
 798:	7265746e 	rsbvc	r7, r5, #1845493760	; 0x6e000000
 79c:	74707572 	ldrbtvc	r7, [r0], #-1394	; 0xfffffa8e
 7a0:	5f5f0073 	svcpl	0x005f0073
 7a4:	6d5f6d74 	ldclvs	13, cr6, [pc, #-464]	; 5dc <__code_start__-0x7a24>
 7a8:	00796164 	rsbseq	r6, r9, r4, ror #2
 7ac:	5f6d7261 	svcpl	0x006d7261
 7b0:	656d6974 	strbvs	r6, [sp, #-2420]!	; 0xfffff68c
 7b4:	72465f72 	subvc	r5, r6, #456	; 0x1c8
 7b8:	75526565 	ldrbvc	r6, [r2, #-1381]	; 0xfffffa9b
 7bc:	6e696e6e 	cdpvs	14, 6, cr6, cr9, cr14, {3}
 7c0:	756f4367 	strbvc	r4, [pc, #-871]!	; 461 <__code_start__-0x7b9f>
 7c4:	7265746e 	rsbvc	r7, r5, #1845493760	; 0x6e000000
 7c8:	74616400 	strbtvc	r6, [r1], #-1024	; 0xfffffc00
 7cc:	62615f61 	rsbvs	r5, r1, #388	; 0x184
 7d0:	5f74726f 	svcpl	0x0074726f
 7d4:	74636576 	strbtvc	r6, [r3], #-1398	; 0xfffffa8a
 7d8:	7500726f 	strvc	r7, [r0, #-623]	; 0xfffffd91
 7dc:	6665646e 	strbtvs	r6, [r5], -lr, ror #8
 7e0:	64656e69 	strbtvs	r6, [r5], #-3689	; 0xfffff197
 7e4:	736e695f 	cmnvc	lr, #1556480	; 0x17c000
 7e8:	63757274 	cmnvs	r5, #116, 4	; 0x40000007
 7ec:	6e6f6974 			; <UNDEFINED> instruction: 0x6e6f6974
 7f0:	6365765f 	cmnvs	r5, #99614720	; 0x5f00000
 7f4:	00726f74 	rsbseq	r6, r2, r4, ror pc
 7f8:	66657270 			; <UNDEFINED> instruction: 0x66657270
 7fc:	68637465 	stmdavs	r3!, {r0, r2, r5, r6, sl, ip, sp, lr}^
 800:	6f62615f 	svcvs	0x0062615f
 804:	765f7472 			; <UNDEFINED> instruction: 0x765f7472
 808:	6f746365 	svcvs	0x00746365
 80c:	695f0072 	ldmdbvs	pc, {r1, r4, r5, r6}^	; <UNPREDICTABLE>
 810:	7265746e 	rsbvc	r7, r5, #1845493760	; 0x6e000000
 814:	74707572 	ldrbtvc	r7, [r0], #-1394	; 0xfffffa8e
 818:	6261745f 	rsbvs	r7, r1, #1593835520	; 0x5f000000
 81c:	5f00656c 	svcpl	0x0000656c
 820:	4e55465f 	mrcmi	6, 2, r4, cr5, cr15, {2}
 824:	4f495443 	svcmi	0x00495443
 828:	005f5f4e 	subseq	r5, pc, lr, asr #30
 82c:	746e695f 	strbtvc	r6, [lr], #-2399	; 0xfffff6a1
 830:	75727265 	ldrbvc	r7, [r2, #-613]!	; 0xfffffd9b
 834:	745f7470 	ldrbvc	r7, [pc], #-1136	; 83c <__code_start__-0x77c4>
 838:	656c6261 	strbvs	r6, [ip, #-609]!	; 0xfffffd9f
 83c:	646e655f 	strbtvs	r6, [lr], #-1375	; 0xfffffaa1
 840:	746e6900 	strbtvc	r6, [lr], #-2304	; 0xfffff700
 844:	75727265 	ldrbvc	r7, [r2, #-613]!	; 0xfffffd9b
 848:	2d737470 	cfldrdcs	mvd7, [r3, #-448]!	; 0xfffffe40
 84c:	00632e63 	rsbeq	r2, r3, r3, ror #28
 850:	74666f73 	strbtvc	r6, [r6], #-3955	; 0xfffff08d
 854:	65726177 	ldrbvs	r6, [r2, #-375]!	; 0xfffffe89
 858:	746e695f 	strbtvc	r6, [lr], #-2399	; 0xfffff6a1
 85c:	75727265 	ldrbvc	r7, [r2, #-613]!	; 0xfffffd9b
 860:	765f7470 			; <UNDEFINED> instruction: 0x765f7470
 864:	6f746365 	svcvs	0x00746365
 868:	65720072 	ldrbvs	r0, [r2, #-114]!	; 0xffffff8e
 86c:	5f746573 	svcpl	0x00746573
 870:	74636576 	strbtvc	r6, [r3], #-1398	; 0xfffffa8a
 874:	6600726f 	strvs	r7, [r0], -pc, ror #4
 878:	5f747361 	svcpl	0x00747361
 87c:	65746e69 	ldrbvs	r6, [r4, #-3689]!	; 0xfffff197
 880:	70757272 	rsbsvc	r7, r5, r2, ror r2
 884:	65765f74 	ldrbvs	r5, [r6, #-3956]!	; 0xfffff08c
 888:	726f7463 	rsbvc	r7, pc, #1660944384	; 0x63000000
 88c:	6d697400 	cfstrdvs	mvd7, [r9, #-0]
 890:	655f7265 	ldrbvs	r7, [pc, #-613]	; 633 <__code_start__-0x79cd>
 894:	6c62616e 	stfvse	f6, [r2], #-440	; 0xfffffe48
 898:	73006465 	movwvc	r6, #1125	; 0x465
 89c:	74666968 	strbtvc	r6, [r6], #-2408	; 0xfffff698
 8a0:	79636e00 	stmdbvc	r3!, {r9, sl, fp, sp, lr}^
 8a4:	73656c63 	cmnvc	r5, #25344	; 0x6300
 8a8:	74657300 	strbtvc	r7, [r5], #-768	; 0xfffffd00
 8ac:	6c6c615f 	stfvse	f6, [ip], #-380	; 0xfffffe84
 8b0:	756f6300 	strbvc	r6, [pc, #-768]!	; 5b8 <__code_start__-0x7a48>
 8b4:	7265746e 	rsbvc	r7, r5, #1845493760	; 0x6e000000
 8b8:	616e655f 	cmnvs	lr, pc, asr r5
 8bc:	64656c62 	strbtvs	r6, [r5], #-3170	; 0xfffff39e
 8c0:	746e6900 	strbtvc	r6, [lr], #-2304	; 0xfffff700
 8c4:	616e655f 	cmnvs	lr, pc, asr r5
 8c8:	64656c62 	strbtvs	r6, [r5], #-3170	; 0xfffff39e
 8cc:	6d697400 	cfstrdvs	mvd7, [r9, #-0]
 8d0:	692d7265 	pushvs	{r0, r2, r5, r6, r9, ip, sp, lr}
 8d4:	7265746e 	rsbvc	r7, r5, #1845493760	; 0x6e000000
 8d8:	74707572 	ldrbtvc	r7, [r0], #-1394	; 0xfffffa8e
 8dc:	7400632e 	strvc	r6, [r0], #-814	; 0xfffffcd2
 8e0:	72656d69 	rsbvc	r6, r5, #6720	; 0x1a40
 8e4:	6568635f 	strbvs	r6, [r8, #-863]!	; 0xfffffca1
 8e8:	6f5f6b63 	svcvs	0x005f6b63
 8ec:	65736666 	ldrbvs	r6, [r3, #-1638]!	; 0xfffff99a
 8f0:	72007374 	andvc	r7, r0, #116, 6	; 0xd0000001
 8f4:	615f6970 	cmpvs	pc, r0, ror r9	; <UNPREDICTABLE>
 8f8:	745f6d72 	ldrbvc	r6, [pc], #-3442	; 900 <__code_start__-0x7700>
 8fc:	72656d69 	rsbvc	r6, r5, #6720	; 0x1a40
 900:	7274635f 	rsbsvc	r6, r4, #2080374785	; 0x7c000001
 904:	00745f6c 	rsbseq	r5, r4, ip, ror #30
 908:	6e756f63 	cdpvs	15, 7, cr6, cr5, cr3, {3}
 90c:	5f726574 	svcpl	0x00726574
 910:	73657270 	cmnvc	r5, #112, 4
 914:	656c6163 	strbvs	r6, [ip, #-355]!	; 0xfffffe9d
 918:	73750072 	cmnvc	r5, #114, 0	; 0x72
 91c:	32335f65 	eorscc	r5, r3, #404	; 0x194
 920:	5f746962 	svcpl	0x00746962
 924:	6e756f63 	cdpvs	15, 7, cr6, cr5, cr3, {3}
 928:	00726574 	rsbseq	r6, r2, r4, ror r5
 92c:	6572666b 	ldrbvs	r6, [r2, #-1643]!	; 0xfffff995
 930:	6f705f65 	svcvs	0x00705f65
 934:	6d6b0070 	stclvs	0, cr0, [fp, #-448]!	; 0xfffffe40
 938:	6f6c6c61 	svcvs	0x006c6c61
 93c:	6c615f63 	stclvs	15, cr5, [r1], #-396	; 0xfffffe74
 940:	656e6769 	strbvs	r6, [lr, #-1897]!	; 0xfffff897
 944:	656d0064 	strbvs	r0, [sp, #-100]!	; 0xffffff9c
 948:	7465736d 	strbtvc	r7, [r5], #-877	; 0xfffffc93
 94c:	72666b00 	rsbvc	r6, r6, #0, 22
 950:	615f6565 	cmpvs	pc, r5, ror #10
 954:	6b006c6c 	blvs	1bb0c <__bss_end__+0x1230c>
 958:	6c6c616d 	stfvse	f6, [ip], #-436	; 0xfffffe4c
 95c:	685f636f 	ldmdavs	pc, {r0, r1, r2, r3, r5, r6, r8, r9, sp, lr}^	; <UNPREDICTABLE>
 960:	5f706165 	svcpl	0x00706165
 964:	00646e65 	rsbeq	r6, r4, r5, ror #28
 968:	74696e69 	strbtvc	r6, [r9], #-3689	; 0xfffff197
 96c:	2f00705f 	svccs	0x0000705f
 970:	656d6f68 	strbvs	r6, [sp, #-3944]!	; 0xfffff098
 974:	676e652f 	strbvs	r6, [lr, -pc, lsr #10]!
 978:	2f72656c 	svccs	0x0072656c
 97c:	73616c63 	cmnvc	r1, #25344	; 0x6300
 980:	73632f73 	cmnvc	r3, #460	; 0x1cc
 984:	65303431 	ldrvs	r3, [r0, #-1073]!	; 0xfffffbcf
 988:	7733322d 	ldrvc	r3, [r3, -sp, lsr #4]!
 98c:	6c2f6e69 	stcvs	14, cr6, [pc], #-420	; 7f0 <__code_start__-0x7810>
 990:	69706269 	ldmdbvs	r0!, {r0, r3, r5, r6, r9, sp, lr}^
 994:	6174732f 	cmnvs	r4, pc, lsr #6
 998:	702d6666 	eorvc	r6, sp, r6, ror #12
 99c:	61766972 	cmnvs	r6, r2, ror r9
 9a0:	6d006574 	cfstr32vs	mvfx6, [r0, #-464]	; 0xfffffe30
 9a4:	6e5f7861 	cdpvs	8, 5, cr7, cr15, cr1, {3}
 9a8:	65747962 	ldrbvs	r7, [r4, #-2402]!	; 0xfffff69e
 9ac:	6c610073 	stclvs	0, cr0, [r1], #-460	; 0xfffffe34
 9b0:	6d6e6769 	stclvs	7, cr6, [lr, #-420]!	; 0xfffffe5c
 9b4:	00746e65 	rsbseq	r6, r4, r5, ror #28
 9b8:	705f7369 	subsvc	r7, pc, r9, ror #6
 9bc:	0032776f 	eorseq	r7, r2, pc, ror #14
 9c0:	20554e47 	subscs	r4, r5, r7, asr #28
 9c4:	20393943 	eorscs	r3, r9, r3, asr #18
 9c8:	332e3031 			; <UNDEFINED> instruction: 0x332e3031
 9cc:	3220312e 	eorcc	r3, r0, #-2147483637	; 0x8000000b
 9d0:	30313230 	eorscc	r3, r1, r0, lsr r2
 9d4:	20343238 	eorscs	r3, r4, r8, lsr r2
 9d8:	6c657228 	sfmvs	f7, 2, [r5], #-160	; 0xffffff60
 9dc:	65736165 	ldrbvs	r6, [r3, #-357]!	; 0xfffffe9b
 9e0:	6d2d2029 	stcvs	0, cr2, [sp, #-164]!	; 0xffffff5c
 9e4:	3d757063 	ldclcc	0, cr7, [r5, #-396]!	; 0xfffffe74
 9e8:	316d7261 	cmncc	sp, r1, ror #4
 9ec:	6a363731 	bvs	d8e6b8 <__bss_end__+0xd84eb8>
 9f0:	732d667a 			; <UNDEFINED> instruction: 0x732d667a
 9f4:	746d2d20 	strbtvc	r2, [sp], #-3360	; 0xfffff2e0
 9f8:	3d656e75 	stclcc	14, cr6, [r5, #-468]!	; 0xfffffe2c
 9fc:	316d7261 	cmncc	sp, r1, ror #4
 a00:	6a363731 	bvs	d8e6cc <__bss_end__+0xd84ecc>
 a04:	732d667a 			; <UNDEFINED> instruction: 0x732d667a
 a08:	746d2d20 	strbtvc	r2, [sp], #-3360	; 0xfffff2e0
 a0c:	6f733d70 	svcvs	0x00733d70
 a10:	2d207466 	cfstrscs	mvf7, [r0, #-408]!	; 0xfffffe68
 a14:	6f6c666d 	svcvs	0x006c666d
 a18:	612d7461 			; <UNDEFINED> instruction: 0x612d7461
 a1c:	733d6962 	teqvc	sp, #1605632	; 0x188000
 a20:	2074666f 	rsbscs	r6, r4, pc, ror #12
 a24:	72616d2d 	rsbvc	r6, r1, #2880	; 0xb40
 a28:	6d2d206d 	stcvs	0, cr2, [sp, #-436]!	; 0xfffffe4c
 a2c:	68637261 	stmdavs	r3!, {r0, r5, r6, r9, ip, sp, lr}^
 a30:	6d72613d 	ldfvse	f6, [r2, #-244]!	; 0xffffff0c
 a34:	7a6b3676 	bvc	1ace414 <__bss_end__+0x1ac4c14>
 a38:	67672d20 	strbvs	r2, [r7, -r0, lsr #26]!
 a3c:	2d206264 	sfmcs	f6, 4, [r0, #-400]!	; 0xfffffe70
 a40:	2d20674f 	stccs	7, cr6, [r0, #-316]!	; 0xfffffec4
 a44:	3d647473 	cfstrdcc	mvd7, [r4, #-460]!	; 0xfffffe34
 a48:	39756e67 	ldmdbcc	r5!, {r0, r1, r2, r5, r6, r9, sl, fp, sp, lr}^
 a4c:	662d2039 			; <UNDEFINED> instruction: 0x662d2039
 a50:	65657266 	strbvs	r7, [r5, #-614]!	; 0xfffffd9a
 a54:	6e617473 	mcrvs	4, 3, r7, cr1, cr3, {3}
 a58:	676e6964 	strbvs	r6, [lr, -r4, ror #18]!
 a5c:	64615f00 	strbtvs	r5, [r1], #-3840	; 0xfffff100
 a60:	72007264 	andvc	r7, r0, #100, 4	; 0x40000006
 a64:	646e756f 	strbtvs	r7, [lr], #-1391	; 0xfffffa91
 a68:	64007075 	strvs	r7, [r0], #-117	; 0xffffff8b
 a6c:	6c62756f 	cfstr64vs	mvdx7, [r2], #-444	; 0xfffffe44
 a70:	6d6b0065 	stclvs	0, cr0, [fp, #-404]!	; 0xfffffe6c
 a74:	6f6c6c61 	svcvs	0x006c6c61
 a78:	6e695f63 	cdpvs	15, 6, cr5, cr9, cr3, {3}
 a7c:	68007469 	stmdavs	r0, {r0, r3, r5, r6, sl, ip, sp, lr}
 a80:	00706165 	rsbseq	r6, r0, r5, ror #2
 a84:	6c616d6b 	stclvs	13, cr6, [r1], #-428	; 0xfffffe54
 a88:	2e636f6c 	cdpcs	15, 6, cr6, cr3, cr12, {3}
 a8c:	6d6b0063 	stclvs	0, cr0, [fp, #-396]!	; 0xfffffe74
 a90:	6f6c6c61 	svcvs	0x006c6c61
 a94:	65685f63 	strbvs	r5, [r8, #-3939]!	; 0xfffff09d
 a98:	705f7061 	subsvc	r7, pc, r1, rrx
 a9c:	4f007274 	svcmi	0x00007274
 aa0:	424d656e 	submi	r6, sp, #461373440	; 0x1b800000
 aa4:	616d6b00 	cmnvs	sp, r0, lsl #22
 aa8:	636f6c6c 	cmnvs	pc, #108, 24	; 0x6c00
 aac:	746f6e5f 	strbtvc	r6, [pc], #-3679	; ab4 <__code_start__-0x754c>
 ab0:	6f72657a 	svcvs	0x0072657a
 ab4:	78616d00 	stmdavc	r1!, {r8, sl, fp, sp, lr}^
 ab8:	3233755f 	eorscc	r7, r3, #398458880	; 0x17c00000
 abc:	61656800 	cmnvs	r5, r0, lsl #16
 ac0:	616d5f70 	smcvs	54768	; 0xd5f0
 ac4:	6d6b0078 	stclvs	0, cr0, [fp, #-480]!	; 0xfffffe20
 ac8:	6f6c6c61 	svcvs	0x006c6c61
 acc:	65685f63 	strbvs	r5, [r8, #-3939]!	; 0xfffff09d
 ad0:	735f7061 	cmpvc	pc, #97, 0	; 0x61
 ad4:	74726174 	ldrbtvc	r6, [r2], #-372	; 0xfffffe8c
 ad8:	5f736900 	svcpl	0x00736900
 adc:	67696c61 	strbvs	r6, [r9, -r1, ror #24]!
 ae0:	0064656e 	rsbeq	r6, r4, lr, ror #10
 ae4:	746e6975 	strbtvc	r6, [lr], #-2421	; 0xfffff68b
 ae8:	745f3436 	ldrbvc	r3, [pc], #-1078	; af0 <__code_start__-0x7510>
 aec:	73552f00 	cmpvc	r5, #0, 30
 af0:	2f737265 	svccs	0x00737265
 af4:	69787579 	ldmdbvs	r8!, {r0, r3, r4, r5, r6, r8, sl, ip, sp, lr}^
 af8:	6965706e 	stmdbvs	r5!, {r1, r2, r3, r5, r6, ip, sp, lr}^
 afc:	7469472f 	strbtvc	r4, [r9], #-1839	; 0xfffff8d1
 b00:	2f627548 	svccs	0x00627548
 b04:	34317363 	ldrtcc	r7, [r1], #-867	; 0xfffffc9d
 b08:	322d6530 	eorcc	r6, sp, #48, 10	; 0xc000000
 b0c:	6e697733 	mcrvs	7, 3, r7, cr9, cr3, {1}
 b10:	62696c2f 	rsbvs	r6, r9, #12032	; 0x2f00
 b14:	2e006970 			; <UNDEFINED> instruction: 0x2e006970
 b18:	62696c2f 	rsbvs	r6, r9, #12032	; 0x2f00
 b1c:	656d2f63 	strbvs	r2, [sp, #-3939]!	; 0xfffff09d
 b20:	7465736d 	strbtvc	r7, [r5], #-877	; 0xfffffc93
 b24:	4700632e 	strmi	r6, [r0, -lr, lsr #6]
 b28:	4320554e 			; <UNDEFINED> instruction: 0x4320554e
 b2c:	39203939 	stmdbcc	r0!, {r0, r3, r4, r5, r8, fp, ip, sp}
 b30:	312e322e 			; <UNDEFINED> instruction: 0x312e322e
 b34:	31303220 	teqcc	r0, r0, lsr #4
 b38:	32303139 	eorscc	r3, r0, #1073741838	; 0x4000000e
 b3c:	72282035 	eorvc	r2, r8, #53, 0	; 0x35
 b40:	61656c65 	cmnvs	r5, r5, ror #24
 b44:	20296573 	eorcs	r6, r9, r3, ror r5
 b48:	4d52415b 	ldfmie	f4, [r2, #-364]	; 0xfffffe94
 b4c:	6d72612f 	ldfvse	f6, [r2, #-188]!	; 0xffffff44
 b50:	622d392d 	eorvs	r3, sp, #737280	; 0xb4000
 b54:	636e6172 	cmnvs	lr, #-2147483620	; 0x8000001c
 b58:	65722068 	ldrbvs	r2, [r2, #-104]!	; 0xffffff98
 b5c:	69736976 	ldmdbvs	r3!, {r1, r2, r4, r5, r6, r8, fp, sp, lr}^
 b60:	32206e6f 	eorcc	r6, r0, #1776	; 0x6f0
 b64:	39353737 	ldmdbcc	r5!, {r0, r1, r2, r4, r5, r8, r9, sl, ip, sp}
 b68:	2d205d39 	stccs	13, cr5, [r0, #-228]!	; 0xffffff1c
 b6c:	7570636d 	ldrbvc	r6, [r0, #-877]!	; 0xfffffc93
 b70:	6d72613d 	ldfvse	f6, [r2, #-244]!	; 0xffffff0c
 b74:	36373131 			; <UNDEFINED> instruction: 0x36373131
 b78:	2d667a6a 	vstmdbcs	r6!, {s15-s120}
 b7c:	6d2d2073 	stcvs	0, cr2, [sp, #-460]!	; 0xfffffe34
 b80:	656e7574 	strbvs	r7, [lr, #-1396]!	; 0xfffffa8c
 b84:	6d72613d 	ldfvse	f6, [r2, #-244]!	; 0xffffff0c
 b88:	36373131 			; <UNDEFINED> instruction: 0x36373131
 b8c:	2d667a6a 	vstmdbcs	r6!, {s15-s120}
 b90:	6d2d2073 	stcvs	0, cr2, [sp, #-460]!	; 0xfffffe34
 b94:	616f6c66 	cmnvs	pc, r6, ror #24
 b98:	62612d74 	rsbvs	r2, r1, #116, 26	; 0x1d00
 b9c:	6f733d69 	svcvs	0x00733d69
 ba0:	2d207466 	cfstrscs	mvf7, [r0, #-408]!	; 0xfffffe68
 ba4:	6d72616d 	ldfvse	f6, [r2, #-436]!	; 0xfffffe4c
 ba8:	616d2d20 	cmnvs	sp, r0, lsr #26
 bac:	3d686372 	stclcc	3, cr6, [r8, #-456]!	; 0xfffffe38
 bb0:	766d7261 	strbtvc	r7, [sp], -r1, ror #4
 bb4:	207a6b36 	rsbscs	r6, sl, r6, lsr fp
 bb8:	6467672d 	strbtvs	r6, [r7], #-1837	; 0xfffff8d3
 bbc:	4f2d2062 	svcmi	0x002d2062
 bc0:	732d2067 			; <UNDEFINED> instruction: 0x732d2067
 bc4:	673d6474 			; <UNDEFINED> instruction: 0x673d6474
 bc8:	3939756e 	ldmdbcc	r9!, {r1, r2, r3, r5, r6, r8, sl, ip, sp, lr}
 bcc:	66662d20 	strbtvs	r2, [r6], -r0, lsr #26
 bd0:	73656572 	cmnvc	r5, #478150656	; 0x1c800000
 bd4:	646e6174 	strbtvs	r6, [lr], #-372	; 0xfffffe8c
 bd8:	00676e69 	rsbeq	r6, r7, r9, ror #28
 bdc:	6e675f5f 	mcrvs	15, 3, r5, cr7, cr15, {2}
 be0:	765f6375 			; <UNDEFINED> instruction: 0x765f6375
 be4:	696c5f61 	stmdbvs	ip!, {r0, r5, r6, r8, r9, sl, fp, ip, lr}^
 be8:	76007473 			; <UNDEFINED> instruction: 0x76007473
 bec:	6e697270 	mcrvs	2, 3, r7, cr9, cr0, {3}
 bf0:	5f006b74 	svcpl	0x00006b74
 bf4:	0070615f 	rsbseq	r6, r0, pc, asr r1
 bf8:	74696d65 	strbtvc	r6, [r9], #-3429	; 0xfffff29b
 bfc:	6c61765f 	stclvs	6, cr7, [r1], #-380	; 0xfffffe84
 c00:	6c2f2e00 	stcvs	14, cr2, [pc], #-0	; c08 <__code_start__-0x73f8>
 c04:	2f636269 	svccs	0x00636269
 c08:	6e697270 	mcrvs	2, 3, r7, cr9, cr0, {3}
 c0c:	632e6b74 			; <UNDEFINED> instruction: 0x632e6b74
 c10:	765f5f00 	ldrbvc	r5, [pc], -r0, lsl #30
 c14:	696c5f61 	stmdbvs	ip!, {r0, r5, r6, r8, r9, sl, fp, ip, lr}^
 c18:	72007473 	andvc	r7, r0, #1929379840	; 0x73000000
 c1c:	705f6970 	subsvc	r6, pc, r0, ror r9	; <UNPREDICTABLE>
 c20:	68637475 	stmdavs	r3!, {r0, r2, r4, r5, r6, sl, ip, sp, lr}^
 c24:	2e007261 	cdpcs	2, 0, cr7, cr0, cr1, {3}
 c28:	62696c2f 	rsbvs	r6, r9, #12032	; 0x2f00
 c2c:	75702f63 	ldrbvc	r2, [r0, #-3939]!	; 0xfffff09d
 c30:	61686374 	smcvs	34356	; 0x8634
 c34:	00632e72 	rsbeq	r2, r3, r2, ror lr
 c38:	74726175 	ldrbtvc	r6, [r2], #-373	; 0xfffffe8b
 c3c:	7475705f 	ldrbtvc	r7, [r5], #-95	; 0xffffffa1
 c40:	70720063 	rsbsvc	r0, r2, r3, rrx
 c44:	65725f69 	ldrbvs	r5, [r2, #-3945]!	; 0xfffff097
 c48:	746f6f62 	strbtvc	r6, [pc], #-3938	; c50 <__code_start__-0x73b0>
 c4c:	6c656400 	cfstrdvs	mvd6, [r5], #-0
 c50:	6d5f7961 	vldrvs.16	s15, [pc, #-194]	; b96 <__code_start__-0x746a>	; <UNPREDICTABLE>
 c54:	2f2e0073 	svccs	0x002e0073
 c58:	66617473 			; <UNDEFINED> instruction: 0x66617473
 c5c:	72732d66 	rsbsvc	r2, r3, #6528	; 0x1980
 c60:	6c632f63 	stclvs	15, cr2, [r3], #-396	; 0xfffffe74
 c64:	2d6e6165 	stfcse	f6, [lr, #-404]!	; 0xfffffe6c
 c68:	6f626572 	svcvs	0x00626572
 c6c:	632e746f 			; <UNDEFINED> instruction: 0x632e746f
 c70:	74757000 	ldrbtvc	r7, [r5], #-0
 c74:	6175006b 	cmnvs	r5, fp, rrx
 c78:	665f7472 			; <UNDEFINED> instruction: 0x665f7472
 c7c:	6873756c 	ldmdavs	r3!, {r2, r3, r5, r6, r8, sl, ip, sp, lr}^
 c80:	0078745f 	rsbseq	r7, r8, pc, asr r4
 c84:	7473635f 	ldrbtvc	r6, [r3], #-863	; 0xfffffca1
 c88:	00747261 	rsbseq	r7, r4, r1, ror #4
 c8c:	5f737362 	svcpl	0x00737362
 c90:	00646e65 	rsbeq	r6, r4, r5, ror #28
 c94:	74726175 	ldrbtvc	r6, [r2], #-373	; 0xfffffe8b
 c98:	696e695f 	stmdbvs	lr!, {r0, r1, r2, r3, r4, r6, r8, fp, sp, lr}^
 c9c:	2f2e0074 	svccs	0x002e0074
 ca0:	66617473 			; <UNDEFINED> instruction: 0x66617473
 ca4:	72732d66 	rsbsvc	r2, r3, #6528	; 0x1980
 ca8:	73632f63 	cmnvc	r3, #396	; 0x18c
 cac:	74726174 	ldrbtvc	r6, [r2], #-372	; 0xfffffe8c
 cb0:	5000632e 	andpl	r6, r0, lr, lsr #6
 cb4:	44575f4d 	ldrbmi	r5, [r7], #-3917	; 0xfffff0b3
 cb8:	7300474f 	movwvc	r4, #1871	; 0x74f
 cbc:	755f7465 	ldrbvc	r7, [pc, #-1125]	; 85f <__code_start__-0x77a1>
 cc0:	5f726573 	svcpl	0x00726573
 cc4:	6576656c 	ldrbvs	r6, [r6, #-1388]!	; 0xfffffa94
 cc8:	2f2e006c 	svccs	0x002e006c
 ccc:	66617473 			; <UNDEFINED> instruction: 0x66617473
 cd0:	72732d66 	rsbsvc	r2, r3, #6528	; 0x1980
 cd4:	65722f63 	ldrbvs	r2, [r2, #-3939]!	; 0xfffff09d
 cd8:	746f6f62 	strbtvc	r6, [pc], #-3938	; ce0 <__code_start__-0x7320>
 cdc:	5000632e 	andpl	r6, r0, lr, lsr #6
 ce0:	41505f4d 	cmpmi	r0, sp, asr #30
 ce4:	4f575353 	svcmi	0x00575353
 ce8:	61004452 	tstvs	r0, r2, asr r4
 cec:	73755f74 	cmnvc	r5, #116, 30	; 0x1d0
 cf0:	6c5f7265 	lfmvs	f7, 2, [pc], {101}	; 0x65
 cf4:	6c657665 	stclvs	6, cr7, [r5], #-404	; 0xfffffe6c
 cf8:	5f4d5000 	svcpl	0x004d5000
 cfc:	43545352 	cmpmi	r4, #1207959553	; 0x48000001
 d00:	4352575f 	cmpmi	r2, #24903680	; 0x17c0000
 d04:	465f4746 	ldrbmi	r4, [pc], -r6, asr #14
 d08:	5f4c4c55 	svcpl	0x004c4c55
 d0c:	45534552 	ldrbmi	r4, [r3, #-1362]	; 0xfffffaae
 d10:	4d500054 	ldclmi	0, cr0, [r0, #-336]	; 0xfffffeb0
 d14:	5453525f 	ldrbpl	r5, [r3], #-607	; 0xfffffda1
 d18:	70630043 	rsbvc	r0, r3, r3, asr #32
 d1c:	64007273 	strvs	r7, [r0], #-627	; 0xfffffd8d
 d20:	79616c65 	stmdbvc	r1!, {r0, r2, r5, r6, sl, fp, sp, lr}^
 d24:	6365735f 	cmnvs	r5, #2080374785	; 0x7c000001
 d28:	732f2e00 			; <UNDEFINED> instruction: 0x732f2e00
 d2c:	66666174 			; <UNDEFINED> instruction: 0x66666174
 d30:	6372732d 	cmnvs	r2, #-1275068416	; 0xb4000000
 d34:	6d69742f 	cfstrdvs	mvd7, [r9, #-188]!	; 0xffffff44
 d38:	632e7265 			; <UNDEFINED> instruction: 0x632e7265
 d3c:	6c656400 	cfstrdvs	mvd6, [r5], #-0
 d40:	755f7961 	ldrbvc	r7, [pc, #-2401]	; 3e7 <__code_start__-0x7c19>
 d44:	69740073 	ldmdbvs	r4!, {r0, r1, r4, r5, r6}^
 d48:	5f72656d 	svcpl	0x0072656d
 d4c:	5f746567 	svcpl	0x00746567
 d50:	63657375 	cmnvs	r5, #-738197503	; 0xd4000001
 d54:	7761725f 			; <UNDEFINED> instruction: 0x7761725f
 d58:	75616200 	strbvc	r6, [r1, #-512]!	; 0xfffffe00
 d5c:	61765f64 	cmnvs	r6, r4, ror #30
 d60:	7473006c 	ldrbtvc	r0, [r3], #-108	; 0xffffff94
 d64:	75007461 	strvc	r7, [r0, #-1121]	; 0xfffffb9f
 d68:	5f747261 	svcpl	0x00747261
 d6c:	5f6e6163 	svcpl	0x006e6163
 d70:	63746567 	cmnvs	r4, #432013312	; 0x19c00000
 d74:	49504700 	ldmdbmi	r0, {r8, r9, sl, lr}^
 d78:	55465f4f 	strbpl	r5, [r6, #-3919]	; 0xfffff0b1
 d7c:	4f5f434e 	svcmi	0x005f434e
 d80:	55505455 	ldrbpl	r5, [r0, #-1109]	; 0xfffffbab
 d84:	75610054 	strbvc	r0, [r1, #-84]!	; 0xffffffac
 d88:	65705f78 	ldrbvs	r5, [r0, #-3960]!	; 0xfffff088
 d8c:	68706972 	ldmdavs	r0!, {r1, r4, r5, r6, r8, fp, sp, lr}^
 d90:	61750073 	cmnvs	r5, r3, ror r0
 d94:	632e7472 			; <UNDEFINED> instruction: 0x632e7472
 d98:	72617500 	rsbvc	r7, r1, #0, 10
 d9c:	78745f74 	ldmdavc	r4!, {r2, r4, r5, r6, r8, r9, sl, fp, ip, lr}^
 da0:	5f73695f 	svcpl	0x0073695f
 da4:	74706d65 	ldrbtvc	r6, [r0], #-3429	; 0xfffff29b
 da8:	63730079 	cmnvs	r3, #121, 0	; 0x79
 dac:	63746172 	cmnvs	r4, #-2147483620	; 0x8000001c
 db0:	50470068 	subpl	r0, r7, r8, rrx
 db4:	465f4f49 	ldrbmi	r4, [pc], -r9, asr #30
 db8:	5f434e55 	svcpl	0x00434e55
 dbc:	33544c41 	cmpcc	r4, #16640	; 0x4100
 dc0:	49504700 	ldmdbmi	r0, {r8, r9, sl, lr}^
 dc4:	55465f4f 	strbpl	r5, [r6, #-3919]	; 0xfffff0b1
 dc8:	415f434e 	cmpmi	pc, lr, asr #6
 dcc:	0035544c 	eorseq	r5, r5, ip, asr #8
 dd0:	33747570 	cmncc	r4, #112, 10	; 0x1c000000
 dd4:	61750032 	cmnvs	r5, r2, lsr r0
 dd8:	675f7472 			; <UNDEFINED> instruction: 0x675f7472
 ddc:	00637465 	rsbeq	r7, r3, r5, ror #8
 de0:	64756162 	ldrbtvs	r6, [r5], #-354	; 0xfffffe9e
 de4:	646e6100 	strbtvs	r6, [lr], #-256	; 0xffffff00
 de8:	336e695f 	cmncc	lr, #1556480	; 0x17c000
 dec:	61750032 	cmnvs	r5, r2, lsr r0
 df0:	635f7472 	cmpvs	pc, #1912602624	; 0x72000000
 df4:	705f6e61 	subsvc	r6, pc, r1, ror #28
 df8:	00637475 	rsbeq	r7, r3, r5, ror r4
 dfc:	74726175 	ldrbtvc	r6, [r2], #-373	; 0xfffffe8b
 e00:	7369645f 	cmnvc	r9, #1593835520	; 0x5f000000
 e04:	656c6261 	strbvs	r6, [ip, #-609]!	; 0xfffffd9f
 e08:	746e6300 	strbtvc	r6, [lr], #-768	; 0xfffffd00
 e0c:	5047006c 	subpl	r0, r7, ip, rrx
 e10:	465f4f49 	ldrbmi	r4, [pc], -r9, asr #30
 e14:	5f434e55 	svcpl	0x00434e55
 e18:	30544c41 	subscc	r4, r4, r1, asr #24
 e1c:	49504700 	ldmdbmi	r0, {r8, r9, sl, lr}^
 e20:	55465f4f 	strbpl	r5, [r6, #-3919]	; 0xfffff0b1
 e24:	415f434e 	cmpmi	pc, lr, asr #6
 e28:	0031544c 	eorseq	r5, r1, ip, asr #8
 e2c:	74726175 	ldrbtvc	r6, [r2], #-373	; 0xfffffe8b
 e30:	7361685f 	cmnvc	r1, #6225920	; 0x5f0000
 e34:	7461645f 	strbtvc	r6, [r1], #-1119	; 0xfffffba1
 e38:	50470061 	subpl	r0, r7, r1, rrx
 e3c:	465f4f49 	ldrbmi	r4, [pc], -r9, asr #30
 e40:	5f434e55 	svcpl	0x00434e55
 e44:	32544c41 	subscc	r4, r4, #16640	; 0x4100
 e48:	49504700 	ldmdbmi	r0, {r8, r9, sl, lr}^
 e4c:	55465f4f 	strbpl	r5, [r6, #-3919]	; 0xfffff0b1
 e50:	415f434e 	cmpmi	pc, lr, asr #6
 e54:	0034544c 	eorseq	r5, r4, ip, asr #8
 e58:	5f787561 	svcpl	0x00787561
 e5c:	62616e65 	rsbvs	r6, r1, #1616	; 0x650
 e60:	0073656c 	rsbseq	r6, r3, ip, ror #10
 e64:	695f726f 	ldmdbvs	pc, {r0, r1, r2, r3, r5, r6, r9, ip, sp, lr}^	; <UNPREDICTABLE>
 e68:	0032336e 	eorseq	r3, r2, lr, ror #6
 e6c:	74726175 	ldrbtvc	r6, [r2], #-373	; 0xfffffe8b
 e70:	49504700 	ldmdbmi	r0, {r8, r9, sl, lr}^
 e74:	55465f4f 	strbpl	r5, [r6, #-3919]	; 0xfffff0b1
 e78:	495f434e 	ldmdbmi	pc, {r1, r2, r3, r6, r8, r9, lr}^	; <UNPREDICTABLE>
 e7c:	5455504e 	ldrbpl	r5, [r5], #-78	; 0xffffffb2
 e80:	69706700 	ldmdbvs	r0!, {r8, r9, sl, sp, lr}^
 e84:	65735f6f 	ldrbvs	r5, [r3, #-3951]!	; 0xfffff091
 e88:	75665f74 	strbvc	r5, [r6, #-3956]!	; 0xfffff08c
 e8c:	6974636e 	ldmdbvs	r4!, {r1, r2, r3, r5, r6, r8, r9, sp, lr}^
 e90:	67006e6f 	strvs	r6, [r0, -pc, ror #28]
 e94:	32337465 	eorscc	r7, r3, #1694498816	; 0x65000000
 e98:	69706700 	ldmdbvs	r0!, {r8, r9, sl, sp, lr}^
 e9c:	6c635f6f 	stclvs	15, cr5, [r3], #-444	; 0xfffffe44
 ea0:	67003072 	smlsdxvs	r0, r2, r0, r3
 ea4:	5f6f6970 	svcpl	0x006f6970
 ea8:	30746573 	rsbscc	r6, r4, r3, ror r5
 eac:	69706700 	ldmdbvs	r0!, {r8, r9, sl, sp, lr}^
 eb0:	72775f6f 	rsbsvc	r5, r7, #444	; 0x1bc
 eb4:	00657469 	rsbeq	r7, r5, r9, ror #8
 eb8:	6f697067 	svcvs	0x00697067
 ebc:	6573665f 	ldrbvs	r6, [r3, #-1631]!	; 0xfffff9a1
 ec0:	4400306c 	strmi	r3, [r0], #-108	; 0xffffff94
 ec4:	565f5645 	ldrbpl	r5, [pc], -r5, asr #12
 ec8:	32334c41 	eorscc	r4, r3, #16640	; 0x4100
 ecc:	69706700 	ldmdbvs	r0!, {r8, r9, sl, sp, lr}^
 ed0:	65725f6f 	ldrbvs	r5, [r2, #-3951]!	; 0xfffff091
 ed4:	67006461 	strvs	r6, [r0, -r1, ror #8]
 ed8:	5f6f6970 	svcpl	0x006f6970
 edc:	5f746573 	svcpl	0x00746573
 ee0:	75706e69 	ldrbvc	r6, [r0, #-3689]!	; 0xfffff197
 ee4:	70670074 	rsbvc	r0, r7, r4, ror r0
 ee8:	735f6f69 	cmpvc	pc, #420	; 0x1a4
 eec:	6f5f7465 	svcvs	0x005f7465
 ef0:	67006666 	strvs	r6, [r0, -r6, ror #12]
 ef4:	5f6f6970 	svcpl	0x006f6970
 ef8:	5f746573 	svcpl	0x00746573
 efc:	7074756f 	rsbsvc	r7, r4, pc, ror #10
 f00:	67007475 	smlsdxvs	r0, r5, r4, r7
 f04:	5f6f6970 	svcpl	0x006f6970
 f08:	636e7566 	cmnvs	lr, #427819008	; 0x19800000
 f0c:	6700745f 	smlsdvs	r0, pc, r4, r7	; <UNPREDICTABLE>
 f10:	5f6f6970 	svcpl	0x006f6970
 f14:	3076656c 	rsbscc	r6, r6, ip, ror #10
 f18:	73616d00 	cmnvc	r1, #0, 26
 f1c:	5047006b 	subpl	r0, r7, fp, rrx
 f20:	425f4f49 	subsmi	r4, pc, #292	; 0x124
 f24:	00455341 	subeq	r5, r5, r1, asr #6
 f28:	6f697067 	svcvs	0x00697067
 f2c:	6700632e 	strvs	r6, [r0, -lr, lsr #6]
 f30:	5f6f6970 	svcpl	0x006f6970
 f34:	5f746573 	svcpl	0x00746573
 f38:	2e006e6f 	cdpcs	14, 0, cr6, cr0, cr15, {3}
 f3c:	62696c2f 	rsbvs	r6, r9, #12032	; 0x2f00
 f40:	75702f63 	ldrbvc	r2, [r0, #-3939]!	; 0xfffff09d
 f44:	632e6b74 			; <UNDEFINED> instruction: 0x632e6b74
	...

Disassembly of section .debug_frame:

00000000 <.debug_frame>:
   0:	0000000c 	andeq	r0, r0, ip
   4:	ffffffff 			; <UNDEFINED> instruction: 0xffffffff
   8:	7c020001 	stcvc	0, cr0, [r2], {1}
   c:	000d0c0e 	andeq	r0, sp, lr, lsl #24
  10:	0000000c 	andeq	r0, r0, ip
  14:	00000000 	andeq	r0, r0, r0
  18:	00008038 	andeq	r8, r0, r8, lsr r0
  1c:	0000002c 	andeq	r0, r0, ip, lsr #32
  20:	00000014 	andeq	r0, r0, r4, lsl r0
  24:	00000000 	andeq	r0, r0, r0
  28:	00008064 	andeq	r8, r0, r4, rrx
  2c:	00000064 	andeq	r0, r0, r4, rrx
  30:	84080e42 	strhi	r0, [r8], #-3650	; 0xfffff1be
  34:	00018e02 	andeq	r8, r1, r2, lsl #28
  38:	00000018 	andeq	r0, r0, r8, lsl r0
  3c:	00000000 	andeq	r0, r0, r0
  40:	000080c8 	andeq	r8, r0, r8, asr #1
  44:	0000006c 	andeq	r0, r0, ip, rrx
  48:	84100e42 	ldrhi	r0, [r0], #-3650	; 0xfffff1be
  4c:	86038504 	strhi	r8, [r3], -r4, lsl #10
  50:	00018e02 	andeq	r8, r1, r2, lsl #28
  54:	00000018 	andeq	r0, r0, r8, lsl r0
  58:	00000000 	andeq	r0, r0, r0
  5c:	00008134 	andeq	r8, r0, r4, lsr r1
  60:	0000006c 	andeq	r0, r0, ip, rrx
  64:	84100e42 	ldrhi	r0, [r0], #-3650	; 0xfffff1be
  68:	86038504 	strhi	r8, [r3], -r4, lsl #10
  6c:	00018e02 	andeq	r8, r1, r2, lsl #28
  70:	00000018 	andeq	r0, r0, r8, lsl r0
  74:	00000000 	andeq	r0, r0, r0
  78:	000081a0 	andeq	r8, r0, r0, lsr #3
  7c:	000000d8 	ldrdeq	r0, [r0], -r8
  80:	84080e42 	strhi	r0, [r8], #-3650	; 0xfffff1be
  84:	42018e02 	andmi	r8, r1, #2, 28
  88:	0000100e 	andeq	r1, r0, lr
  8c:	0000000c 	andeq	r0, r0, ip
  90:	ffffffff 			; <UNDEFINED> instruction: 0xffffffff
  94:	7c020001 	stcvc	0, cr0, [r2], {1}
  98:	000d0c0e 	andeq	r0, sp, lr, lsl #24
  9c:	00000014 	andeq	r0, r0, r4, lsl r0
  a0:	0000008c 	andeq	r0, r0, ip, lsl #1
  a4:	00008278 	andeq	r8, r0, r8, ror r2
  a8:	00000064 	andeq	r0, r0, r4, rrx
  ac:	84080e42 	strhi	r0, [r8], #-3650	; 0xfffff1be
  b0:	00018e02 	andeq	r8, r1, r2, lsl #28
  b4:	00000014 	andeq	r0, r0, r4, lsl r0
  b8:	0000008c 	andeq	r0, r0, ip, lsl #1
  bc:	000082dc 	ldrdeq	r8, [r0], -ip
  c0:	0000003c 	andeq	r0, r0, ip, lsr r0
  c4:	8e040e42 	cdphi	14, 0, cr0, cr4, cr2, {2}
  c8:	100e4201 	andne	r4, lr, r1, lsl #4
  cc:	00000014 	andeq	r0, r0, r4, lsl r0
  d0:	0000008c 	andeq	r0, r0, ip, lsl #1
  d4:	00008318 	andeq	r8, r0, r8, lsl r3
  d8:	0000003c 	andeq	r0, r0, ip, lsr r0
  dc:	8e040e42 	cdphi	14, 0, cr0, cr4, cr2, {2}
  e0:	100e4201 	andne	r4, lr, r1, lsl #4
  e4:	00000014 	andeq	r0, r0, r4, lsl r0
  e8:	0000008c 	andeq	r0, r0, ip, lsl #1
  ec:	00008354 	andeq	r8, r0, r4, asr r3
  f0:	0000003c 	andeq	r0, r0, ip, lsr r0
  f4:	8e040e42 	cdphi	14, 0, cr0, cr4, cr2, {2}
  f8:	100e4201 	andne	r4, lr, r1, lsl #4
  fc:	00000014 	andeq	r0, r0, r4, lsl r0
 100:	0000008c 	andeq	r0, r0, ip, lsl #1
 104:	00008390 	muleq	r0, r0, r3
 108:	0000003c 	andeq	r0, r0, ip, lsr r0
 10c:	8e040e42 	cdphi	14, 0, cr0, cr4, cr2, {2}
 110:	100e4201 	andne	r4, lr, r1, lsl #4
 114:	00000014 	andeq	r0, r0, r4, lsl r0
 118:	0000008c 	andeq	r0, r0, ip, lsl #1
 11c:	000083cc 	andeq	r8, r0, ip, asr #7
 120:	0000003c 	andeq	r0, r0, ip, lsr r0
 124:	8e040e42 	cdphi	14, 0, cr0, cr4, cr2, {2}
 128:	100e4201 	andne	r4, lr, r1, lsl #4
 12c:	00000014 	andeq	r0, r0, r4, lsl r0
 130:	0000008c 	andeq	r0, r0, ip, lsl #1
 134:	00008408 	andeq	r8, r0, r8, lsl #8
 138:	0000003c 	andeq	r0, r0, ip, lsr r0
 13c:	8e040e42 	cdphi	14, 0, cr0, cr4, cr2, {2}
 140:	100e4201 	andne	r4, lr, r1, lsl #4
 144:	0000000c 	andeq	r0, r0, ip
 148:	ffffffff 			; <UNDEFINED> instruction: 0xffffffff
 14c:	7c020001 	stcvc	0, cr0, [r2], {1}
 150:	000d0c0e 	andeq	r0, sp, lr, lsl #24
 154:	00000018 	andeq	r0, r0, r8, lsl r0
 158:	00000144 	andeq	r0, r0, r4, asr #2
 15c:	00008444 	andeq	r8, r0, r4, asr #8
 160:	0000001c 	andeq	r0, r0, ip, lsl r0
 164:	8e040e42 	cdphi	14, 0, cr0, cr4, cr2, {2}
 168:	200e4201 	andcs	r4, lr, r1, lsl #4
 16c:	00040e46 	andeq	r0, r4, r6, asr #28
 170:	00000014 	andeq	r0, r0, r4, lsl r0
 174:	00000144 	andeq	r0, r0, r4, asr #2
 178:	00008460 	andeq	r8, r0, r0, ror #8
 17c:	00000040 	andeq	r0, r0, r0, asr #32
 180:	84080e42 	strhi	r0, [r8], #-3650	; 0xfffff1be
 184:	00018e02 	andeq	r8, r1, r2, lsl #28
 188:	0000000c 	andeq	r0, r0, ip
 18c:	ffffffff 			; <UNDEFINED> instruction: 0xffffffff
 190:	7c020001 	stcvc	0, cr0, [r2], {1}
 194:	000d0c0e 	andeq	r0, sp, lr, lsl #24
 198:	0000000c 	andeq	r0, r0, ip
 19c:	00000188 	andeq	r0, r0, r8, lsl #3
 1a0:	00008570 	andeq	r8, r0, r0, ror r5
 1a4:	00000010 	andeq	r0, r0, r0, lsl r0
 1a8:	0000000c 	andeq	r0, r0, ip
 1ac:	00000188 	andeq	r0, r0, r8, lsl #3
 1b0:	00008580 	andeq	r8, r0, r0, lsl #11
 1b4:	00000010 	andeq	r0, r0, r0, lsl r0
 1b8:	0000000c 	andeq	r0, r0, ip
 1bc:	00000188 	andeq	r0, r0, r8, lsl #3
 1c0:	00008590 	muleq	r0, r0, r5
 1c4:	00000010 	andeq	r0, r0, r0, lsl r0
 1c8:	0000001c 	andeq	r0, r0, ip, lsl r0
 1cc:	00000188 	andeq	r0, r0, r8, lsl #3
 1d0:	000085a0 	andeq	r8, r0, r0, lsr #11
 1d4:	000000d8 	ldrdeq	r0, [r0], -r8
 1d8:	8e040e42 	cdphi	14, 0, cr0, cr4, cr2, {2}
 1dc:	100e4201 	andne	r4, lr, r1, lsl #4
 1e0:	040e0a66 	streq	r0, [lr], #-2662	; 0xfffff59a
 1e4:	00000b42 	andeq	r0, r0, r2, asr #22
 1e8:	00000014 	andeq	r0, r0, r4, lsl r0
 1ec:	00000188 	andeq	r0, r0, r8, lsl #3
 1f0:	00008678 	andeq	r8, r0, r8, ror r6
 1f4:	00000058 	andeq	r0, r0, r8, asr r0
 1f8:	84080e42 	strhi	r0, [r8], #-3650	; 0xfffff1be
 1fc:	00018e02 	andeq	r8, r1, r2, lsl #28
 200:	0000001c 	andeq	r0, r0, ip, lsl r0
 204:	00000188 	andeq	r0, r0, r8, lsl #3
 208:	000086d0 	ldrdeq	r8, [r0], -r0
 20c:	00000098 	muleq	r0, r8, r0
 210:	8e040e42 	cdphi	14, 0, cr0, cr4, cr2, {2}
 214:	100e4201 	andne	r4, lr, r1, lsl #4
 218:	040e0a58 	streq	r0, [lr], #-2648	; 0xfffff5a8
 21c:	00000b42 	andeq	r0, r0, r2, asr #22
 220:	00000020 	andeq	r0, r0, r0, lsr #32
 224:	00000188 	andeq	r0, r0, r8, lsl #3
 228:	00008768 	andeq	r8, r0, r8, ror #14
 22c:	00000064 	andeq	r0, r0, r4, rrx
 230:	840c0e42 	strhi	r0, [ip], #-3650	; 0xfffff1be
 234:	8e028503 	cfsh32hi	mvfx8, mvfx2, #3
 238:	180e4201 	stmdane	lr, {r0, r9, lr}
 23c:	0c0e0a54 			; <UNDEFINED> instruction: 0x0c0e0a54
 240:	00000b42 	andeq	r0, r0, r2, asr #22
 244:	0000001c 	andeq	r0, r0, ip, lsl r0
 248:	00000188 	andeq	r0, r0, r8, lsl #3
 24c:	000087cc 	andeq	r8, r0, ip, asr #15
 250:	00000124 	andeq	r0, r0, r4, lsr #2
 254:	8e040e42 	cdphi	14, 0, cr0, cr4, cr2, {2}
 258:	100e4201 	andne	r4, lr, r1, lsl #4
 25c:	040e0a6c 	streq	r0, [lr], #-2668	; 0xfffff594
 260:	00000b42 	andeq	r0, r0, r2, asr #22
 264:	0000000c 	andeq	r0, r0, ip
 268:	00000188 	andeq	r0, r0, r8, lsl #3
 26c:	000088f0 	strdeq	r8, [r0], -r0
 270:	00000014 	andeq	r0, r0, r4, lsl r0
 274:	00000014 	andeq	r0, r0, r4, lsl r0
 278:	00000188 	andeq	r0, r0, r8, lsl #3
 27c:	00008904 	andeq	r8, r0, r4, lsl #18
 280:	00000060 	andeq	r0, r0, r0, rrx
 284:	8e040e58 	mcrhi	14, 0, r0, cr4, cr8, {2}
 288:	100e4201 	andne	r4, lr, r1, lsl #4
 28c:	0000000c 	andeq	r0, r0, ip
 290:	ffffffff 			; <UNDEFINED> instruction: 0xffffffff
 294:	7c020001 	stcvc	0, cr0, [r2], {1}
 298:	000d0c0e 	andeq	r0, sp, lr, lsl #24
 29c:	0000001c 	andeq	r0, r0, ip, lsl r0
 2a0:	0000028c 	andeq	r0, r0, ip, lsl #5
 2a4:	00008964 	andeq	r8, r0, r4, ror #18
 2a8:	000000cc 	andeq	r0, r0, ip, asr #1
 2ac:	840c0e42 	strhi	r0, [ip], #-3650	; 0xfffff1be
 2b0:	8e028503 	cfsh32hi	mvfx8, mvfx2, #3
 2b4:	180e4201 	stmdane	lr, {r0, r9, lr}
 2b8:	0c0e5802 	stceq	8, cr5, [lr], {2}
 2bc:	0000000c 	andeq	r0, r0, ip
 2c0:	ffffffff 			; <UNDEFINED> instruction: 0xffffffff
 2c4:	7c020001 	stcvc	0, cr0, [r2], {1}
 2c8:	000d0c0e 	andeq	r0, sp, lr, lsl #24
 2cc:	00000030 	andeq	r0, r0, r0, lsr r0
 2d0:	000002bc 			; <UNDEFINED> instruction: 0x000002bc
 2d4:	00008a30 	andeq	r8, r0, r0, lsr sl
 2d8:	0000002c 	andeq	r0, r0, ip, lsr #32
 2dc:	80100e42 	andshi	r0, r0, r2, asr #28
 2e0:	82038104 	andhi	r8, r3, #1
 2e4:	42018302 	andmi	r8, r1, #134217728	; 0x8000000
 2e8:	058e140e 	streq	r1, [lr, #1038]	; 0x40e
 2ec:	4a200e42 	bmi	803bfc <__bss_end__+0x7fa3fc>
 2f0:	ce42140e 	cdpgt	4, 4, cr1, cr2, cr14, {0}
 2f4:	c342100e 	movtgt	r1, #8206	; 0x200e
 2f8:	0ec0c1c2 	acseqdm	f4, f2
 2fc:	00000000 	andeq	r0, r0, r0
 300:	0000001c 	andeq	r0, r0, ip, lsl r0
 304:	000002bc 			; <UNDEFINED> instruction: 0x000002bc
 308:	00008a5c 	andeq	r8, r0, ip, asr sl
 30c:	00000104 	andeq	r0, r0, r4, lsl #2
 310:	84080e42 	strhi	r0, [r8], #-3650	; 0xfffff1be
 314:	42018e02 	andmi	r8, r1, #2, 28
 318:	6e02380e 	cdpvs	8, 0, cr3, cr2, cr14, {0}
 31c:	0000080e 	andeq	r0, r0, lr, lsl #16
 320:	0000001c 	andeq	r0, r0, ip, lsl r0
 324:	000002bc 			; <UNDEFINED> instruction: 0x000002bc
 328:	00008b60 	andeq	r8, r0, r0, ror #22
 32c:	000001b8 			; <UNDEFINED> instruction: 0x000001b8
 330:	840c0e42 	strhi	r0, [ip], #-3650	; 0xfffff1be
 334:	8e028503 	cfsh32hi	mvfx8, mvfx2, #3
 338:	200e4201 	andcs	r4, lr, r1, lsl #4
 33c:	0c0ed002 	stceq	0, cr13, [lr], {2}
 340:	0000000c 	andeq	r0, r0, ip
 344:	ffffffff 			; <UNDEFINED> instruction: 0xffffffff
 348:	7c020001 	stcvc	0, cr0, [r2], {1}
 34c:	000d0c0e 	andeq	r0, sp, lr, lsl #24
 350:	00000014 	andeq	r0, r0, r4, lsl r0
 354:	00000340 	andeq	r0, r0, r0, asr #6
 358:	00008d18 	andeq	r8, r0, r8, lsl sp
 35c:	00000014 	andeq	r0, r0, r4, lsl r0
 360:	84080e42 	strhi	r0, [r8], #-3650	; 0xfffff1be
 364:	00018e02 	andeq	r8, r1, r2, lsl #28
 368:	0000000c 	andeq	r0, r0, ip
 36c:	ffffffff 			; <UNDEFINED> instruction: 0xffffffff
 370:	7c020001 	stcvc	0, cr0, [r2], {1}
 374:	000d0c0e 	andeq	r0, sp, lr, lsl #24
 378:	00000014 	andeq	r0, r0, r4, lsl r0
 37c:	00000368 	andeq	r0, r0, r8, ror #6
 380:	00008d2c 	andeq	r8, r0, ip, lsr #26
 384:	00000020 	andeq	r0, r0, r0, lsr #32
 388:	84080e42 	strhi	r0, [r8], #-3650	; 0xfffff1be
 38c:	00018e02 	andeq	r8, r1, r2, lsl #28
 390:	0000000c 	andeq	r0, r0, ip
 394:	ffffffff 			; <UNDEFINED> instruction: 0xffffffff
 398:	7c020001 	stcvc	0, cr0, [r2], {1}
 39c:	000d0c0e 	andeq	r0, sp, lr, lsl #24
 3a0:	00000014 	andeq	r0, r0, r4, lsl r0
 3a4:	00000390 	muleq	r0, r0, r3
 3a8:	00008d4c 	andeq	r8, r0, ip, asr #26
 3ac:	00000038 	andeq	r0, r0, r8, lsr r0
 3b0:	84080e42 	strhi	r0, [r8], #-3650	; 0xfffff1be
 3b4:	00018e02 	andeq	r8, r1, r2, lsl #28
 3b8:	0000000c 	andeq	r0, r0, ip
 3bc:	ffffffff 			; <UNDEFINED> instruction: 0xffffffff
 3c0:	7c020001 	stcvc	0, cr0, [r2], {1}
 3c4:	000d0c0e 	andeq	r0, sp, lr, lsl #24
 3c8:	0000000c 	andeq	r0, r0, ip
 3cc:	000003b8 			; <UNDEFINED> instruction: 0x000003b8
 3d0:	00008d9c 	muleq	r0, ip, sp
 3d4:	00000018 	andeq	r0, r0, r8, lsl r0
 3d8:	0000000c 	andeq	r0, r0, ip
 3dc:	000003b8 			; <UNDEFINED> instruction: 0x000003b8
 3e0:	00008db4 			; <UNDEFINED> instruction: 0x00008db4
 3e4:	00000014 	andeq	r0, r0, r4, lsl r0
 3e8:	00000014 	andeq	r0, r0, r4, lsl r0
 3ec:	000003b8 			; <UNDEFINED> instruction: 0x000003b8
 3f0:	00008dc8 	andeq	r8, r0, r8, asr #27
 3f4:	00000050 	andeq	r0, r0, r0, asr r0
 3f8:	84080e42 	strhi	r0, [r8], #-3650	; 0xfffff1be
 3fc:	00018e02 	andeq	r8, r1, r2, lsl #28
 400:	0000000c 	andeq	r0, r0, ip
 404:	ffffffff 			; <UNDEFINED> instruction: 0xffffffff
 408:	7c020001 	stcvc	0, cr0, [r2], {1}
 40c:	000d0c0e 	andeq	r0, sp, lr, lsl #24
 410:	00000014 	andeq	r0, r0, r4, lsl r0
 414:	00000400 	andeq	r0, r0, r0, lsl #8
 418:	00008e18 	andeq	r8, r0, r8, lsl lr
 41c:	00000014 	andeq	r0, r0, r4, lsl r0
 420:	84080e42 	strhi	r0, [r8], #-3650	; 0xfffff1be
 424:	00018e02 	andeq	r8, r1, r2, lsl #28
 428:	00000014 	andeq	r0, r0, r4, lsl r0
 42c:	00000400 	andeq	r0, r0, r0, lsl #8
 430:	00008e2c 	andeq	r8, r0, ip, lsr #28
 434:	0000001c 	andeq	r0, r0, ip, lsl r0
 438:	84080e42 	strhi	r0, [r8], #-3650	; 0xfffff1be
 43c:	00018e02 	andeq	r8, r1, r2, lsl #28
 440:	00000018 	andeq	r0, r0, r8, lsl r0
 444:	00000400 	andeq	r0, r0, r0, lsl #8
 448:	00008e48 	andeq	r8, r0, r8, asr #28
 44c:	00000024 	andeq	r0, r0, r4, lsr #32
 450:	84100e42 	ldrhi	r0, [r0], #-3650	; 0xfffff1be
 454:	86038504 	strhi	r8, [r3], -r4, lsl #10
 458:	00018e02 	andeq	r8, r1, r2, lsl #28
 45c:	00000014 	andeq	r0, r0, r4, lsl r0
 460:	00000400 	andeq	r0, r0, r0, lsl #8
 464:	00008e6c 	andeq	r8, r0, ip, ror #28
 468:	00000018 	andeq	r0, r0, r8, lsl r0
 46c:	84080e42 	strhi	r0, [r8], #-3650	; 0xfffff1be
 470:	00018e02 	andeq	r8, r1, r2, lsl #28
 474:	00000014 	andeq	r0, r0, r4, lsl r0
 478:	00000400 	andeq	r0, r0, r0, lsl #8
 47c:	00008e84 	andeq	r8, r0, r4, lsl #29
 480:	00000018 	andeq	r0, r0, r8, lsl r0
 484:	84080e42 	strhi	r0, [r8], #-3650	; 0xfffff1be
 488:	00018e02 	andeq	r8, r1, r2, lsl #28
 48c:	0000000c 	andeq	r0, r0, ip
 490:	ffffffff 			; <UNDEFINED> instruction: 0xffffffff
 494:	7c020001 	stcvc	0, cr0, [r2], {1}
 498:	000d0c0e 	andeq	r0, sp, lr, lsl #24
 49c:	00000018 	andeq	r0, r0, r8, lsl r0
 4a0:	0000048c 	andeq	r0, r0, ip, lsl #9
 4a4:	00008e9c 	muleq	r0, ip, lr
 4a8:	00000020 	andeq	r0, r0, r0, lsr #32
 4ac:	84100e42 	ldrhi	r0, [r0], #-3650	; 0xfffff1be
 4b0:	86038504 	strhi	r8, [r3], -r4, lsl #10
 4b4:	00018e02 	andeq	r8, r1, r2, lsl #28
 4b8:	00000018 	andeq	r0, r0, r8, lsl r0
 4bc:	0000048c 	andeq	r0, r0, ip, lsl #9
 4c0:	00008ebc 			; <UNDEFINED> instruction: 0x00008ebc
 4c4:	00000020 	andeq	r0, r0, r0, lsr #32
 4c8:	84100e42 	ldrhi	r0, [r0], #-3650	; 0xfffff1be
 4cc:	86038504 	strhi	r8, [r3], -r4, lsl #10
 4d0:	00018e02 	andeq	r8, r1, r2, lsl #28
 4d4:	00000014 	andeq	r0, r0, r4, lsl r0
 4d8:	0000048c 	andeq	r0, r0, ip, lsl #9
 4dc:	00008edc 	ldrdeq	r8, [r0], -ip
 4e0:	000000b0 	strheq	r0, [r0], -r0	; <UNPREDICTABLE>
 4e4:	84080e42 	strhi	r0, [r8], #-3650	; 0xfffff1be
 4e8:	00018e02 	andeq	r8, r1, r2, lsl #28
 4ec:	00000014 	andeq	r0, r0, r4, lsl r0
 4f0:	0000048c 	andeq	r0, r0, ip, lsl #9
 4f4:	00008f8c 	andeq	r8, r0, ip, lsl #31
 4f8:	00000018 	andeq	r0, r0, r8, lsl r0
 4fc:	84080e42 	strhi	r0, [r8], #-3650	; 0xfffff1be
 500:	00018e02 	andeq	r8, r1, r2, lsl #28
 504:	00000014 	andeq	r0, r0, r4, lsl r0
 508:	0000048c 	andeq	r0, r0, ip, lsl #9
 50c:	00008fa4 	andeq	r8, r0, r4, lsr #31
 510:	00000020 	andeq	r0, r0, r0, lsr #32
 514:	84080e42 	strhi	r0, [r8], #-3650	; 0xfffff1be
 518:	00018e02 	andeq	r8, r1, r2, lsl #28
 51c:	00000014 	andeq	r0, r0, r4, lsl r0
 520:	0000048c 	andeq	r0, r0, ip, lsl #9
 524:	00008fc4 	andeq	r8, r0, r4, asr #31
 528:	00000030 	andeq	r0, r0, r0, lsr r0
 52c:	84080e42 	strhi	r0, [r8], #-3650	; 0xfffff1be
 530:	00018e02 	andeq	r8, r1, r2, lsl #28
 534:	00000014 	andeq	r0, r0, r4, lsl r0
 538:	0000048c 	andeq	r0, r0, ip, lsl #9
 53c:	00008ff4 	strdeq	r8, [r0], -r4
 540:	00000030 	andeq	r0, r0, r0, lsr r0
 544:	84080e42 	strhi	r0, [r8], #-3650	; 0xfffff1be
 548:	00018e02 	andeq	r8, r1, r2, lsl #28
 54c:	00000014 	andeq	r0, r0, r4, lsl r0
 550:	0000048c 	andeq	r0, r0, ip, lsl #9
 554:	00009024 	andeq	r9, r0, r4, lsr #32
 558:	00000010 	andeq	r0, r0, r0, lsl r0
 55c:	84080e42 	strhi	r0, [r8], #-3650	; 0xfffff1be
 560:	00018e02 	andeq	r8, r1, r2, lsl #28
 564:	00000014 	andeq	r0, r0, r4, lsl r0
 568:	0000048c 	andeq	r0, r0, ip, lsl #9
 56c:	00009034 	andeq	r9, r0, r4, lsr r0
 570:	00000020 	andeq	r0, r0, r0, lsr #32
 574:	84080e42 	strhi	r0, [r8], #-3650	; 0xfffff1be
 578:	00018e02 	andeq	r8, r1, r2, lsl #28
 57c:	00000014 	andeq	r0, r0, r4, lsl r0
 580:	0000048c 	andeq	r0, r0, ip, lsl #9
 584:	00009054 	andeq	r9, r0, r4, asr r0
 588:	00000014 	andeq	r0, r0, r4, lsl r0
 58c:	84080e42 	strhi	r0, [r8], #-3650	; 0xfffff1be
 590:	00018e02 	andeq	r8, r1, r2, lsl #28
 594:	00000014 	andeq	r0, r0, r4, lsl r0
 598:	0000048c 	andeq	r0, r0, ip, lsl #9
 59c:	00009068 	andeq	r9, r0, r8, rrx
 5a0:	00000024 	andeq	r0, r0, r4, lsr #32
 5a4:	84080e42 	strhi	r0, [r8], #-3650	; 0xfffff1be
 5a8:	00018e02 	andeq	r8, r1, r2, lsl #28
 5ac:	0000000c 	andeq	r0, r0, ip
 5b0:	ffffffff 			; <UNDEFINED> instruction: 0xffffffff
 5b4:	7c020001 	stcvc	0, cr0, [r2], {1}
 5b8:	000d0c0e 	andeq	r0, sp, lr, lsl #24
 5bc:	00000014 	andeq	r0, r0, r4, lsl r0
 5c0:	000005ac 	andeq	r0, r0, ip, lsr #11
 5c4:	0000908c 	andeq	r9, r0, ip, lsl #1
 5c8:	00000028 	andeq	r0, r0, r8, lsr #32
 5cc:	84080e48 	strhi	r0, [r8], #-3656	; 0xfffff1b8
 5d0:	00018e02 	andeq	r8, r1, r2, lsl #28
 5d4:	00000014 	andeq	r0, r0, r4, lsl r0
 5d8:	000005ac 	andeq	r0, r0, ip, lsr #11
 5dc:	000090b4 	strheq	r9, [r0], -r4
 5e0:	00000028 	andeq	r0, r0, r8, lsr #32
 5e4:	84080e48 	strhi	r0, [r8], #-3656	; 0xfffff1b8
 5e8:	00018e02 	andeq	r8, r1, r2, lsl #28
 5ec:	00000014 	andeq	r0, r0, r4, lsl r0
 5f0:	000005ac 	andeq	r0, r0, ip, lsr #11
 5f4:	000090dc 	ldrdeq	r9, [r0], -ip
 5f8:	0000001c 	andeq	r0, r0, ip, lsl r0
 5fc:	84080e42 	strhi	r0, [r8], #-3650	; 0xfffff1be
 600:	00018e02 	andeq	r8, r1, r2, lsl #28
 604:	00000018 	andeq	r0, r0, r8, lsl r0
 608:	000005ac 	andeq	r0, r0, ip, lsr #11
 60c:	000090f8 	strdeq	r9, [r0], -r8
 610:	00000038 	andeq	r0, r0, r8, lsr r0
 614:	84080e48 	strhi	r0, [r8], #-3656	; 0xfffff1b8
 618:	4e018e02 	cdpmi	14, 0, cr8, cr1, cr2, {0}
 61c:	cec4000e 	cdpgt	0, 12, cr0, cr4, cr14, {0}
 620:	0000001c 	andeq	r0, r0, ip, lsl r0
 624:	000005ac 	andeq	r0, r0, ip, lsr #11
 628:	00009130 	andeq	r9, r0, r0, lsr r1
 62c:	00000068 	andeq	r0, r0, r8, rrx
 630:	84180e48 	ldrhi	r0, [r8], #-3656	; 0xfffff1b8
 634:	86058506 	strhi	r8, [r5], -r6, lsl #10
 638:	88038704 	stmdahi	r3, {r2, r8, r9, sl, pc}
 63c:	00018e02 	andeq	r8, r1, r2, lsl #28
 640:	00000014 	andeq	r0, r0, r4, lsl r0
 644:	000005ac 	andeq	r0, r0, ip, lsr #11
 648:	00009198 	muleq	r0, r8, r1
 64c:	00000010 	andeq	r0, r0, r0, lsl r0
 650:	84080e42 	strhi	r0, [r8], #-3650	; 0xfffff1be
 654:	00018e02 	andeq	r8, r1, r2, lsl #28
 658:	00000014 	andeq	r0, r0, r4, lsl r0
 65c:	000005ac 	andeq	r0, r0, ip, lsr #11
 660:	000091a8 	andeq	r9, r0, r8, lsr #3
 664:	00000010 	andeq	r0, r0, r0, lsl r0
 668:	84080e42 	strhi	r0, [r8], #-3650	; 0xfffff1be
 66c:	00018e02 	andeq	r8, r1, r2, lsl #28
 670:	0000000c 	andeq	r0, r0, ip
 674:	ffffffff 			; <UNDEFINED> instruction: 0xffffffff
 678:	7c020001 	stcvc	0, cr0, [r2], {1}
 67c:	000d0c0e 	andeq	r0, sp, lr, lsl #24
 680:	00000014 	andeq	r0, r0, r4, lsl r0
 684:	00000670 	andeq	r0, r0, r0, ror r6
 688:	000091b8 			; <UNDEFINED> instruction: 0x000091b8
 68c:	00000028 	andeq	r0, r0, r8, lsr #32
 690:	84080e42 	strhi	r0, [r8], #-3650	; 0xfffff1be
 694:	00018e02 	andeq	r8, r1, r2, lsl #28

Disassembly of section .debug_ranges:

00000000 <.debug_ranges>:
   0:	00000170 	andeq	r0, r0, r0, ror r1
   4:	00000170 	andeq	r0, r0, r0, ror r1
   8:	00000170 	andeq	r0, r0, r0, ror r1
   c:	00000178 	andeq	r0, r0, r8, ror r1
	...
  18:	00000288 	andeq	r0, r0, r8, lsl #5
  1c:	000002a0 	andeq	r0, r0, r0, lsr #5
  20:	00000308 	andeq	r0, r0, r8, lsl #6
  24:	00000328 	andeq	r0, r0, r8, lsr #6
	...
  30:	0000014c 	andeq	r0, r0, ip, asr #2
  34:	0000014c 	andeq	r0, r0, ip, asr #2
  38:	00000164 	andeq	r0, r0, r4, ror #2
  3c:	000002d4 	ldrdeq	r0, [r0], -r4
	...
  48:	00008d9c 	muleq	r0, ip, sp
  4c:	00008e18 	andeq	r8, r0, r8, lsl lr
	...
